Certificate:
    Data:
        Version: 3 (0x2)
        Serial Number: 4096 (0x1000)
    Signature Algorithm: sha256WithRSAEncryption
        Issuer: C=CZ, ST=Jihomoravsky kraj, O=OpenStack Common Libraries, OU=Engineering, CN=Intermediate CA 001
        Validity
            Not Before: Aug 14 16:16:13 2018 GMT
            Not After : Sep  4 16:16:13 2018 GMT
        Subject: C=CZ, ST=Jihomoravsky kraj, L=Brno, O=OpenStack Common Libraries, OU=Engineering, CN=Node 001001
        Subject Public Key Info:
            Public Key Algorithm: rsaEncryption
                Public-Key: (2048 bit)
                Modulus:
                    00:9e:58:5d:b4:b2:2f:67:9d:ba:34:21:0d:ce:4c:
                    69:4c:42:16:94:46:60:36:0a:5b:35:1e:8d:a7:60:
                    4c:d0:51:4a:7c:4f:10:ad:48:9c:dd:ad:ea:e0:e5:
                    66:76:05:fd:5c:b0:24:02:12:8a:05:f0:38:ee:ec:
                    fb:ad:30:74:68:1c:be:6c:46:66:dc:e9:8c:b7:a0:
                    55:46:6d:7c:b6:6d:8d:0b:70:cd:ea:50:da:1f:61:
                    8a:59:aa:72:93:d4:56:15:f0:ac:b2:b4:66:e8:42:
                    3c:b4:51:60:92:5b:d7:12:68:e9:0e:12:92:64:69:
                    a5:b6:37:31:e2:9b:7e:c3:e5:82:0d:d9:21:98:0c:
                    8c:0c:55:76:8f:34:c3:e6:ed:fd:04:81:b5:a4:b3:
                    88:ae:54:10:9d:d3:64:9e:f5:f1:51:92:ce:fa:a9:
                    3d:12:d3:0f:c3:e9:59:ef:cc:f6:86:8a:c4:66:c9:
                    6b:47:4e:b4:9b:60:65:ee:37:09:94:12:df:6d:33:
                    21:ba:f9:86:eb:ef:20:e6:3b:9e:fa:1c:f9:3f:33:
                    0d:fb:d2:e1:c7:7e:af:61:8a:d3:4f:05:35:b7:f3:
                    a7:93:77:ad:b4:06:a9:54:18:07:10:e4:b4:17:4b:
                    94:6c:b0:27:1d:6c:f5:ae:dc:14:63:95:3c:42:26:
                    de:d1
                Exponent: 65537 (0x10001)
        X509v3 extensions:
            X509v3 Basic Constraints: 
                CA:FALSE
            Netscape Cert Type: 
                SSL Client, S/MIME
            Netscape Comment: 
                OpenSSL Generated Client Certificate
            X509v3 Subject Key Identifier: 
                91:44:AD:7D:C6:60:29:83:25:2E:D2:1D:86:C7:71:5C:8C:D7:56:45
            X509v3 Authority Key Identifier: 
                keyid:52:14:F4:89:78:A6:BC:FB:14:42:9C:75:93:B3:8F:6D:87:87:4F:6D

            X509v3 Key Usage: critical
                Digital Signature, Non Repudiation, Key Encipherment
            X509v3 Extended Key Usage: 
                TLS Web Client Authentication, E-mail Protection
    Signature Algorithm: sha256WithRSAEncryption
         3a:05:c3:0f:a1:cb:c1:c2:c0:29:9b:4c:61:6b:28:a7:b9:7e:
         8a:f6:ca:2b:53:cb:8d:a7:37:d6:3d:52:75:ee:c6:70:c5:d0:
         15:ee:e7:0c:2c:55:66:f7:e8:c9:f7:0e:b5:b4:1e:fc:b4:d9:
         c1:fa:18:32:5d:06:ed:01:ba:3a:79:93:4e:d7:5c:b4:9b:46:
         9d:73:ef:04:58:91:e7:22:73:b0:a8:63:2f:e7:12:25:96:13:
         77:3e:ef:a6:12:b2:1f:04:47:76:8e:b4:ce:d9:13:69:3e:25:
         3f:6e:97:f9:8f:88:aa:40:cf:9b:6f:3e:8c:f5:0a:68:0a:59:
         55:2c:c5:4c:5e:78:56:a5:b5:01:be:4c:84:7d:ed:3f:3e:73:
         67:c9:93:c1:bb:55:6f:44:4b:06:79:6b:af:ce:ed:d3:8d:b3:
         0c:48:d8:55:05:97:49:1d:9d:50:9f:fb:df:f3:b5:e3:de:2e:
         87:26:7c:ed:3a:16:2f:df:63:68:1b:69:ea:37:31:9b:4e:ff:
         3d:40:ea:73:d6:ea:2a:f5:84:a9:53:59:c7:c9:f4:ab:66:e2:
         7b:d0:3e:3d:23:a0:70:16:b7:76:6b:e7:4b:1b:e4:d8:ec:d4:
         b6:f8:c1:5f:38:da:e2:c2:c8:ea:83:d5:46:35:45:2e:fa:38:
         f4:5f:45:ba:68:e9:91:aa:03:bb:94:6a:e3:83:42:44:1a:36:
         83:7e:cd:4c:ac:b9:18:90:8c:91:fa:03:c6:4b:35:34:8a:ec:
         90:a3:0e:70:92:9b:6a:6b:fc:29:fe:6f:0a:01:b8:71:ab:03:
         49:73:4e:01:8d:54:4d:24:a6:42:df:15:af:2a:7a:33:36:25:
         ab:e7:8d:cc:58:fd:cb:84:74:45:c3:26:d9:78:0f:48:f6:24:
         77:d9:bb:2e:c5:55:69:5d:fe:fd:e4:96:c9:9e:a4:88:d9:bf:
         31:3e:1e:97:44:0b:d4:a9:03:35:39:a7:66:a2:a2:6b:4e:21:
         c0:b8:e0:eb:75:af:9b:fd:94:6c:74:1c:8c:dd:16:1a:7c:a2:
         0e:4d:bc:1b:48:67:ab:e3:f2:01:49:40:c3:ea:e6:f8:5d:2c:
         c4:2b:39:7b:b4:8f:83:47:29:3b:6d:5b:1c:ec:cc:a1:fd:44:
         48:69:a4:a8:b9:68:85:12:0c:e2:20:41:7f:38:9c:71:9e:d8:
         ee:6b:92:c4:05:4d:07:7c:70:99:d2:f9:c0:ed:33:ea:02:5a:
         ef:94:f0:50:a2:ce:b7:0e:0e:0c:31:6c:0b:8c:eb:c9:ca:64:
         4e:1a:aa:71:74:34:d9:b9:57:1a:a8:26:b4:58:dd:65:45:7b:
         0a:5e:7a:00:30:71:41:e4
-----BEGIN CERTIFICATE-----
MIIFTzCCAzegAwIBAgICEAAwDQYJKoZIhvcNAQELBQAwgYIxCzAJBgNVBAYTAkNa
MRowGAYDVQQIDBFKaWhvbW9yYXZza3kga3JhajEjMCEGA1UECgwaT3BlblN0YWNr
IENvbW1vbiBMaWJyYXJpZXMxFDASBgNVBAsMC0VuZ2luZWVyaW5nMRwwGgYDVQQD
DBNJbnRlcm1lZGlhdGUgQ0EgMDAxMB4XDTE4MDgxNDE2MTYxM1oXDTE4MDkwNDE2
MTYxM1owgYkxCzAJBgNVBAYTAkNaMRowGAYDVQQIDBFKaWhvbW9yYXZza3kga3Jh
ajENMAsGA1UEBwwEQnJubzEjMCEGA1UECgwaT3BlblN0YWNrIENvbW1vbiBMaWJy
YXJpZXMxFDASBgNVBAsMC0VuZ2luZWVyaW5nMRQwEgYDVQQDDAtOb2RlIDAwMTAw
MTCCASIwDQYJKoZIhvcNAQEBBQADggEPADCCAQoCggEBAJ5YXbSyL2edujQhDc5M
aUxCFpRGYDYKWzUejadgTNBRSnxPEK1InN2t6uDlZnYF/VywJAISigXwOO7s+60w
dGgcvmxGZtzpjLegVUZtfLZtjQtwzepQ2h9hilmqcpPUVhXwrLK0ZuhCPLRRYJJb
1xJo6Q4SkmRppbY3MeKbfsPlgg3ZIZgMjAxVdo80w+bt/QSBtaSziK5UEJ3TZJ71
8VGSzvqpPRLTD8PpWe/M9oaKxGbJa0dOtJtgZe43CZQS320zIbr5huvvIOY7nvoc
+T8zDfvS4cd+r2GK008FNbfzp5N3rbQGqVQYBxDktBdLlGywJx1s9a7cFGOVPEIm
3tECAwEAAaOBxTCBwjAJBgNVHRMEAjAAMBEGCWCGSAGG+EIBAQQEAwIFoDAzBglg
hkgBhvhCAQ0EJhYkT3BlblNTTCBHZW5lcmF0ZWQgQ2xpZW50IENlcnRpZmljYXRl
MB0GA1UdDgQWBBSRRK19xmApgyUu0h2Gx3FcjNdWRTAfBgNVHSMEGDAWgBRSFPSJ
eKa8+xRCnHWTs49th4dPbTAOBgNVHQ8BAf8EBAMCBeAwHQYDVR0lBBYwFAYIKwYB
BQUHAwIGCCsGAQUFBwMEMA0GCSqGSIb3DQEBCwUAA4ICAQA6BcMPocvBwsApm0xh
ayinuX6K9sorU8uNpzfWPVJ17sZwxdAV7ucMLFVm9+jJ9w61tB78tNnB+hgyXQbt
Abo6eZNO11y0m0adc+8EWJHnInOwqGMv5xIllhN3Pu+mErIfBEd2jrTO2RNpPiU/
bpf5j4iqQM+bbz6M9QpoCllVLMVMXnhWpbUBvkyEfe0/PnNnyZPBu1VvREsGeWuv
zu3TjbMMSNhVBZdJHZ1Qn/vf87Xj3i6HJnztOhYv32NoG2nqNzGbTv89QOpz1uoq
9YSpU1nHyfSrZuJ70D49I6BwFrd2a+dLG+TY7NS2+MFfONriwsjqg9VGNUUu+jj0
X0W6aOmRqgO7lGrjg0JEGjaDfs1MrLkYkIyR+gPGSzU0iuyQow5wkptqa/wp/m8K
AbhxqwNJc04BjVRNJKZC3xWvKnozNiWr543MWP3LhHRFwybZeA9I9iR32bsuxVVp
Xf795JbJnqSI2b8xPh6XRAvUqQM1OadmoqJrTiHAuODrda+b/ZRsdByM3RYafKIO
TbwbSGer4/IBSUDD6ub4XSzEKzl7tI+DRyk7bVsc7Myh/URIaaSouWiFEgziIEF/
OJxxntjua5LEBU0HfHCZ0vnA7TPqAlrvlPBQos63Dg4MMWwLjOvJymROGqpxdDTZ
uVcaqCa0WN1lRXsKXnoAMHFB5A==
-----END CERTIFICATE-----
Certificate:
    Data:
        Version: 3 (0x2)
        Serial Number: 4097 (0x1001)
    Signature Algorithm: sha256WithRSAEncryption
        Issuer: C=CZ, ST=Jihomoravsky kraj, L=Brno, O=OpenStack Common Libraries, OU=Engineering, CN=Root CA
        Validity
            Not Before: Aug 14 16:16:10 2018 GMT
            Not After : Aug 11 16:16:10 2028 GMT
        Subject: C=CZ, ST=Jihomoravsky kraj, O=OpenStack Common Libraries, OU=Engineering, CN=Intermediate CA 001
        Subject Public Key Info:
            Public Key Algorithm: rsaEncryption
                Public-Key: (4096 bit)
                Modulus:
                    00:e1:e0:14:60:ce:42:ef:e5:24:85:a3:17:ba:f1:
                    09:d2:15:87:ba:3a:e3:b3:2d:1f:15:fc:3a:ca:f9:
                    a3:f8:33:ac:d2:82:8a:da:b7:2b:b9:11:26:d9:99:
                    9b:6b:e1:fd:e8:25:d6:1c:eb:8c:3f:c0:48:2b:ba:
                    8b:52:97:b0:5c:bb:06:93:39:79:c1:27:12:4f:0d:
                    54:fb:c5:ae:74:d1:28:28:55:f8:6d:2f:db:37:87:
                    51:f2:9c:24:2b:80:87:0c:19:71:7a:33:95:25:71:
                    09:b4:96:b8:8d:a5:f2:f6:8b:a8:05:4e:4a:2f:17:
                    90:51:3a:9a:14:8a:3a:38:50:e2:bf:b9:d8:ab:08:
                    3f:3b:d3:53:f7:4a:1f:bc:6c:3d:72:63:fa:9a:ae:
                    d0:5a:b7:7f:ad:ff:4c:6f:1e:f0:92:9d:b0:f8:a9:
                    bf:9f:d4:6a:c7:ec:42:a5:a8:ea:81:25:12:6a:23:
                    15:ca:18:c1:b3:cc:0e:77:67:d6:52:09:b4:f1:81:
                    ed:25:1e:80:92:ba:2e:17:21:0d:a4:01:b6:d7:1f:
                    f2:d3:2d:b5:a8:e1:c4:5b:b3:78:63:7c:73:ce:2b:
                    b2:ae:d3:a8:28:f3:4f:52:ff:4d:50:8a:fa:30:f7:
                    13:fa:7a:f2:49:ee:1c:4d:55:ce:a3:1d:85:f0:9a:
                    ae:42:1d:40:bd:61:47:44:b8:e9:36:56:ab:21:37:
                    10:03:df:4b:0f:5e:ed:ad:f1:9a:59:af:c4:9c:ea:
                    b8:7c:60:78:fd:da:ab:96:ed:b3:fa:da:d8:99:5d:
                    77:e9:cb:4d:45:bc:02:cc:b9:79:bb:1d:be:36:f0:
                    35:56:46:82:78:a2:ae:7b:b5:4a:ce:69:e5:5e:0a:
                    98:05:f9:ba:47:b1:ac:63:7b:db:05:fa:57:da:a0:
                    64:3c:e3:96:30:70:ce:80:a1:c0:70:3a:f4:62:23:
                    f7:36:5d:be:44:d1:fc:2f:88:be:2d:9e:80:41:10:
                    a2:0a:38:d2:3a:f1:8f:a0:99:8a:da:dd:68:75:5c:
                    4c:e8:1e:3c:41:5e:c9:3c:f6:7c:a9:47:7e:b4:94:
                    b7:bb:a3:bd:2a:4e:a2:59:f6:65:a5:7f:5c:93:e7:
                    77:b8:75:6e:0e:a6:47:46:4a:fc:a8:8f:6e:ad:b9:
                    c2:bc:c5:3d:48:5d:a3:71:d5:33:c8:b5:db:ee:b9:
                    f6:e8:1c:40:35:82:76:af:65:c8:fb:b7:88:a3:53:
                    75:c4:55:db:bd:48:72:ac:14:f1:b0:ae:77:0d:da:
                    e4:20:43:f6:d0:bd:fe:b0:b1:3a:9e:6f:2d:45:0d:
                    cf:3b:c0:37:03:38:29:3b:bc:44:b9:de:40:29:6c:
                    65:00:19
                Exponent: 65537 (0x10001)
        X509v3 extensions:
            X509v3 Subject Key Identifier: 
                52:14:F4:89:78:A6:BC:FB:14:42:9C:75:93:B3:8F:6D:87:87:4F:6D
            X509v3 Authority Key Identifier: 
                keyid:93:83:48:92:23:B6:C3:DA:A7:15:85:08:41:75:30:67:97:A5:D4:9C

            X509v3 Basic Constraints: critical
                CA:TRUE, pathlen:0
            X509v3 Key Usage: critical
                Digital Signature, Certificate Sign, CRL Sign
    Signature Algorithm: sha256WithRSAEncryption
         16:5c:2f:f3:34:47:ac:a6:0b:2f:16:82:3e:02:a0:ee:37:a9:
         54:46:aa:9b:39:34:a5:97:d9:7b:67:92:93:91:bf:9e:0e:7c:
         31:33:79:47:b2:52:96:0f:33:cf:e5:1c:45:38:96:39:94:b6:
         b6:00:d9:7e:d4:42:1f:38:1f:b0:b7:52:9d:2b:6b:9d:cb:78:
         65:ef:65:0d:bf:9f:3d:81:ea:63:a2:c4:63:58:da:1f:c9:60:
         9c:17:58:29:15:d9:81:88:a0:fc:60:7e:65:82:48:c2:2c:95:
         96:dd:ff:9d:91:47:80:96:46:e8:0a:8c:ef:18:c0:a7:85:98:
         f6:d6:d2:c6:23:9f:ef:cb:5d:51:c9:0d:26:5f:3f:e0:fb:f5:
         22:bd:ce:14:a2:11:b8:2a:13:9f:29:a0:33:0a:e3:3e:63:f9:
         37:79:84:7a:1d:60:b3:bc:e8:b5:6f:f0:70:c9:fd:4a:0e:a5:
         14:79:c0:ff:a2:67:5a:bb:a4:87:a7:7f:83:fc:00:13:8a:fb:
         ad:43:72:df:cf:40:f1:cb:8a:16:31:b8:80:a7:bf:19:ab:a1:
         22:f8:72:b2:28:2f:e8:db:60:bb:0d:a5:11:1b:cd:9f:0a:a2:
         81:9b:1c:94:9c:56:1c:1e:66:54:63:bd:7b:3f:83:be:78:fc:
         f0:af:27:46:2a:d8:e0:f0:86:47:5f:83:14:14:2b:f4:24:78:
         89:78:be:07:9d:72:10:d2:47:43:29:40:19:85:fc:eb:31:75:
         f0:43:ab:2e:c8:21:80:aa:de:85:cd:3b:69:09:90:71:e6:3a:
         dc:4e:e4:c5:ec:bc:ef:6a:26:45:2c:c5:ba:0b:53:c3:20:b6:
         c8:40:a7:f6:ff:d3:69:e2:58:f3:9c:a1:f2:a4:4f:86:fa:dd:
         56:3b:eb:4a:c4:81:9b:0c:1c:27:08:0d:cf:b0:0e:2d:0e:55:
         83:1f:23:39:a8:43:04:ac:01:20:55:21:ef:8d:36:f2:b7:ed:
         5b:c5:60:17:1a:fd:4a:67:26:31:d0:09:ae:71:a4:c4:1c:38:
         e2:f1:ce:ca:54:ee:17:c6:b9:92:64:ee:19:2f:ca:3e:c3:6e:
         3f:0e:e6:22:71:6e:8f:f1:2b:e7:25:50:77:c5:34:bf:ee:6e:
         fb:a9:d5:8b:ed:87:78:9a:4c:bf:da:d0:1e:f2:2c:09:52:89:
         c9:b5:51:c7:45:59:34:27:c6:7b:46:92:59:1f:a1:39:ac:e4:
         3e:e2:c4:0a:dd:39:67:e5:2a:d0:e3:63:64:aa:6c:7f:dd:21:
         de:e1:83:3a:13:6b:88:cc:56:14:5e:8f:9f:13:42:62:9a:38:
         41:bd:b0:30:cb:3a:cd:f1
-----BEGIN CERTIFICATE-----
MIIF6zCCA9OgAwIBAgICEAEwDQYJKoZIhvcNAQELBQAwgYUxCzAJBgNVBAYTAkNa
MRowGAYDVQQIDBFKaWhvbW9yYXZza3kga3JhajENMAsGA1UEBwwEQnJubzEjMCEG
A1UECgwaT3BlblN0YWNrIENvbW1vbiBMaWJyYXJpZXMxFDASBgNVBAsMC0VuZ2lu
ZWVyaW5nMRAwDgYDVQQDDAdSb290IENBMB4XDTE4MDgxNDE2MTYxMFoXDTI4MDgx
MTE2MTYxMFowgYIxCzAJBgNVBAYTAkNaMRowGAYDVQQIDBFKaWhvbW9yYXZza3kg
a3JhajEjMCEGA1UECgwaT3BlblN0YWNrIENvbW1vbiBMaWJyYXJpZXMxFDASBgNV
BAsMC0VuZ2luZWVyaW5nMRwwGgYDVQQDDBNJbnRlcm1lZGlhdGUgQ0EgMDAxMIIC
IjANBgkqhkiG9w0BAQEFAAOCAg8AMIICCgKCAgEA4eAUYM5C7+UkhaMXuvEJ0hWH
ujrjsy0fFfw6yvmj+DOs0oKK2rcruREm2Zmba+H96CXWHOuMP8BIK7qLUpewXLsG
kzl5wScSTw1U+8WudNEoKFX4bS/bN4dR8pwkK4CHDBlxejOVJXEJtJa4jaXy9ouo
BU5KLxeQUTqaFIo6OFDiv7nYqwg/O9NT90ofvGw9cmP6mq7QWrd/rf9Mbx7wkp2w
+Km/n9Rqx+xCpajqgSUSaiMVyhjBs8wOd2fWUgm08YHtJR6AkrouFyENpAG21x/y
0y21qOHEW7N4Y3xzziuyrtOoKPNPUv9NUIr6MPcT+nrySe4cTVXOox2F8JquQh1A
vWFHRLjpNlarITcQA99LD17trfGaWa/EnOq4fGB4/dqrlu2z+trYmV136ctNRbwC
zLl5ux2+NvA1VkaCeKKue7VKzmnlXgqYBfm6R7GsY3vbBfpX2qBkPOOWMHDOgKHA
cDr0YiP3Nl2+RNH8L4i+LZ6AQRCiCjjSOvGPoJmK2t1odVxM6B48QV7JPPZ8qUd+
tJS3u6O9Kk6iWfZlpX9ck+d3uHVuDqZHRkr8qI9urbnCvMU9SF2jcdUzyLXb7rn2
6BxANYJ2r2XI+7eIo1N1xFXbvUhyrBTxsK53DdrkIEP20L3+sLE6nm8tRQ3PO8A3
AzgpO7xEud5AKWxlABkCAwEAAaNmMGQwHQYDVR0OBBYEFFIU9Il4prz7FEKcdZOz
j22Hh09tMB8GA1UdIwQYMBaAFJODSJIjtsPapxWFCEF1MGeXpdScMBIGA1UdEwEB
/wQIMAYBAf8CAQAwDgYDVR0PAQH/BAQDAgGGMA0GCSqGSIb3DQEBCwUAA4ICAQAW
XC/zNEespgsvFoI+AqDuN6lURqqbOTSll9l7Z5KTkb+eDnwxM3lHslKWDzPP5RxF
OJY5lLa2ANl+1EIfOB+wt1KdK2udy3hl72UNv589gepjosRjWNofyWCcF1gpFdmB
iKD8YH5lgkjCLJWW3f+dkUeAlkboCozvGMCnhZj21tLGI5/vy11RyQ0mXz/g+/Ui
vc4UohG4KhOfKaAzCuM+Y/k3eYR6HWCzvOi1b/Bwyf1KDqUUecD/omdau6SHp3+D
/AATivutQ3Lfz0Dxy4oWMbiAp78Zq6Ei+HKyKC/o22C7DaURG82fCqKBmxyUnFYc
HmZUY717P4O+ePzwrydGKtjg8IZHX4MUFCv0JHiJeL4HnXIQ0kdDKUAZhfzrMXXw
Q6suyCGAqt6FzTtpCZBx5jrcTuTF7LzvaiZFLMW6C1PDILbIQKf2/9Np4ljznKHy
pE+G+t1WO+tKxIGbDBwnCA3PsA4tDlWDHyM5qEMErAEgVSHvjTbyt+1bxWAXGv1K
ZyYx0AmucaTEHDji8c7KVO4XxrmSZO4ZL8o+w24/DuYicW6P8SvnJVB3xTS/7m77
qdWL7Yd4mky/2tAe8iwJUonJtVHHRVk0J8Z7RpJZH6E5rOQ+4sQK3Tln5SrQ42Nk
qmx/3SHe4YM6E2uIzFYUXo+fE0JimjhBvbAwyzrN8Q==
-----END CERTIFICATE-----
