Certificate:
    Data:
        Version: 3 (0x2)
        Serial Number: 4096 (0x1000)
    Signature Algorithm: sha256WithRSAEncryption
        Issuer: C=CZ, ST=Jihomoravsky kraj, L=Brno, O=OpenStack Common Libraries, OU=Engineering, CN=Root CA
        Validity
            Not Before: Aug 14 16:16:10 2018 GMT
            Not After : Aug 24 16:16:10 2019 GMT
        Subject: C=CZ, ST=Jihomoravsky kraj, O=OpenStack Common Libraries, OU=Engineering, CN=Server
        Subject Public Key Info:
            Public Key Algorithm: rsaEncryption
                Public-Key: (2048 bit)
                Modulus:
                    00:c0:fa:ba:54:cc:52:fe:92:95:cb:66:d1:8f:de:
                    3a:12:8c:ec:3b:5b:56:53:22:90:26:3b:f6:b5:d2:
                    10:80:97:8e:a3:1f:dc:72:fa:4e:0c:31:23:23:28:
                    88:2d:34:4e:48:c3:8b:72:0e:a1:4e:25:51:bd:1e:
                    b2:d1:79:2f:b4:e1:95:5f:56:a9:34:16:ad:da:bd:
                    a0:92:41:4d:2b:5a:07:56:0f:a6:85:28:33:86:67:
                    fb:36:b5:d3:14:52:be:f1:c0:65:90:aa:e4:5b:8d:
                    48:de:94:18:d0:29:3e:51:79:9f:d9:6b:56:f1:45:
                    91:88:98:84:ef:e0:a1:2a:9d:e3:66:c7:17:24:cd:
                    41:21:b8:f9:f2:e3:5f:39:d1:49:53:11:80:36:0e:
                    aa:d0:a8:78:e3:97:74:8d:ca:16:07:eb:3f:b7:c7:
                    a3:35:b0:56:63:07:e6:27:db:eb:56:78:25:d2:6a:
                    fe:bf:1e:ae:a4:14:e6:e1:e2:91:22:b1:91:ff:b2:
                    83:8c:c6:b7:5e:ca:5b:a4:d2:0d:92:ff:e4:53:97:
                    bc:9c:ec:41:76:11:75:4e:15:3e:a1:06:65:69:4e:
                    96:74:9c:94:75:64:5b:9e:0b:18:5c:a3:29:98:e1:
                    e5:3a:08:c8:37:55:03:7b:34:30:71:98:b7:da:e9:
                    18:a9
                Exponent: 65537 (0x10001)
        X509v3 extensions:
            X509v3 Basic Constraints: 
                CA:FALSE
            Netscape Cert Type: 
                SSL Server
            Netscape Comment: 
                OpenSSL Generated Server Certificate
            X509v3 Subject Key Identifier: 
                BD:68:8F:AA:08:CB:8E:A2:32:82:FB:69:42:7D:E9:57:9F:7B:6E:F6
            X509v3 Authority Key Identifier: 
                keyid:93:83:48:92:23:B6:C3:DA:A7:15:85:08:41:75:30:67:97:A5:D4:9C
                DirName:/C=CZ/ST=Jihomoravsky kraj/L=Brno/O=OpenStack Common Libraries/OU=Engineering/CN=Root CA
                serial:BD:32:EB:7A:EB:23:F4:63

            X509v3 Key Usage: critical
                Digital Signature, Key Encipherment
            X509v3 Extended Key Usage: 
                TLS Web Server Authentication
            X509v3 Subject Alternative Name: 
                DNS:localhost
    Signature Algorithm: sha256WithRSAEncryption
         77:0a:89:bf:bf:61:f1:07:2f:81:44:5a:25:82:0b:25:9e:79:
         ab:29:79:04:8d:e7:b6:f9:4e:bc:38:31:61:36:11:26:2b:78:
         1b:14:35:e3:1c:a3:5b:10:aa:7f:c3:2b:72:f4:4a:f5:5e:74:
         89:a9:79:a0:f9:d9:b2:b9:47:cf:e8:71:d2:dd:e6:e9:5d:5a:
         f0:6b:87:e9:aa:ac:54:e3:c0:84:2e:39:ca:53:11:be:ff:52:
         1d:37:bd:93:dc:b7:ce:88:7a:18:71:b1:46:d7:35:73:2e:3b:
         e3:bc:56:db:dc:64:f5:d6:c7:a5:10:e8:1e:7b:80:60:cf:aa:
         88:46:ae:dd:eb:f6:1c:31:06:63:61:e6:b8:c2:60:ce:77:71:
         c9:bd:d0:85:70:79:53:6d:fe:71:e3:23:23:b5:25:28:aa:75:
         59:e2:e0:5a:58:b8:d2:eb:ee:d7:d5:dc:02:50:32:45:55:e7:
         36:66:df:3e:c5:0f:e3:d3:cc:21:f9:0d:64:98:e1:8e:10:e4:
         5b:13:6d:ad:54:20:4e:1f:de:8d:53:f4:81:51:40:c9:eb:41:
         0b:76:97:89:35:fc:94:75:e1:7a:0f:83:66:8d:99:4e:f6:66:
         d2:7d:43:24:aa:b6:a6:51:28:7e:31:76:32:27:ea:46:d2:0e:
         99:df:1a:7e:62:0f:a3:27:b2:ab:0d:1f:a6:85:d2:aa:6b:1b:
         16:dc:fd:81:ef:30:32:af:d2:f3:fa:ac:94:bc:a5:0e:18:91:
         70:69:ed:f8:14:41:63:67:ce:7b:fa:bf:9e:3e:dc:68:8f:26:
         75:4b:73:c1:69:83:34:ea:df:ad:49:16:93:5f:c5:a7:24:f2:
         07:de:9f:20:d3:0f:0e:89:32:13:3e:4a:69:9b:a1:43:93:12:
         05:22:ca:30:f7:a1:47:28:23:4a:20:bd:bf:5f:7f:fa:74:dd:
         10:a1:f4:da:98:8c:c8:f3:2d:3d:d8:8b:00:fe:72:e6:d0:0d:
         9c:2c:fb:b9:73:b5:0d:76:8d:91:e4:1e:b9:3a:3b:2d:20:61:
         4d:38:53:7b:7d:81:90:0b:9e:c6:26:c3:1b:e8:7a:a7:6e:fb:
         1c:5a:22:af:e5:c2:ba:b4:21:e0:81:2b:0c:2e:4b:cf:fd:a7:
         94:59:6c:d2:96:1a:76:e6:b8:f8:a8:6f:3d:c7:1e:1b:f8:ba:
         97:2a:54:d6:6d:25:68:c0:d4:94:a9:19:ee:79:c8:10:31:b6:
         ce:9b:6b:60:67:93:46:5c:8c:d9:ce:01:0d:bb:12:24:25:2a:
         4d:b2:80:26:a1:40:aa:8b:02:91:0a:8e:f2:3d:2c:12:1e:06:
         08:58:28:f4:e5:01:5f:98
-----BEGIN CERTIFICATE-----
MIIF5zCCA8+gAwIBAgICEAAwDQYJKoZIhvcNAQELBQAwgYUxCzAJBgNVBAYTAkNa
MRowGAYDVQQIDBFKaWhvbW9yYXZza3kga3JhajENMAsGA1UEBwwEQnJubzEjMCEG
A1UECgwaT3BlblN0YWNrIENvbW1vbiBMaWJyYXJpZXMxFDASBgNVBAsMC0VuZ2lu
ZWVyaW5nMRAwDgYDVQQDDAdSb290IENBMB4XDTE4MDgxNDE2MTYxMFoXDTE5MDgy
NDE2MTYxMFowdTELMAkGA1UEBhMCQ1oxGjAYBgNVBAgMEUppaG9tb3JhdnNreSBr
cmFqMSMwIQYDVQQKDBpPcGVuU3RhY2sgQ29tbW9uIExpYnJhcmllczEUMBIGA1UE
CwwLRW5naW5lZXJpbmcxDzANBgNVBAMMBlNlcnZlcjCCASIwDQYJKoZIhvcNAQEB
BQADggEPADCCAQoCggEBAMD6ulTMUv6Slctm0Y/eOhKM7DtbVlMikCY79rXSEICX
jqMf3HL6TgwxIyMoiC00TkjDi3IOoU4lUb0estF5L7ThlV9WqTQWrdq9oJJBTSta
B1YPpoUoM4Zn+za10xRSvvHAZZCq5FuNSN6UGNApPlF5n9lrVvFFkYiYhO/goSqd
42bHFyTNQSG4+fLjXznRSVMRgDYOqtCoeOOXdI3KFgfrP7fHozWwVmMH5ifb61Z4
JdJq/r8erqQU5uHikSKxkf+yg4zGt17KW6TSDZL/5FOXvJzsQXYRdU4VPqEGZWlO
lnSclHVkW54LGFyjKZjh5ToIyDdVA3s0MHGYt9rpGKkCAwEAAaOCAW4wggFqMAkG
A1UdEwQCMAAwEQYJYIZIAYb4QgEBBAQDAgZAMDMGCWCGSAGG+EIBDQQmFiRPcGVu
U1NMIEdlbmVyYXRlZCBTZXJ2ZXIgQ2VydGlmaWNhdGUwHQYDVR0OBBYEFL1oj6oI
y46iMoL7aUJ96Vefe272MIG6BgNVHSMEgbIwga+AFJODSJIjtsPapxWFCEF1MGeX
pdScoYGLpIGIMIGFMQswCQYDVQQGEwJDWjEaMBgGA1UECAwRSmlob21vcmF2c2t5
IGtyYWoxDTALBgNVBAcMBEJybm8xIzAhBgNVBAoMGk9wZW5TdGFjayBDb21tb24g
TGlicmFyaWVzMRQwEgYDVQQLDAtFbmdpbmVlcmluZzEQMA4GA1UEAwwHUm9vdCBD
QYIJAL0y63rrI/RjMA4GA1UdDwEB/wQEAwIFoDATBgNVHSUEDDAKBggrBgEFBQcD
ATAUBgNVHREEDTALgglsb2NhbGhvc3QwDQYJKoZIhvcNAQELBQADggIBAHcKib+/
YfEHL4FEWiWCCyWeeaspeQSN57b5Trw4MWE2ESYreBsUNeMco1sQqn/DK3L0SvVe
dImpeaD52bK5R8/ocdLd5uldWvBrh+mqrFTjwIQuOcpTEb7/Uh03vZPct86Iehhx
sUbXNXMuO+O8VtvcZPXWx6UQ6B57gGDPqohGrt3r9hwxBmNh5rjCYM53ccm90IVw
eVNt/nHjIyO1JSiqdVni4FpYuNLr7tfV3AJQMkVV5zZm3z7FD+PTzCH5DWSY4Y4Q
5FsTba1UIE4f3o1T9IFRQMnrQQt2l4k1/JR14XoPg2aNmU72ZtJ9QySqtqZRKH4x
djIn6kbSDpnfGn5iD6MnsqsNH6aF0qprGxbc/YHvMDKv0vP6rJS8pQ4YkXBp7fgU
QWNnznv6v54+3GiPJnVLc8FpgzTq361JFpNfxack8gfenyDTDw6JMhM+SmmboUOT
EgUiyjD3oUcoI0ogvb9ff/p03RCh9NqYjMjzLT3YiwD+cubQDZws+7lztQ12jZHk
Hrk6Oy0gYU04U3t9gZALnsYmwxvoeqdu+xxaIq/lwrq0IeCBKwwuS8/9p5RZbNKW
GnbmuPiobz3HHhv4upcqVNZtJWjA1JSpGe55yBAxts6ba2Bnk0ZcjNnOAQ27EiQl
Kk2ygCahQKqLApEKjvI9LBIeBghYKPTlAV+Y
-----END CERTIFICATE-----
