Certificate:
    Data:
        Version: 3 (0x2)
        Serial Number: 17717696528216344917 (0xf5e1e71eba81c955)
    Signature Algorithm: sha256WithRSAEncryption
        Issuer: C=CZ, ST=Jihomoravsky kraj, L=Brno, O=OpenStack Common Libraries, OU=Engineering, CN=Root CA
        Validity
            Not Before: Aug 10 16:28:02 2018 GMT
            Not After : Aug  5 16:28:02 2038 GMT
        Subject: C=CZ, ST=Jihomoravsky kraj, L=Brno, O=OpenStack Common Libraries, OU=Engineering, CN=Root CA
        Subject Public Key Info:
            Public Key Algorithm: rsaEncryption
                Public-Key: (2048 bit)
                Modulus:
                    00:cb:03:dc:6b:1f:d2:a8:86:81:65:79:d5:81:d5:
                    0c:4a:3a:41:09:5e:b3:31:ae:4e:50:d3:d7:72:0f:
                    61:ad:03:db:3b:9f:7f:5b:0c:9e:e1:a2:9f:54:a1:
                    63:17:72:6a:cb:73:b6:8f:d7:04:55:0b:fb:10:dc:
                    82:7d:fe:f4:7e:ac:26:c0:db:be:74:89:ca:69:48:
                    d7:c9:fb:41:f4:7a:84:d0:6f:ff:e1:3f:ff:07:e9:
                    67:e4:d6:4b:37:7a:47:33:d8:ae:c3:a3:1e:3d:06:
                    c2:e3:c3:07:67:67:d3:73:0a:de:37:05:8b:40:2b:
                    c3:31:e6:7a:79:90:a2:d7:e2:57:52:78:3b:4b:46:
                    92:80:9b:e1:b4:64:29:21:5d:f7:01:0a:bf:63:13:
                    80:72:9b:69:0d:75:6d:57:81:4f:26:6c:03:0d:c6:
                    18:a5:39:ce:1e:84:54:50:8f:40:0e:19:6d:d0:7e:
                    56:b4:6b:89:65:e6:ba:94:55:3f:ff:63:3c:2d:fa:
                    82:60:37:94:f8:f9:93:5a:0c:27:b8:ab:70:06:3e:
                    a8:a2:26:ae:b6:ce:a0:3e:05:c8:7a:73:cc:24:c7:
                    f0:f9:5a:7b:d3:ec:95:30:54:75:6b:5d:1e:e2:8f:
                    0a:e2:4d:8e:4d:d2:a2:04:14:fd:52:b4:8c:58:64:
                    87:8f
                Exponent: 65537 (0x10001)
        X509v3 extensions:
            X509v3 Subject Key Identifier: 
                FF:EE:5D:6F:A5:B1:66:52:28:CC:10:71:3F:41:50:11:96:97:E7:F9
            X509v3 Authority Key Identifier: 
                keyid:FF:EE:5D:6F:A5:B1:66:52:28:CC:10:71:3F:41:50:11:96:97:E7:F9

            X509v3 Basic Constraints: critical
                CA:TRUE
            X509v3 Key Usage: critical
                Digital Signature, Certificate Sign, CRL Sign
    Signature Algorithm: sha256WithRSAEncryption
         53:82:b5:e9:7c:dc:82:c5:db:3e:ed:37:67:33:c4:f4:70:82:
         a1:43:8f:0f:55:ca:94:c1:2d:60:ce:15:4f:bf:9a:69:9d:d3:
         9d:26:45:4a:82:cd:7f:96:de:5f:7d:6f:99:77:26:5e:a1:ca:
         6b:10:af:c6:5c:dc:10:c0:c8:05:07:be:91:15:80:67:e2:9d:
         60:21:d1:b0:69:5a:ab:fe:40:5d:23:08:d2:9e:77:f7:a9:d1:
         1b:0b:14:bc:e8:b8:6b:b4:05:14:07:1c:4f:62:f0:d7:0d:0d:
         f9:eb:5e:f0:43:59:cb:37:2d:93:a8:57:76:f5:d4:53:0e:0e:
         2e:8a:7d:d8:2e:ea:cd:d3:f2:95:1d:c3:64:70:cb:61:0d:6a:
         ba:d2:a8:b8:df:6c:af:80:e1:92:3a:00:e5:5e:30:77:e5:44:
         6d:8d:ee:e3:18:e5:59:6e:63:d0:46:fa:39:01:72:13:41:cc:
         4f:44:89:91:b2:37:70:4f:6c:66:ad:68:9a:a1:25:fe:fa:b7:
         d5:3a:50:3f:bc:cf:54:53:8b:bd:2e:a4:f1:83:76:cc:97:be:
         29:62:49:22:4a:b8:8d:f0:e0:a9:95:f1:b9:04:d5:61:a8:fe:
         7a:1d:2c:ca:f2:ef:18:3d:79:4c:2c:54:e2:e1:15:ac:ef:ac:
         88:ed:8a:99
-----BEGIN CERTIFICATE-----
MIID8jCCAtqgAwIBAgIJAPXh5x66gclVMA0GCSqGSIb3DQEBCwUAMIGFMQswCQYD
VQQGEwJDWjEaMBgGA1UECAwRSmlob21vcmF2c2t5IGtyYWoxDTALBgNVBAcMBEJy
bm8xIzAhBgNVBAoMGk9wZW5TdGFjayBDb21tb24gTGlicmFyaWVzMRQwEgYDVQQL
DAtFbmdpbmVlcmluZzEQMA4GA1UEAwwHUm9vdCBDQTAeFw0xODA4MTAxNjI4MDJa
Fw0zODA4MDUxNjI4MDJaMIGFMQswCQYDVQQGEwJDWjEaMBgGA1UECAwRSmlob21v
cmF2c2t5IGtyYWoxDTALBgNVBAcMBEJybm8xIzAhBgNVBAoMGk9wZW5TdGFjayBD
b21tb24gTGlicmFyaWVzMRQwEgYDVQQLDAtFbmdpbmVlcmluZzEQMA4GA1UEAwwH
Um9vdCBDQTCCASIwDQYJKoZIhvcNAQEBBQADggEPADCCAQoCggEBAMsD3Gsf0qiG
gWV51YHVDEo6QQleszGuTlDT13IPYa0D2zuff1sMnuGin1ShYxdyastzto/XBFUL
+xDcgn3+9H6sJsDbvnSJymlI18n7QfR6hNBv/+E//wfpZ+TWSzd6RzPYrsOjHj0G
wuPDB2dn03MK3jcFi0ArwzHmenmQotfiV1J4O0tGkoCb4bRkKSFd9wEKv2MTgHKb
aQ11bVeBTyZsAw3GGKU5zh6EVFCPQA4ZbdB+VrRriWXmupRVP/9jPC36gmA3lPj5
k1oMJ7ircAY+qKImrrbOoD4FyHpzzCTH8Plae9PslTBUdWtdHuKPCuJNjk3SogQU
/VK0jFhkh48CAwEAAaNjMGEwHQYDVR0OBBYEFP/uXW+lsWZSKMwQcT9BUBGWl+f5
MB8GA1UdIwQYMBaAFP/uXW+lsWZSKMwQcT9BUBGWl+f5MA8GA1UdEwEB/wQFMAMB
Af8wDgYDVR0PAQH/BAQDAgGGMA0GCSqGSIb3DQEBCwUAA4IBAQBTgrXpfNyCxds+
7TdnM8T0cIKhQ48PVcqUwS1gzhVPv5ppndOdJkVKgs1/lt5ffW+ZdyZeocprEK/G
XNwQwMgFB76RFYBn4p1gIdGwaVqr/kBdIwjSnnf3qdEbCxS86LhrtAUUBxxPYvDX
DQ35617wQ1nLNy2TqFd29dRTDg4uin3YLurN0/KVHcNkcMthDWq60qi432yvgOGS
OgDlXjB35URtje7jGOVZbmPQRvo5AXITQcxPRImRsjdwT2xmrWiaoSX++rfVOlA/
vM9UU4u9LqTxg3bMl74pYkkiSriN8OCplfG5BNVhqP56HSzK8u8YPXlMLFTi4RWs
76yI7YqZ
-----END CERTIFICATE-----
