Certificate:
    Data:
        Version: 3 (0x2)
        Serial Number: 4101 (0x1005)
    Signature Algorithm: sha256WithRSAEncryption
        Issuer: C=CZ, ST=Jihomoravsky kraj, L=Brno, O=OpenStack Common Libraries, OU=Engineering, CN=Root CA
        Validity
            Not Before: Aug 10 16:28:11 2018 GMT
            Not After : Aug 20 16:28:11 2019 GMT
        Subject: C=CZ, ST=Jihomoravsky kraj, O=OpenStack Common Libraries, OU=Engineering, CN=Server
        Subject Public Key Info:
            Public Key Algorithm: rsaEncryption
                Public-Key: (2048 bit)
                Modulus:
                    00:ad:f6:8e:cd:39:0f:88:ec:3a:f8:91:42:93:42:
                    2d:31:bb:74:17:c9:a8:cb:c5:b0:41:e3:9f:79:e0:
                    be:68:88:31:5c:81:9a:eb:23:13:d0:cc:6e:06:17:
                    18:ca:2f:32:62:3e:ad:ec:f5:c3:2f:2f:9c:db:35:
                    a7:93:5b:46:f6:14:2f:40:53:c3:91:64:76:64:bb:
                    87:38:a2:b3:2a:39:2e:10:ee:4a:9b:07:9c:20:ec:
                    e9:2f:01:6b:19:e3:c4:e8:b6:15:34:59:c8:8b:09:
                    08:a7:bc:4e:ef:40:cd:3a:b2:30:d4:cc:8d:4c:23:
                    59:62:fb:66:16:7f:98:b4:a7:1d:2e:42:4a:ed:a6:
                    43:4a:d2:98:73:55:d5:db:7e:e1:65:2f:8c:58:db:
                    53:c3:3c:fb:8c:2d:ec:48:8e:5b:b0:39:15:03:6d:
                    22:05:6a:5d:ab:dc:4c:11:58:f6:3b:85:cd:84:7a:
                    cc:40:03:5f:39:09:5d:d9:bf:f0:5e:a2:e7:06:ad:
                    34:23:b2:39:ba:ac:71:f2:a6:67:c5:c9:0f:51:6d:
                    1c:58:89:14:b4:bd:ef:c3:88:cb:11:40:ff:ca:ab:
                    69:7f:24:a9:5b:43:ed:82:82:97:4f:b0:8a:65:49:
                    9f:c4:d9:55:31:2a:a8:35:26:37:3a:f8:f7:4c:b3:
                    fd:03
                Exponent: 65537 (0x10001)
        X509v3 extensions:
            X509v3 Basic Constraints: 
                CA:FALSE
            Netscape Cert Type: 
                SSL Server
            Netscape Comment: 
                OpenSSL Generated Server Certificate
            X509v3 Subject Key Identifier: 
                20:B3:86:54:B1:89:64:B0:59:13:51:B4:45:F6:04:83:41:29:41:4E
            X509v3 Authority Key Identifier: 
                keyid:FF:EE:5D:6F:A5:B1:66:52:28:CC:10:71:3F:41:50:11:96:97:E7:F9
                DirName:/C=CZ/ST=Jihomoravsky kraj/L=Brno/O=OpenStack Common Libraries/OU=Engineering/CN=Root CA
                serial:F5:E1:E7:1E:BA:81:C9:55

            X509v3 Key Usage: critical
                Digital Signature, Key Encipherment
            X509v3 Extended Key Usage: 
                TLS Web Server Authentication
    Signature Algorithm: sha256WithRSAEncryption
         63:31:4d:f8:56:d2:76:12:6c:4f:44:b8:c0:e2:43:1d:b5:08:
         e0:79:69:ed:52:1c:52:bc:eb:3c:46:0f:c0:b6:3a:5d:22:0b:
         98:11:7c:66:b3:10:03:72:08:1e:36:05:8f:f1:2a:fe:5a:bf:
         30:6f:f7:ab:ae:fd:9e:39:f1:da:52:d2:85:0f:cf:1e:b2:b0:
         b4:57:af:0e:9d:5b:5d:fe:95:6a:45:e1:fb:d5:4e:e8:b2:43:
         b2:63:42:d0:18:9d:4b:d5:88:80:32:83:e1:d7:3d:5a:40:56:
         d3:bb:89:bc:67:b5:32:10:58:a6:4b:00:6a:ef:d8:a2:6d:36:
         f8:5b:6e:2f:03:e2:ec:51:f5:8a:d6:72:6b:2e:79:3a:52:94:
         22:8d:53:dd:93:c0:6b:3a:23:52:e5:78:92:ca:ee:2d:3a:30:
         9a:56:7b:7b:4a:1c:3d:d1:84:da:dd:9d:42:96:ef:7f:72:5d:
         28:9b:7d:b0:0d:53:27:75:1d:07:ce:95:e1:5c:cf:98:d3:ff:
         0d:e8:0a:9f:18:26:8d:29:a0:c1:e5:d1:fa:d1:d0:84:a7:6e:
         89:89:8c:d4:43:f7:3b:5c:35:d6:bd:c7:82:86:03:5d:30:f1:
         f6:87:9d:c1:6f:34:7a:79:62:ab:a1:c2:da:3d:77:0b:1a:6b:
         96:51:31:2a
-----BEGIN CERTIFICATE-----
MIIE0TCCA7mgAwIBAgICEAUwDQYJKoZIhvcNAQELBQAwgYUxCzAJBgNVBAYTAkNa
MRowGAYDVQQIDBFKaWhvbW9yYXZza3kga3JhajENMAsGA1UEBwwEQnJubzEjMCEG
A1UECgwaT3BlblN0YWNrIENvbW1vbiBMaWJyYXJpZXMxFDASBgNVBAsMC0VuZ2lu
ZWVyaW5nMRAwDgYDVQQDDAdSb290IENBMB4XDTE4MDgxMDE2MjgxMVoXDTE5MDgy
MDE2MjgxMVowdTELMAkGA1UEBhMCQ1oxGjAYBgNVBAgMEUppaG9tb3JhdnNreSBr
cmFqMSMwIQYDVQQKDBpPcGVuU3RhY2sgQ29tbW9uIExpYnJhcmllczEUMBIGA1UE
CwwLRW5naW5lZXJpbmcxDzANBgNVBAMMBlNlcnZlcjCCASIwDQYJKoZIhvcNAQEB
BQADggEPADCCAQoCggEBAK32js05D4jsOviRQpNCLTG7dBfJqMvFsEHjn3ngvmiI
MVyBmusjE9DMbgYXGMovMmI+rez1wy8vnNs1p5NbRvYUL0BTw5FkdmS7hziisyo5
LhDuSpsHnCDs6S8BaxnjxOi2FTRZyIsJCKe8Tu9AzTqyMNTMjUwjWWL7ZhZ/mLSn
HS5CSu2mQ0rSmHNV1dt+4WUvjFjbU8M8+4wt7EiOW7A5FQNtIgVqXavcTBFY9juF
zYR6zEADXzkJXdm/8F6i5watNCOyObqscfKmZ8XJD1FtHFiJFLS978OIyxFA/8qr
aX8kqVtD7YKCl0+wimVJn8TZVTEqqDUmNzr490yz/QMCAwEAAaOCAVgwggFUMAkG
A1UdEwQCMAAwEQYJYIZIAYb4QgEBBAQDAgZAMDMGCWCGSAGG+EIBDQQmFiRPcGVu
U1NMIEdlbmVyYXRlZCBTZXJ2ZXIgQ2VydGlmaWNhdGUwHQYDVR0OBBYEFCCzhlSx
iWSwWRNRtEX2BINBKUFOMIG6BgNVHSMEgbIwga+AFP/uXW+lsWZSKMwQcT9BUBGW
l+f5oYGLpIGIMIGFMQswCQYDVQQGEwJDWjEaMBgGA1UECAwRSmlob21vcmF2c2t5
IGtyYWoxDTALBgNVBAcMBEJybm8xIzAhBgNVBAoMGk9wZW5TdGFjayBDb21tb24g
TGlicmFyaWVzMRQwEgYDVQQLDAtFbmdpbmVlcmluZzEQMA4GA1UEAwwHUm9vdCBD
QYIJAPXh5x66gclVMA4GA1UdDwEB/wQEAwIFoDATBgNVHSUEDDAKBggrBgEFBQcD
ATANBgkqhkiG9w0BAQsFAAOCAQEAYzFN+FbSdhJsT0S4wOJDHbUI4Hlp7VIcUrzr
PEYPwLY6XSILmBF8ZrMQA3IIHjYFj/Eq/lq/MG/3q679njnx2lLShQ/PHrKwtFev
Dp1bXf6VakXh+9VO6LJDsmNC0BidS9WIgDKD4dc9WkBW07uJvGe1MhBYpksAau/Y
om02+FtuLwPi7FH1itZyay55OlKUIo1T3ZPAazojUuV4ksruLTowmlZ7e0ocPdGE
2t2dQpbvf3JdKJt9sA1TJ3UdB86V4VzPmNP/DegKnxgmjSmgweXR+tHQhKduiYmM
1EP3O1w11r3HgoYDXTDx9oedwW80enliq6HC2j13CxprllExKg==
-----END CERTIFICATE-----
