Certificate:
    Data:
        Version: 3 (0x2)
        Serial Number:
            bd:32:eb:7a:eb:23:f4:63
    Signature Algorithm: sha256WithRSAEncryption
        Issuer: C = CZ, ST = Jihomoravsky kraj, L = Brno, O = OpenStack Common Libraries, OU = Engineering, CN = Root CA
        Validity
            Not Before: Aug 14 16:16:10 2018 GMT
            Not After : Aug  9 16:16:10 2038 GMT
        Subject: C = CZ, ST = Jihomoravsky kraj, L = Brno, O = OpenStack Common Libraries, OU = Engineering, CN = Root CA
        Subject Public Key Info:
            Public Key Algorithm: rsaEncryption
                Public-Key: (4096 bit)
                Modulus:
                    00:ab:c3:75:68:0e:56:27:b8:93:0f:3a:10:f8:40:
                    99:2b:90:09:6e:c6:82:25:61:aa:da:95:a7:49:f4:
                    94:95:96:cc:b6:fb:dd:e5:b5:c0:66:4b:85:80:e8:
                    05:92:56:03:38:b1:43:d1:10:8d:1a:d3:3e:7d:6b:
                    f8:07:98:6c:3a:cb:e9:7d:cf:0a:90:4e:18:f5:a3:
                    1d:8a:40:7f:b8:9d:2b:e6:2f:d7:f1:e1:8a:3b:41:
                    34:98:b6:1a:81:f5:41:55:8c:c5:87:05:e9:79:57:
                    b3:3a:ea:fa:04:e8:e4:6f:7b:b7:49:75:b7:c9:61:
                    d6:99:f2:bd:cc:f2:15:54:bb:04:b7:1b:47:2b:87:
                    69:8e:38:2e:b7:c4:01:56:0a:cd:72:bf:1d:4d:a3:
                    df:81:50:85:b2:45:e6:8c:d1:32:f7:c4:36:69:a0:
                    8b:d6:ca:7b:8d:75:5a:d5:ec:2c:91:bf:fe:29:23:
                    7b:96:d8:82:43:06:32:0a:f0:9c:d9:e3:e3:39:99:
                    00:1b:fd:c0:b2:8c:39:af:a4:d3:59:90:c4:88:a4:
                    7c:ba:e9:0f:d9:6b:5f:82:d5:22:f6:5e:2f:0f:5c:
                    fa:71:28:5b:3f:1d:c9:c5:e9:b1:76:2b:a2:e1:c4:
                    d6:2a:75:b5:f7:7d:5c:e4:26:a0:99:0a:db:36:b7:
                    df:71:5b:a8:c8:7c:15:a9:03:eb:47:1f:e2:e4:c8:
                    a5:b2:b1:17:0b:fb:03:d3:a4:02:c8:a2:7a:28:48:
                    03:64:8e:09:65:1b:1a:a9:ec:a1:34:85:d1:06:74:
                    8d:bc:ac:ff:dd:a7:25:2b:7a:3d:a7:08:2e:48:9b:
                    03:51:66:6d:a7:7e:b2:46:f7:6f:77:8f:88:b9:38:
                    33:e8:06:73:8f:2c:67:3b:17:06:b7:e0:54:a4:70:
                    56:71:ba:ef:f0:65:c3:ee:57:52:7e:7a:01:f2:b3:
                    02:d5:c9:7b:e6:c5:d8:59:5c:88:d9:15:27:83:21:
                    9d:1d:c6:a5:44:d3:e8:23:dc:de:ce:a2:d6:83:6e:
                    a6:56:58:67:87:73:1c:e3:7e:fe:66:05:8e:46:bd:
                    4e:ea:88:75:c0:d9:be:6a:48:d9:54:c2:60:2c:c7:
                    18:fa:f7:d7:b1:da:62:df:23:b4:34:fb:7a:7a:1b:
                    fd:97:ef:ff:5d:15:35:05:f8:93:54:35:d0:eb:27:
                    06:4e:92:cf:d8:3b:fb:2a:bd:00:2d:05:41:b4:88:
                    a9:87:9d:c3:02:46:f8:c9:8a:df:fd:cf:ea:9e:9b:
                    c4:13:ca:59:b0:d8:64:c7:05:9a:7e:f5:38:fa:55:
                    4a:cd:38:6d:1d:49:48:25:37:a3:57:22:a4:ec:9d:
                    89:fe:dd
                Exponent: 65537 (0x10001)
        X509v3 extensions:
            X509v3 Subject Key Identifier: 
                93:83:48:92:23:B6:C3:DA:A7:15:85:08:41:75:30:67:97:A5:D4:9C
            X509v3 Authority Key Identifier: 
                keyid:93:83:48:92:23:B6:C3:DA:A7:15:85:08:41:75:30:67:97:A5:D4:9C

            X509v3 Basic Constraints: critical
                CA:TRUE
            X509v3 Key Usage: critical
                Digital Signature, Certificate Sign, CRL Sign
    Signature Algorithm: sha256WithRSAEncryption
         46:05:44:0a:36:8b:ff:60:54:61:a4:60:8e:82:ef:09:76:33:
         f2:78:d9:d9:37:2c:0b:43:45:9e:29:79:62:88:ad:46:03:d3:
         70:5a:43:6e:d5:ea:b8:8e:97:db:d9:c7:b1:ad:76:0d:b3:ad:
         3b:47:82:d2:6a:0d:9a:96:ca:4c:77:59:e9:12:21:0a:0e:21:
         cf:9c:18:ed:ec:78:bc:b8:ac:f8:1f:3c:44:b9:21:d9:4f:f3:
         58:99:f1:48:65:4c:50:67:e6:9c:aa:39:fd:75:8d:29:26:6b:
         a6:86:99:e7:40:70:64:29:80:5b:c0:18:2b:db:7b:2c:7f:2d:
         f2:b5:bd:8b:95:5c:12:26:41:8f:b5:9e:65:68:76:e5:03:20:
         d6:03:b9:54:5f:ca:75:a8:c1:e5:1f:00:2f:67:ba:af:b4:32:
         a6:9f:4e:ca:51:17:f4:83:00:dd:24:9e:9e:37:de:5b:6c:0f:
         62:72:28:d2:8e:04:d6:ce:40:8c:af:92:42:be:fe:0e:e8:4b:
         91:97:33:6e:f6:5d:74:fa:7f:5d:79:15:c0:20:f0:12:a1:10:
         71:c8:72:4f:ac:c3:e3:b8:e3:3a:cf:64:07:fd:37:e3:b3:04:
         93:92:27:cc:20:e2:d6:a6:60:61:1c:d8:55:44:bd:b0:5c:a2:
         88:17:2e:6d:49:8d:c6:03:22:37:6c:07:16:b4:92:58:39:02:
         c9:b2:59:23:69:5a:ed:83:21:78:c4:62:58:a3:a1:7d:2c:13:
         d6:d6:8a:71:f2:03:f4:83:d1:b2:33:60:6c:a1:b9:bb:f0:75:
         75:8b:89:96:61:2d:94:5d:f0:28:4e:73:d7:a2:de:32:24:26:
         cd:c5:ae:5d:6e:5e:de:f5:e3:92:2d:a5:d1:3c:74:cb:54:c6:
         42:81:8a:71:92:5e:4a:b5:af:63:53:01:64:0d:4c:8a:4c:32:
         06:ca:41:c1:8a:79:8f:22:8c:12:6b:1c:a1:23:55:42:d2:ee:
         cf:2c:87:f6:11:8f:b6:cc:c1:9d:59:ee:b5:3a:8e:d6:18:80:
         3b:17:6b:8b:aa:55:e7:0f:3d:ac:5a:66:d3:a1:93:fd:a5:a7:
         66:0a:45:ca:c7:ac:b0:dc:3d:3f:53:77:1d:fa:48:8c:1e:7a:
         1e:16:e9:b4:2d:ce:8f:2c:28:d5:ef:19:76:1b:26:b6:8e:dc:
         51:4e:b8:ad:48:ff:67:4a:d8:f7:a9:7b:6f:c6:fc:39:24:b4:
         d8:e5:37:a6:f7:8f:20:df:7b:8e:52:6b:fb:64:17:d8:e9:e6:
         f3:23:df:e4:73:ae:29:34:d3:89:b9:74:b5:ff:40:6d:f7:7e:
         dd:72:d2:57:ce:1b:ca:7f
-----BEGIN CERTIFICATE-----
MIIF8jCCA9qgAwIBAgIJAL0y63rrI/RjMA0GCSqGSIb3DQEBCwUAMIGFMQswCQYD
VQQGEwJDWjEaMBgGA1UECAwRSmlob21vcmF2c2t5IGtyYWoxDTALBgNVBAcMBEJy
bm8xIzAhBgNVBAoMGk9wZW5TdGFjayBDb21tb24gTGlicmFyaWVzMRQwEgYDVQQL
DAtFbmdpbmVlcmluZzEQMA4GA1UEAwwHUm9vdCBDQTAeFw0xODA4MTQxNjE2MTBa
Fw0zODA4MDkxNjE2MTBaMIGFMQswCQYDVQQGEwJDWjEaMBgGA1UECAwRSmlob21v
cmF2c2t5IGtyYWoxDTALBgNVBAcMBEJybm8xIzAhBgNVBAoMGk9wZW5TdGFjayBD
b21tb24gTGlicmFyaWVzMRQwEgYDVQQLDAtFbmdpbmVlcmluZzEQMA4GA1UEAwwH
Um9vdCBDQTCCAiIwDQYJKoZIhvcNAQEBBQADggIPADCCAgoCggIBAKvDdWgOVie4
kw86EPhAmSuQCW7GgiVhqtqVp0n0lJWWzLb73eW1wGZLhYDoBZJWAzixQ9EQjRrT
Pn1r+AeYbDrL6X3PCpBOGPWjHYpAf7idK+Yv1/HhijtBNJi2GoH1QVWMxYcF6XlX
szrq+gTo5G97t0l1t8lh1pnyvczyFVS7BLcbRyuHaY44LrfEAVYKzXK/HU2j34FQ
hbJF5ozRMvfENmmgi9bKe411WtXsLJG//ikje5bYgkMGMgrwnNnj4zmZABv9wLKM
Oa+k01mQxIikfLrpD9lrX4LVIvZeLw9c+nEoWz8dycXpsXYrouHE1ip1tfd9XOQm
oJkK2za333FbqMh8FakD60cf4uTIpbKxFwv7A9OkAsiieihIA2SOCWUbGqnsoTSF
0QZ0jbys/92nJSt6PacILkibA1Fmbad+skb3b3ePiLk4M+gGc48sZzsXBrfgVKRw
VnG67/Blw+5XUn56AfKzAtXJe+bF2FlciNkVJ4MhnR3GpUTT6CPc3s6i1oNuplZY
Z4dzHON+/mYFjka9TuqIdcDZvmpI2VTCYCzHGPr317HaYt8jtDT7enob/Zfv/10V
NQX4k1Q10OsnBk6Sz9g7+yq9AC0FQbSIqYedwwJG+MmK3/3P6p6bxBPKWbDYZMcF
mn71OPpVSs04bR1JSCU3o1cipOydif7dAgMBAAGjYzBhMB0GA1UdDgQWBBSTg0iS
I7bD2qcVhQhBdTBnl6XUnDAfBgNVHSMEGDAWgBSTg0iSI7bD2qcVhQhBdTBnl6XU
nDAPBgNVHRMBAf8EBTADAQH/MA4GA1UdDwEB/wQEAwIBhjANBgkqhkiG9w0BAQsF
AAOCAgEARgVECjaL/2BUYaRgjoLvCXYz8njZ2TcsC0NFnil5YoitRgPTcFpDbtXq
uI6X29nHsa12DbOtO0eC0moNmpbKTHdZ6RIhCg4hz5wY7ex4vLis+B88RLkh2U/z
WJnxSGVMUGfmnKo5/XWNKSZrpoaZ50BwZCmAW8AYK9t7LH8t8rW9i5VcEiZBj7We
ZWh25QMg1gO5VF/KdajB5R8AL2e6r7Qypp9OylEX9IMA3SSenjfeW2wPYnIo0o4E
1s5AjK+SQr7+DuhLkZczbvZddPp/XXkVwCDwEqEQcchyT6zD47jjOs9kB/0347ME
k5InzCDi1qZgYRzYVUS9sFyiiBcubUmNxgMiN2wHFrSSWDkCybJZI2la7YMheMRi
WKOhfSwT1taKcfID9IPRsjNgbKG5u/B1dYuJlmEtlF3wKE5z16LeMiQmzcWuXW5e
3vXjki2l0Tx0y1TGQoGKcZJeSrWvY1MBZA1MikwyBspBwYp5jyKMEmscoSNVQtLu
zyyH9hGPtszBnVnutTqO1hiAOxdri6pV5w89rFpm06GT/aWnZgpFysessNw9P1N3
HfpIjB56HhbptC3Ojywo1e8Zdhsmto7cUU64rUj/Z0rY96l7b8b8OSS02OU3pveP
IN97jlJr+2QX2Onm8yPf5HOuKTTTibl0tf9Abfd+3XLSV84byn8=
-----END CERTIFICATE-----
