Certificate:
    Data:
        Version: 3 (0x2)
        Serial Number: 4098 (0x1002)
    Signature Algorithm: sha256WithRSAEncryption
        Issuer: C=CZ, ST=Jihomoravsky kraj, L=Brno, O=OpenStack Common Libraries, OU=Engineering, CN=Root CA
        Validity
            Not Before: Aug 10 16:28:07 2018 GMT
            Not After : Aug  7 16:28:07 2028 GMT
        Subject: C=CZ, ST=Jihomoravsky kraj, O=OpenStack Common Libraries, OU=Engineering, CN=Intermediate CA 003
        Subject Public Key Info:
            Public Key Algorithm: rsaEncryption
                Public-Key: (2048 bit)
                Modulus:
                    00:b5:1b:90:88:2b:62:9a:5e:eb:86:f4:54:70:91:
                    32:cb:26:96:7e:33:11:9a:9a:a9:8a:40:c1:9e:ac:
                    b2:f1:5d:f2:e7:b3:7d:ec:01:ae:9b:c4:70:81:ee:
                    5a:7f:4f:7f:29:1b:54:51:1c:c2:79:be:48:a6:18:
                    39:f2:a7:8a:63:5c:a0:58:13:bb:cc:6e:1b:4e:90:
                    d7:6c:1e:7c:4d:50:f8:05:39:ae:ea:4e:6b:f2:68:
                    82:c7:fc:6d:e1:c7:e9:5f:98:79:1e:5a:09:5b:69:
                    49:68:fd:3c:b2:3a:1f:87:0d:4d:97:b9:07:4a:0b:
                    9b:fc:89:4a:0a:39:d3:77:7b:b3:94:8e:78:c8:3b:
                    a2:81:9b:51:a4:ab:17:dd:9f:c1:65:07:96:c9:2a:
                    0d:da:88:6d:8d:b0:0f:90:b5:c0:62:ef:8e:01:c9:
                    45:8c:0d:34:b1:a7:f1:69:42:37:19:9c:30:9c:c3:
                    81:b8:79:85:ac:71:90:6d:b8:df:d5:78:ec:c0:24:
                    6d:9e:ba:02:a8:ff:84:be:65:c5:ef:e9:54:37:c5:
                    21:0c:86:47:b7:68:62:af:7c:eb:fb:86:7c:bf:36:
                    b0:10:6e:95:17:b7:74:b7:3d:52:38:6b:fb:b8:6d:
                    cc:0f:69:7c:5a:55:b2:72:e0:4b:b5:dc:88:a7:50:
                    e7:6f
                Exponent: 65537 (0x10001)
        X509v3 extensions:
            X509v3 Subject Key Identifier: 
                EC:17:6C:61:91:BE:6C:AE:6F:0E:E3:D4:71:9A:80:BD:E5:EB:58:21
            X509v3 Authority Key Identifier: 
                keyid:FF:EE:5D:6F:A5:B1:66:52:28:CC:10:71:3F:41:50:11:96:97:E7:F9

            X509v3 Basic Constraints: critical
                CA:TRUE, pathlen:0
            X509v3 Key Usage: critical
                Digital Signature, Certificate Sign, CRL Sign
    Signature Algorithm: sha256WithRSAEncryption
         5e:21:37:1d:34:f8:f3:74:6c:48:9a:6c:49:9f:57:bc:dc:62:
         f0:75:a1:31:c6:32:c9:ba:5b:70:4a:9a:0e:15:2e:60:02:fe:
         63:9c:8c:c3:98:b8:7d:99:dc:6b:88:db:c2:7e:b9:2e:49:4f:
         8a:c5:a8:f1:40:72:21:7d:b4:3e:ed:79:3f:b1:8e:0b:1b:0a:
         0d:3b:58:2a:27:31:4b:20:99:fb:b6:c4:65:19:ba:87:24:77:
         e2:6e:35:b0:26:c0:8c:55:dd:76:2d:e0:1b:7f:26:f1:72:34:
         e2:b8:b2:53:82:de:94:9b:4a:76:8b:8c:5b:90:d4:40:f7:a3:
         fa:81:7c:ab:bb:9a:bd:73:cc:38:b3:4a:12:2a:b6:b6:de:42:
         99:cb:33:30:b2:a0:33:3b:eb:82:28:1c:6f:a6:ca:ee:71:79:
         e8:82:0d:02:2d:a1:78:6d:64:bc:d0:23:f0:c4:2c:83:4c:fb:
         e5:06:f1:59:74:12:3b:4b:1c:a0:f9:bd:55:e1:8b:5e:ce:b5:
         c4:0f:06:7a:cb:ab:2f:0d:63:f6:b4:28:4b:9b:2c:52:d3:43:
         9f:b9:99:cb:f4:ff:bb:ad:7e:0a:bf:55:71:b7:7c:53:05:3c:
         7a:06:3a:29:90:1b:c0:87:92:1e:7a:09:53:33:69:50:91:c3:
         e3:c9:4c:77
-----BEGIN CERTIFICATE-----
MIID6zCCAtOgAwIBAgICEAIwDQYJKoZIhvcNAQELBQAwgYUxCzAJBgNVBAYTAkNa
MRowGAYDVQQIDBFKaWhvbW9yYXZza3kga3JhajENMAsGA1UEBwwEQnJubzEjMCEG
A1UECgwaT3BlblN0YWNrIENvbW1vbiBMaWJyYXJpZXMxFDASBgNVBAsMC0VuZ2lu
ZWVyaW5nMRAwDgYDVQQDDAdSb290IENBMB4XDTE4MDgxMDE2MjgwN1oXDTI4MDgw
NzE2MjgwN1owgYIxCzAJBgNVBAYTAkNaMRowGAYDVQQIDBFKaWhvbW9yYXZza3kg
a3JhajEjMCEGA1UECgwaT3BlblN0YWNrIENvbW1vbiBMaWJyYXJpZXMxFDASBgNV
BAsMC0VuZ2luZWVyaW5nMRwwGgYDVQQDDBNJbnRlcm1lZGlhdGUgQ0EgMDAzMIIB
IjANBgkqhkiG9w0BAQEFAAOCAQ8AMIIBCgKCAQEAtRuQiCtiml7rhvRUcJEyyyaW
fjMRmpqpikDBnqyy8V3y57N97AGum8Rwge5af09/KRtUURzCeb5Iphg58qeKY1yg
WBO7zG4bTpDXbB58TVD4BTmu6k5r8miCx/xt4cfpX5h5HloJW2lJaP08sjofhw1N
l7kHSgub/IlKCjnTd3uzlI54yDuigZtRpKsX3Z/BZQeWySoN2ohtjbAPkLXAYu+O
AclFjA00safxaUI3GZwwnMOBuHmFrHGQbbjf1XjswCRtnroCqP+EvmXF7+lUN8Uh
DIZHt2hir3zr+4Z8vzawEG6VF7d0tz1SOGv7uG3MD2l8WlWycuBLtdyIp1DnbwID
AQABo2YwZDAdBgNVHQ4EFgQU7BdsYZG+bK5vDuPUcZqAveXrWCEwHwYDVR0jBBgw
FoAU/+5db6WxZlIozBBxP0FQEZaX5/kwEgYDVR0TAQH/BAgwBgEB/wIBADAOBgNV
HQ8BAf8EBAMCAYYwDQYJKoZIhvcNAQELBQADggEBAF4hNx00+PN0bEiabEmfV7zc
YvB1oTHGMsm6W3BKmg4VLmAC/mOcjMOYuH2Z3GuI28J+uS5JT4rFqPFAciF9tD7t
eT+xjgsbCg07WConMUsgmfu2xGUZuockd+JuNbAmwIxV3XYt4Bt/JvFyNOK4slOC
3pSbSnaLjFuQ1ED3o/qBfKu7mr1zzDizShIqtrbeQpnLMzCyoDM764IoHG+myu5x
eeiCDQItoXhtZLzQI/DELINM++UG8Vl0EjtLHKD5vVXhi17OtcQPBnrLqy8NY/a0
KEubLFLTQ5+5mcv0/7utfgq/VXG3fFMFPHoGOimQG8CHkh56CVMzaVCRw+PJTHc=
-----END CERTIFICATE-----
