Certificate:
    Data:
        Version: 3 (0x2)
        Serial Number: 4098 (0x1002)
    Signature Algorithm: sha256WithRSAEncryption
        Issuer: C=CZ, ST=Jihomoravsky kraj, O=OpenStack Common Libraries, OU=Engineering, CN=Intermediate CA 003
        Validity
            Not Before: Aug 14 16:16:14 2018 GMT
            Not After : Sep  4 16:16:14 2018 GMT
        Subject: C=CZ, ST=Jihomoravsky kraj, L=Brno, O=OpenStack Common Libraries, OU=Engineering, CN=Node 003003
        Subject Public Key Info:
            Public Key Algorithm: rsaEncryption
                Public-Key: (2048 bit)
                Modulus:
                    00:ae:03:99:9e:d0:8a:5a:8c:76:eb:2c:e7:c4:28:
                    cf:b3:ff:fb:cf:11:a4:df:ae:58:49:71:e5:17:20:
                    fe:e5:ec:a3:d3:35:ab:e1:82:a7:94:c4:3f:4e:ce:
                    6a:49:19:28:dd:e4:8e:04:d8:fc:3d:5e:48:b5:a4:
                    53:ef:b2:70:30:ba:cc:6e:d3:47:77:0a:9f:76:e8:
                    65:d0:42:cc:4e:91:e9:c8:f2:ef:9b:b4:bc:c4:15:
                    06:63:5d:77:88:db:d0:a1:7a:1c:3d:af:37:1e:ee:
                    ea:e9:b6:1f:7b:14:74:bb:87:30:2f:a1:d8:8a:ae:
                    4f:98:01:66:87:16:08:88:ea:3b:33:12:a7:ba:e5:
                    67:ce:87:8c:2a:50:f9:f8:5e:2a:90:3c:3a:d6:8a:
                    e3:1c:57:2a:9b:dc:17:d7:7c:de:22:af:f3:10:ca:
                    9a:76:84:c1:54:bb:4f:47:87:a0:68:d3:88:dc:18:
                    c0:6a:f5:6c:f9:6a:a1:57:dc:19:d2:65:60:bc:69:
                    9a:b1:e5:1b:55:b5:a3:bf:18:0d:86:ae:94:cd:da:
                    5f:36:e1:db:44:ef:66:4f:3e:e9:7e:8a:31:e9:9c:
                    51:db:2f:ec:32:8d:93:5a:5a:57:97:68:a2:24:a8:
                    29:25:2b:b3:8b:d9:d4:dd:7a:69:0d:8c:43:08:03:
                    6e:d1
                Exponent: 65537 (0x10001)
        X509v3 extensions:
            X509v3 Basic Constraints: 
                CA:FALSE
            Netscape Cert Type: 
                SSL Client, S/MIME
            Netscape Comment: 
                OpenSSL Generated Client Certificate
            X509v3 Subject Key Identifier: 
                9E:35:41:1A:91:DA:C0:C2:FE:0D:C8:8E:D5:04:20:E5:AF:A5:CE:CB
            X509v3 Authority Key Identifier: 
                keyid:8D:75:7D:7C:E1:58:AC:0E:06:0B:3A:25:B7:D9:70:ED:8B:23:C1:9B

            X509v3 Key Usage: critical
                Digital Signature, Non Repudiation, Key Encipherment
            X509v3 Extended Key Usage: 
                TLS Web Client Authentication, E-mail Protection
    Signature Algorithm: sha256WithRSAEncryption
         69:dc:2e:d4:e3:f6:dc:c6:4c:79:79:67:cd:9a:7e:75:8c:f0:
         53:82:da:89:ff:b5:39:81:43:74:fc:78:af:1a:bd:f3:c8:58:
         96:18:30:81:59:82:28:41:a9:17:91:cd:bf:88:25:c9:99:b8:
         2c:0f:c5:42:c2:67:ce:ba:b2:bb:e3:51:8a:ee:8e:2f:24:5d:
         15:ce:fc:7f:7a:c9:10:83:19:d7:48:1c:f8:44:27:eb:85:1f:
         39:2a:5e:a5:51:7f:96:76:b4:5e:5a:d4:77:5e:29:76:bd:e7:
         3f:ad:f2:43:b4:14:98:3e:3f:4a:c6:55:d1:52:92:dc:1f:41:
         ee:1c:f4:d7:ed:46:26:98:aa:bc:c7:f1:7a:65:4a:a7:df:f3:
         bb:0c:4f:59:67:e8:1b:8f:e8:2d:e3:49:a9:d4:c6:02:a8:db:
         c5:81:3e:b0:06:d8:e5:f4:b8:7f:ee:b2:e0:fe:c8:59:5e:d6:
         f6:f9:32:5d:5c:96:29:44:54:ee:e3:0a:b9:16:c5:d3:e4:fb:
         b6:21:de:7d:03:9c:23:50:26:ed:9c:78:50:ea:57:6e:71:7e:
         f1:9c:ac:f6:9a:5b:7c:18:19:6a:2e:34:12:09:aa:f5:d7:45:
         d1:13:59:c4:5d:77:42:ac:25:d4:3f:ac:68:ec:8c:aa:97:ea:
         87:63:ed:3e:43:9a:6f:2b:5d:f5:90:fa:27:7b:0c:3b:1c:a5:
         4c:a6:81:53:97:75:34:4f:dc:41:db:c9:47:e1:1f:91:da:a8:
         10:57:f8:74:46:52:42:85:d0:bc:86:04:c9:90:97:cf:4d:3f:
         19:9b:c9:48:49:8b:c0:70:85:39:b7:56:4e:77:33:96:28:bd:
         52:5b:8c:b1:19:5f:53:4c:cd:eb:1b:dd:3c:0a:51:5f:fb:f7:
         83:94:33:56:06:8d:eb:d7:08:0c:fe:36:40:3b:71:fa:b5:03:
         8e:e0:67:a1:ea:ed:5a:6c:26:e5:59:d3:af:b5:fa:3f:5a:54:
         80:d0:78:9b:b0:47:01:89:fe:0d:d5:92:b6:02:2c:71:dc:da:
         66:9a:9f:8b:d8:48:65:a3:c1:54:f4:69:d6:71:1f:0e:30:d5:
         94:53:4e:aa:60:fa:2c:a8:52:6f:ce:84:63:1b:aa:1b:de:42:
         3b:3c:f6:ba:91:5c:bb:72:90:c7:54:e3:5e:87:4a:a2:76:b4:
         40:6c:3a:4e:bf:c3:5b:ed:a0:22:50:25:51:3a:3e:5b:d8:f1:
         e7:9c:bf:48:5f:9d:3a:35:83:7a:2e:ba:64:2e:10:ff:d4:a6:
         81:2c:ca:c8:98:ae:25:be:1f:96:88:89:1e:50:7a:3c:a7:98:
         95:27:44:9a:1f:e5:2d:df
-----BEGIN CERTIFICATE-----
MIIFTzCCAzegAwIBAgICEAIwDQYJKoZIhvcNAQELBQAwgYIxCzAJBgNVBAYTAkNa
MRowGAYDVQQIDBFKaWhvbW9yYXZza3kga3JhajEjMCEGA1UECgwaT3BlblN0YWNr
IENvbW1vbiBMaWJyYXJpZXMxFDASBgNVBAsMC0VuZ2luZWVyaW5nMRwwGgYDVQQD
DBNJbnRlcm1lZGlhdGUgQ0EgMDAzMB4XDTE4MDgxNDE2MTYxNFoXDTE4MDkwNDE2
MTYxNFowgYkxCzAJBgNVBAYTAkNaMRowGAYDVQQIDBFKaWhvbW9yYXZza3kga3Jh
ajENMAsGA1UEBwwEQnJubzEjMCEGA1UECgwaT3BlblN0YWNrIENvbW1vbiBMaWJy
YXJpZXMxFDASBgNVBAsMC0VuZ2luZWVyaW5nMRQwEgYDVQQDDAtOb2RlIDAwMzAw
MzCCASIwDQYJKoZIhvcNAQEBBQADggEPADCCAQoCggEBAK4DmZ7QilqMduss58Qo
z7P/+88RpN+uWElx5Rcg/uXso9M1q+GCp5TEP07OakkZKN3kjgTY/D1eSLWkU++y
cDC6zG7TR3cKn3boZdBCzE6R6cjy75u0vMQVBmNdd4jb0KF6HD2vNx7u6um2H3sU
dLuHMC+h2IquT5gBZocWCIjqOzMSp7rlZ86HjCpQ+fheKpA8OtaK4xxXKpvcF9d8
3iKv8xDKmnaEwVS7T0eHoGjTiNwYwGr1bPlqoVfcGdJlYLxpmrHlG1W1o78YDYau
lM3aXzbh20TvZk8+6X6KMemcUdsv7DKNk1paV5dooiSoKSUrs4vZ1N16aQ2MQwgD
btECAwEAAaOBxTCBwjAJBgNVHRMEAjAAMBEGCWCGSAGG+EIBAQQEAwIFoDAzBglg
hkgBhvhCAQ0EJhYkT3BlblNTTCBHZW5lcmF0ZWQgQ2xpZW50IENlcnRpZmljYXRl
MB0GA1UdDgQWBBSeNUEakdrAwv4NyI7VBCDlr6XOyzAfBgNVHSMEGDAWgBSNdX18
4VisDgYLOiW32XDtiyPBmzAOBgNVHQ8BAf8EBAMCBeAwHQYDVR0lBBYwFAYIKwYB
BQUHAwIGCCsGAQUFBwMEMA0GCSqGSIb3DQEBCwUAA4ICAQBp3C7U4/bcxkx5eWfN
mn51jPBTgtqJ/7U5gUN0/HivGr3zyFiWGDCBWYIoQakXkc2/iCXJmbgsD8VCwmfO
urK741GK7o4vJF0Vzvx/eskQgxnXSBz4RCfrhR85Kl6lUX+WdrReWtR3Xil2vec/
rfJDtBSYPj9KxlXRUpLcH0HuHPTX7UYmmKq8x/F6ZUqn3/O7DE9ZZ+gbj+gt40mp
1MYCqNvFgT6wBtjl9Lh/7rLg/shZXtb2+TJdXJYpRFTu4wq5FsXT5Pu2Id59A5wj
UCbtnHhQ6lducX7xnKz2mlt8GBlqLjQSCar110XRE1nEXXdCrCXUP6xo7Iyql+qH
Y+0+Q5pvK131kPoneww7HKVMpoFTl3U0T9xB28lH4R+R2qgQV/h0RlJChdC8hgTJ
kJfPTT8Zm8lISYvAcIU5t1ZOdzOWKL1SW4yxGV9TTM3rG908ClFf+/eDlDNWBo3r
1wgM/jZAO3H6tQOO4Geh6u1abCblWdOvtfo/WlSA0HibsEcBif4N1ZK2Aixx3Npm
mp+L2Ehlo8FU9GnWcR8OMNWUU06qYPosqFJvzoRjG6ob3kI7PPa6kVy7cpDHVONe
h0qidrRAbDpOv8Nb7aAiUCVROj5b2PHnnL9IX506NYN6LrpkLhD/1KaBLMrImK4l
vh+WiIkeUHo8p5iVJ0SaH+Ut3w==
-----END CERTIFICATE-----
Certificate:
    Data:
        Version: 3 (0x2)
        Serial Number: 4099 (0x1003)
    Signature Algorithm: sha256WithRSAEncryption
        Issuer: C=CZ, ST=Jihomoravsky kraj, L=Brno, O=OpenStack Common Libraries, OU=Engineering, CN=Root CA
        Validity
            Not Before: Aug 14 16:16:11 2018 GMT
            Not After : Aug 11 16:16:11 2028 GMT
        Subject: C=CZ, ST=Jihomoravsky kraj, O=OpenStack Common Libraries, OU=Engineering, CN=Intermediate CA 003
        Subject Public Key Info:
            Public Key Algorithm: rsaEncryption
                Public-Key: (4096 bit)
                Modulus:
                    00:cd:ba:e7:ee:ff:90:35:84:64:86:08:65:f7:94:
                    05:1a:6c:b2:ac:50:ae:d4:d7:7a:62:00:81:72:59:
                    d5:60:19:08:95:95:2c:a2:69:64:1b:30:ae:33:f3:
                    7c:ad:ef:0e:29:61:63:b4:e4:b0:90:92:74:89:11:
                    8f:df:01:95:9d:44:a2:26:d5:61:2e:40:60:c7:18:
                    1f:82:89:5b:cc:a4:bf:47:56:5e:6e:d9:e4:2b:7e:
                    f9:e9:8c:b3:d3:2c:6e:fc:d7:33:87:5d:db:31:c8:
                    65:c5:d0:63:02:6f:c0:68:ba:18:6e:c9:21:3f:0a:
                    e5:fc:e3:b8:6a:4a:f8:0d:cf:38:4a:c8:0b:60:65:
                    dc:a4:bf:70:8b:ba:b3:14:34:55:f3:9e:1e:68:63:
                    2b:56:b9:06:08:e4:a5:2e:ab:3e:83:19:61:54:19:
                    25:1d:4e:13:f0:6d:dc:06:9f:72:df:c5:7a:6e:b7:
                    c0:a7:df:26:35:14:9e:d9:4f:c0:32:01:1d:04:be:
                    55:b7:b9:dd:2e:74:34:33:c2:ea:a2:81:b8:db:f4:
                    ba:4f:a0:4a:ad:9c:c9:67:8c:4a:ec:e7:14:b9:ee:
                    bc:25:e6:6f:1f:e4:47:5e:c5:3c:f7:f8:ac:fb:71:
                    82:d1:ad:e0:69:b0:5d:79:5b:7b:90:b9:ce:57:54:
                    71:0c:d4:8b:2e:13:1d:ee:3e:51:c8:70:39:f8:86:
                    9b:77:80:a4:79:41:97:94:26:b8:a6:b4:10:44:8c:
                    ed:1d:1b:34:58:15:50:3f:64:05:11:cc:38:04:df:
                    89:d5:6d:bb:54:19:ff:81:e7:f5:fe:6d:a1:22:5a:
                    42:37:fd:79:7d:e2:4d:46:56:b5:bc:e1:24:c5:04:
                    f1:79:5c:b9:5b:92:93:87:ef:6b:20:a8:f8:5a:a5:
                    d1:db:d1:c2:6f:47:88:92:a9:c8:a2:ed:74:66:5e:
                    84:16:7f:4e:79:3d:d0:5d:59:d3:bf:cc:8f:16:b3:
                    d9:39:2e:fc:6a:13:8d:3b:24:f5:f6:ae:63:d5:f8:
                    c4:d0:6d:69:3c:cd:7d:c0:1f:c5:8a:0d:16:4b:cb:
                    4e:a6:ec:d3:68:3c:83:fe:eb:e3:8e:bf:cc:80:55:
                    33:a4:88:25:d9:73:06:c8:48:ce:7b:66:3c:fa:28:
                    d7:99:ec:57:3e:fb:03:f2:00:de:a1:88:1b:21:2c:
                    2f:e8:ab:9c:27:5a:2b:27:94:f2:7d:da:de:2f:1c:
                    20:98:fb:4e:1a:94:69:93:6e:8b:20:b5:98:56:27:
                    86:5c:ec:d5:9f:24:1d:b0:e4:db:68:24:af:03:3a:
                    6b:ff:84:51:ad:42:9f:22:3c:09:86:3b:39:2d:41:
                    27:75:79
                Exponent: 65537 (0x10001)
        X509v3 extensions:
            X509v3 Subject Key Identifier: 
                8D:75:7D:7C:E1:58:AC:0E:06:0B:3A:25:B7:D9:70:ED:8B:23:C1:9B
            X509v3 Authority Key Identifier: 
                keyid:93:83:48:92:23:B6:C3:DA:A7:15:85:08:41:75:30:67:97:A5:D4:9C

            X509v3 Basic Constraints: critical
                CA:TRUE, pathlen:0
            X509v3 Key Usage: critical
                Digital Signature, Certificate Sign, CRL Sign
    Signature Algorithm: sha256WithRSAEncryption
         9c:3b:76:aa:11:50:50:de:52:13:30:26:94:da:74:e0:24:aa:
         ae:44:1a:32:9c:37:e3:76:1a:59:f7:84:99:2b:6b:fb:95:4a:
         be:bc:1d:31:98:c7:8a:93:01:1c:23:b8:34:61:68:e3:18:6f:
         1c:4f:c9:4d:1a:0d:5f:18:68:d2:4f:2d:36:81:bc:c5:56:ce:
         f8:45:1b:7d:2e:d1:65:9f:e6:15:1e:ab:a9:8c:82:9d:58:50:
         7e:07:94:88:0f:b1:cb:9c:ae:59:a6:6f:e7:5b:59:ed:a3:a2:
         0e:0a:3f:c3:53:5c:b6:09:0f:c5:b5:b2:aa:ff:13:85:d2:37:
         33:41:93:6e:d8:b8:ac:e5:64:28:91:41:29:d6:08:61:56:9a:
         0e:97:7d:26:f7:c0:77:5a:dd:c7:74:e4:78:29:12:3c:6b:7e:
         26:c4:30:69:02:25:1c:31:df:d8:df:7d:8a:99:05:8c:57:b9:
         b2:cc:4d:e5:09:06:be:95:fb:48:6c:7e:b7:16:ad:5e:8f:55:
         78:0a:78:9c:e2:ed:86:ee:42:79:00:47:d5:4f:d9:6e:33:55:
         22:0b:ef:ee:bc:db:d3:65:e1:db:7b:5d:05:40:a8:31:73:58:
         af:bd:6c:ec:93:47:8b:39:ef:28:b9:e9:66:31:55:2f:0d:5e:
         44:11:24:ed:09:6c:83:e3:20:20:2a:d5:8f:4e:55:4f:a1:d8:
         95:12:5b:1e:03:20:4d:20:3c:06:01:95:09:5e:10:87:53:7e:
         5c:b5:81:de:7f:e1:f3:6a:3f:82:ec:62:e9:9d:32:40:02:be:
         36:45:c2:9e:d2:dd:c4:79:2c:d8:79:05:b1:0a:de:2c:e9:7c:
         14:b6:2d:d5:70:e1:00:2d:7b:35:7a:c5:10:20:49:08:b9:01:
         be:8f:a9:d4:2f:64:dc:78:e0:1b:45:b0:5b:90:b6:e7:77:a4:
         cc:1e:7f:fb:ca:39:43:77:4b:b8:fb:cf:16:64:56:ff:dd:8a:
         34:04:9c:e5:01:82:36:32:0c:80:6d:5b:f0:e0:96:4e:5c:7d:
         4e:27:40:83:72:5e:e7:3c:ee:29:8e:02:fc:c0:a7:99:86:1e:
         4c:c9:d8:72:c9:82:57:b1:7f:42:2d:d6:d3:a1:a4:14:59:ee:
         93:6a:38:da:4e:14:b0:42:27:cb:84:1f:56:89:fb:b8:36:0b:
         72:73:ff:1c:2a:26:b7:35:68:94:37:d3:03:16:9a:75:81:e5:
         a8:cd:f5:e8:29:7c:c9:ea:54:4e:fd:cd:d4:5a:79:40:a8:1f:
         40:be:4a:3a:f7:63:47:4d:7c:f0:25:bc:ac:6d:ae:57:94:f6:
         8e:6f:eb:fc:1d:6b:40:8a
-----BEGIN CERTIFICATE-----
MIIF6zCCA9OgAwIBAgICEAMwDQYJKoZIhvcNAQELBQAwgYUxCzAJBgNVBAYTAkNa
MRowGAYDVQQIDBFKaWhvbW9yYXZza3kga3JhajENMAsGA1UEBwwEQnJubzEjMCEG
A1UECgwaT3BlblN0YWNrIENvbW1vbiBMaWJyYXJpZXMxFDASBgNVBAsMC0VuZ2lu
ZWVyaW5nMRAwDgYDVQQDDAdSb290IENBMB4XDTE4MDgxNDE2MTYxMVoXDTI4MDgx
MTE2MTYxMVowgYIxCzAJBgNVBAYTAkNaMRowGAYDVQQIDBFKaWhvbW9yYXZza3kg
a3JhajEjMCEGA1UECgwaT3BlblN0YWNrIENvbW1vbiBMaWJyYXJpZXMxFDASBgNV
BAsMC0VuZ2luZWVyaW5nMRwwGgYDVQQDDBNJbnRlcm1lZGlhdGUgQ0EgMDAzMIIC
IjANBgkqhkiG9w0BAQEFAAOCAg8AMIICCgKCAgEAzbrn7v+QNYRkhghl95QFGmyy
rFCu1Nd6YgCBclnVYBkIlZUsomlkGzCuM/N8re8OKWFjtOSwkJJ0iRGP3wGVnUSi
JtVhLkBgxxgfgolbzKS/R1ZebtnkK3756Yyz0yxu/Nczh13bMchlxdBjAm/AaLoY
bskhPwrl/OO4akr4Dc84SsgLYGXcpL9wi7qzFDRV854eaGMrVrkGCOSlLqs+gxlh
VBklHU4T8G3cBp9y38V6brfAp98mNRSe2U/AMgEdBL5Vt7ndLnQ0M8LqooG42/S6
T6BKrZzJZ4xK7OcUue68JeZvH+RHXsU89/is+3GC0a3gabBdeVt7kLnOV1RxDNSL
LhMd7j5RyHA5+Iabd4CkeUGXlCa4prQQRIztHRs0WBVQP2QFEcw4BN+J1W27VBn/
gef1/m2hIlpCN/15feJNRla1vOEkxQTxeVy5W5KTh+9rIKj4WqXR29HCb0eIkqnI
ou10Zl6EFn9OeT3QXVnTv8yPFrPZOS78ahONOyT19q5j1fjE0G1pPM19wB/Fig0W
S8tOpuzTaDyD/uvjjr/MgFUzpIgl2XMGyEjOe2Y8+ijXmexXPvsD8gDeoYgbISwv
6KucJ1orJ5TyfdreLxwgmPtOGpRpk26LILWYVieGXOzVnyQdsOTbaCSvAzpr/4RR
rUKfIjwJhjs5LUEndXkCAwEAAaNmMGQwHQYDVR0OBBYEFI11fXzhWKwOBgs6JbfZ
cO2LI8GbMB8GA1UdIwQYMBaAFJODSJIjtsPapxWFCEF1MGeXpdScMBIGA1UdEwEB
/wQIMAYBAf8CAQAwDgYDVR0PAQH/BAQDAgGGMA0GCSqGSIb3DQEBCwUAA4ICAQCc
O3aqEVBQ3lITMCaU2nTgJKquRBoynDfjdhpZ94SZK2v7lUq+vB0xmMeKkwEcI7g0
YWjjGG8cT8lNGg1fGGjSTy02gbzFVs74RRt9LtFln+YVHqupjIKdWFB+B5SID7HL
nK5Zpm/nW1nto6IOCj/DU1y2CQ/FtbKq/xOF0jczQZNu2Lis5WQokUEp1ghhVpoO
l30m98B3Wt3HdOR4KRI8a34mxDBpAiUcMd/Y332KmQWMV7myzE3lCQa+lftIbH63
Fq1ej1V4Cnic4u2G7kJ5AEfVT9luM1UiC+/uvNvTZeHbe10FQKgxc1ivvWzsk0eL
Oe8ouelmMVUvDV5EESTtCWyD4yAgKtWPTlVPodiVElseAyBNIDwGAZUJXhCHU35c
tYHef+Hzaj+C7GLpnTJAAr42RcKe0t3EeSzYeQWxCt4s6XwUti3VcOEALXs1esUQ
IEkIuQG+j6nUL2TceOAbRbBbkLbnd6TMHn/7yjlDd0u4+88WZFb/3Yo0BJzlAYI2
MgyAbVvw4JZOXH1OJ0CDcl7nPO4pjgL8wKeZhh5MydhyyYJXsX9CLdbToaQUWe6T
ajjaThSwQifLhB9Wifu4Ngtyc/8cKia3NWiUN9MDFpp1geWozfXoKXzJ6lRO/c3U
WnlAqB9Avko692NHTXzwJbysba5XlPaOb+v8HWtAig==
-----END CERTIFICATE-----
