Certificate:
    Data:
        Version: 3 (0x2)
        Serial Number: 4097 (0x1001)
    Signature Algorithm: sha256WithRSAEncryption
        Issuer: C=CZ, ST=Jihomoravsky kraj, O=OpenStack Common Libraries, OU=Engineering, CN=Intermediate CA 003
        Validity
            Not Before: Aug 14 16:16:14 2018 GMT
            Not After : Sep  4 16:16:14 2018 GMT
        Subject: C=CZ, ST=Jihomoravsky kraj, L=Brno, O=OpenStack Common Libraries, OU=Engineering, CN=Node 003002
        Subject Public Key Info:
            Public Key Algorithm: rsaEncryption
                Public-Key: (2048 bit)
                Modulus:
                    00:a2:2d:ef:83:a7:8b:7e:c7:70:ee:56:84:58:46:
                    a3:3c:84:d7:3e:4b:32:82:ec:a7:f1:3f:f7:8b:1b:
                    0b:76:1c:3e:dd:da:33:12:93:a5:45:af:03:4e:dc:
                    b3:82:19:c1:78:6d:08:52:a7:bd:fc:5d:9f:d2:b6:
                    4f:ce:e3:9f:4c:77:6a:93:47:f4:a2:2e:cc:6b:e0:
                    97:d7:60:f3:f6:47:4d:ee:82:d9:08:47:72:af:18:
                    4b:c1:41:29:31:27:9d:3e:dd:e9:c6:91:f7:35:6e:
                    ba:2b:16:0d:25:95:0a:8a:8a:ab:fb:ea:c3:2a:b3:
                    d9:bc:cc:25:e0:29:fa:d1:08:13:b7:57:ad:75:11:
                    bd:bf:a0:5e:53:06:54:07:94:77:3d:8a:2e:53:4a:
                    5b:0f:83:b7:e9:b1:35:49:c0:57:97:31:c7:eb:b0:
                    8b:6a:da:52:90:a2:63:b1:10:33:d1:52:49:ce:47:
                    93:84:5e:8d:65:5b:3a:9b:4a:e4:a7:37:0f:82:52:
                    ba:48:ea:e7:1f:5f:30:6b:d7:a9:d2:98:30:5d:0b:
                    7c:e8:5e:f3:ac:38:a9:8e:07:8c:f0:97:78:49:53:
                    40:43:1f:58:58:b7:63:bb:75:72:87:59:ee:c2:6b:
                    5c:c2:79:a9:66:45:4c:b9:c4:3a:15:50:ef:65:36:
                    bb:b1
                Exponent: 65537 (0x10001)
        X509v3 extensions:
            X509v3 Basic Constraints: 
                CA:FALSE
            Netscape Cert Type: 
                SSL Client, S/MIME
            Netscape Comment: 
                OpenSSL Generated Client Certificate
            X509v3 Subject Key Identifier: 
                3B:40:7C:01:A7:AD:59:85:94:7B:A5:AD:15:60:8F:D5:6C:C2:FD:60
            X509v3 Authority Key Identifier: 
                keyid:8D:75:7D:7C:E1:58:AC:0E:06:0B:3A:25:B7:D9:70:ED:8B:23:C1:9B

            X509v3 Key Usage: critical
                Digital Signature, Non Repudiation, Key Encipherment
            X509v3 Extended Key Usage: 
                TLS Web Client Authentication, E-mail Protection
    Signature Algorithm: sha256WithRSAEncryption
         cd:47:ab:dd:08:7b:fa:9b:b7:ec:c7:4f:0c:e2:b8:60:5f:71:
         c3:b9:53:87:ce:dc:7b:d0:62:b5:a4:30:db:49:5c:a0:74:5e:
         d9:f2:5d:84:7f:d5:ca:34:6f:b2:53:23:83:68:e1:ff:76:9c:
         dc:d7:de:14:74:68:5f:3d:b0:75:7b:eb:bc:f8:0a:fc:5b:84:
         a4:74:24:8d:5a:08:12:0e:6e:53:88:59:55:02:b3:d9:30:33:
         d6:c2:b9:b1:b9:2c:96:51:e5:b7:7d:99:f5:67:8b:13:22:83:
         b3:39:57:44:a0:6d:fe:a8:31:8b:5b:79:75:85:70:ce:98:59:
         ba:09:41:8c:a4:18:54:b8:3c:1b:22:c9:9a:5e:12:57:48:d5:
         df:b2:3f:4e:4c:42:9b:04:b1:79:ab:0b:2e:aa:1f:52:35:c6:
         15:bd:0b:56:f9:ec:9c:70:bf:a3:6a:42:3c:a9:da:52:56:30:
         94:51:64:50:1f:a7:bb:a2:c0:b1:5f:e2:ea:97:57:0f:07:a0:
         92:a0:48:88:bc:9e:64:d1:1a:53:d3:37:70:6f:44:38:34:16:
         65:62:45:1a:0c:be:33:ed:94:26:4e:d7:95:52:db:6f:99:43:
         49:3c:d9:3c:cd:a3:fd:52:0b:38:7e:a8:07:30:0c:1a:c1:b7:
         e8:ef:11:e0:12:5b:1f:72:9a:e6:ac:2a:4b:3e:aa:f7:f4:bf:
         3a:84:81:97:8a:ff:17:af:54:7e:32:16:ce:14:fb:ef:80:82:
         62:13:83:da:19:f0:84:c3:8d:83:28:00:e6:54:9e:25:9f:05:
         86:1a:a0:5f:a8:73:8c:2a:17:a2:4a:ec:5f:f2:ca:4e:37:3b:
         68:65:40:25:8c:9f:34:cc:e8:bd:10:f9:f3:51:17:52:90:c0:
         4a:d1:20:d6:56:93:02:ed:0d:1f:df:76:b3:1c:75:51:ef:01:
         a5:c0:72:dd:fb:73:1f:c1:f9:cc:ab:2d:b8:bf:bb:78:64:27:
         7f:a7:0e:fb:98:e7:97:b0:eb:ae:07:62:1b:e4:b3:6f:b7:70:
         33:79:50:5b:3b:57:12:dc:ed:87:11:4c:1d:89:10:2b:88:f2:
         35:60:a4:48:ae:b0:e8:cd:3f:2b:26:17:68:a2:68:de:46:ef:
         71:72:e0:5e:68:d2:3a:9a:11:57:a1:1f:a3:70:7e:34:38:c3:
         1b:5c:39:4b:37:79:a7:e2:69:6b:ab:fe:80:88:f3:57:df:f2:
         ba:2d:73:fc:7f:32:7e:79:7b:1e:20:fa:fa:f0:f7:eb:45:0a:
         b4:06:58:06:6c:96:c7:0d:c4:eb:52:ce:f1:4b:04:f3:5c:61:
         ee:e4:3d:d0:c7:de:a1:77
-----BEGIN CERTIFICATE-----
MIIFTzCCAzegAwIBAgICEAEwDQYJKoZIhvcNAQELBQAwgYIxCzAJBgNVBAYTAkNa
MRowGAYDVQQIDBFKaWhvbW9yYXZza3kga3JhajEjMCEGA1UECgwaT3BlblN0YWNr
IENvbW1vbiBMaWJyYXJpZXMxFDASBgNVBAsMC0VuZ2luZWVyaW5nMRwwGgYDVQQD
DBNJbnRlcm1lZGlhdGUgQ0EgMDAzMB4XDTE4MDgxNDE2MTYxNFoXDTE4MDkwNDE2
MTYxNFowgYkxCzAJBgNVBAYTAkNaMRowGAYDVQQIDBFKaWhvbW9yYXZza3kga3Jh
ajENMAsGA1UEBwwEQnJubzEjMCEGA1UECgwaT3BlblN0YWNrIENvbW1vbiBMaWJy
YXJpZXMxFDASBgNVBAsMC0VuZ2luZWVyaW5nMRQwEgYDVQQDDAtOb2RlIDAwMzAw
MjCCASIwDQYJKoZIhvcNAQEBBQADggEPADCCAQoCggEBAKIt74Oni37HcO5WhFhG
ozyE1z5LMoLsp/E/94sbC3YcPt3aMxKTpUWvA07cs4IZwXhtCFKnvfxdn9K2T87j
n0x3apNH9KIuzGvgl9dg8/ZHTe6C2QhHcq8YS8FBKTEnnT7d6caR9zVuuisWDSWV
CoqKq/vqwyqz2bzMJeAp+tEIE7dXrXURvb+gXlMGVAeUdz2KLlNKWw+Dt+mxNUnA
V5cxx+uwi2raUpCiY7EQM9FSSc5Hk4RejWVbOptK5Kc3D4JSukjq5x9fMGvXqdKY
MF0LfOhe86w4qY4HjPCXeElTQEMfWFi3Y7t1codZ7sJrXMJ5qWZFTLnEOhVQ72U2
u7ECAwEAAaOBxTCBwjAJBgNVHRMEAjAAMBEGCWCGSAGG+EIBAQQEAwIFoDAzBglg
hkgBhvhCAQ0EJhYkT3BlblNTTCBHZW5lcmF0ZWQgQ2xpZW50IENlcnRpZmljYXRl
MB0GA1UdDgQWBBQ7QHwBp61ZhZR7pa0VYI/VbML9YDAfBgNVHSMEGDAWgBSNdX18
4VisDgYLOiW32XDtiyPBmzAOBgNVHQ8BAf8EBAMCBeAwHQYDVR0lBBYwFAYIKwYB
BQUHAwIGCCsGAQUFBwMEMA0GCSqGSIb3DQEBCwUAA4ICAQDNR6vdCHv6m7fsx08M
4rhgX3HDuVOHztx70GK1pDDbSVygdF7Z8l2Ef9XKNG+yUyODaOH/dpzc194UdGhf
PbB1e+u8+Ar8W4SkdCSNWggSDm5TiFlVArPZMDPWwrmxuSyWUeW3fZn1Z4sTIoOz
OVdEoG3+qDGLW3l1hXDOmFm6CUGMpBhUuDwbIsmaXhJXSNXfsj9OTEKbBLF5qwsu
qh9SNcYVvQtW+eyccL+jakI8qdpSVjCUUWRQH6e7osCxX+Lql1cPB6CSoEiIvJ5k
0RpT0zdwb0Q4NBZlYkUaDL4z7ZQmTteVUttvmUNJPNk8zaP9Ugs4fqgHMAwawbfo
7xHgElsfcprmrCpLPqr39L86hIGXiv8Xr1R+MhbOFPvvgIJiE4PaGfCEw42DKADm
VJ4lnwWGGqBfqHOMKheiSuxf8spONztoZUAljJ80zOi9EPnzURdSkMBK0SDWVpMC
7Q0f33azHHVR7wGlwHLd+3MfwfnMqy24v7t4ZCd/pw77mOeXsOuuB2Ib5LNvt3Az
eVBbO1cS3O2HEUwdiRAriPI1YKRIrrDozT8rJhdoomjeRu9xcuBeaNI6mhFXoR+j
cH40OMMbXDlLN3mn4mlrq/6AiPNX3/K6LXP8fzJ+eXseIPr68PfrRQq0BlgGbJbH
DcTrUs7xSwTzXGHu5D3Qx96hdw==
-----END CERTIFICATE-----
Certificate:
    Data:
        Version: 3 (0x2)
        Serial Number: 4099 (0x1003)
    Signature Algorithm: sha256WithRSAEncryption
        Issuer: C=CZ, ST=Jihomoravsky kraj, L=Brno, O=OpenStack Common Libraries, OU=Engineering, CN=Root CA
        Validity
            Not Before: Aug 14 16:16:11 2018 GMT
            Not After : Aug 11 16:16:11 2028 GMT
        Subject: C=CZ, ST=Jihomoravsky kraj, O=OpenStack Common Libraries, OU=Engineering, CN=Intermediate CA 003
        Subject Public Key Info:
            Public Key Algorithm: rsaEncryption
                Public-Key: (4096 bit)
                Modulus:
                    00:cd:ba:e7:ee:ff:90:35:84:64:86:08:65:f7:94:
                    05:1a:6c:b2:ac:50:ae:d4:d7:7a:62:00:81:72:59:
                    d5:60:19:08:95:95:2c:a2:69:64:1b:30:ae:33:f3:
                    7c:ad:ef:0e:29:61:63:b4:e4:b0:90:92:74:89:11:
                    8f:df:01:95:9d:44:a2:26:d5:61:2e:40:60:c7:18:
                    1f:82:89:5b:cc:a4:bf:47:56:5e:6e:d9:e4:2b:7e:
                    f9:e9:8c:b3:d3:2c:6e:fc:d7:33:87:5d:db:31:c8:
                    65:c5:d0:63:02:6f:c0:68:ba:18:6e:c9:21:3f:0a:
                    e5:fc:e3:b8:6a:4a:f8:0d:cf:38:4a:c8:0b:60:65:
                    dc:a4:bf:70:8b:ba:b3:14:34:55:f3:9e:1e:68:63:
                    2b:56:b9:06:08:e4:a5:2e:ab:3e:83:19:61:54:19:
                    25:1d:4e:13:f0:6d:dc:06:9f:72:df:c5:7a:6e:b7:
                    c0:a7:df:26:35:14:9e:d9:4f:c0:32:01:1d:04:be:
                    55:b7:b9:dd:2e:74:34:33:c2:ea:a2:81:b8:db:f4:
                    ba:4f:a0:4a:ad:9c:c9:67:8c:4a:ec:e7:14:b9:ee:
                    bc:25:e6:6f:1f:e4:47:5e:c5:3c:f7:f8:ac:fb:71:
                    82:d1:ad:e0:69:b0:5d:79:5b:7b:90:b9:ce:57:54:
                    71:0c:d4:8b:2e:13:1d:ee:3e:51:c8:70:39:f8:86:
                    9b:77:80:a4:79:41:97:94:26:b8:a6:b4:10:44:8c:
                    ed:1d:1b:34:58:15:50:3f:64:05:11:cc:38:04:df:
                    89:d5:6d:bb:54:19:ff:81:e7:f5:fe:6d:a1:22:5a:
                    42:37:fd:79:7d:e2:4d:46:56:b5:bc:e1:24:c5:04:
                    f1:79:5c:b9:5b:92:93:87:ef:6b:20:a8:f8:5a:a5:
                    d1:db:d1:c2:6f:47:88:92:a9:c8:a2:ed:74:66:5e:
                    84:16:7f:4e:79:3d:d0:5d:59:d3:bf:cc:8f:16:b3:
                    d9:39:2e:fc:6a:13:8d:3b:24:f5:f6:ae:63:d5:f8:
                    c4:d0:6d:69:3c:cd:7d:c0:1f:c5:8a:0d:16:4b:cb:
                    4e:a6:ec:d3:68:3c:83:fe:eb:e3:8e:bf:cc:80:55:
                    33:a4:88:25:d9:73:06:c8:48:ce:7b:66:3c:fa:28:
                    d7:99:ec:57:3e:fb:03:f2:00:de:a1:88:1b:21:2c:
                    2f:e8:ab:9c:27:5a:2b:27:94:f2:7d:da:de:2f:1c:
                    20:98:fb:4e:1a:94:69:93:6e:8b:20:b5:98:56:27:
                    86:5c:ec:d5:9f:24:1d:b0:e4:db:68:24:af:03:3a:
                    6b:ff:84:51:ad:42:9f:22:3c:09:86:3b:39:2d:41:
                    27:75:79
                Exponent: 65537 (0x10001)
        X509v3 extensions:
            X509v3 Subject Key Identifier: 
                8D:75:7D:7C:E1:58:AC:0E:06:0B:3A:25:B7:D9:70:ED:8B:23:C1:9B
            X509v3 Authority Key Identifier: 
                keyid:93:83:48:92:23:B6:C3:DA:A7:15:85:08:41:75:30:67:97:A5:D4:9C

            X509v3 Basic Constraints: critical
                CA:TRUE, pathlen:0
            X509v3 Key Usage: critical
                Digital Signature, Certificate Sign, CRL Sign
    Signature Algorithm: sha256WithRSAEncryption
         9c:3b:76:aa:11:50:50:de:52:13:30:26:94:da:74:e0:24:aa:
         ae:44:1a:32:9c:37:e3:76:1a:59:f7:84:99:2b:6b:fb:95:4a:
         be:bc:1d:31:98:c7:8a:93:01:1c:23:b8:34:61:68:e3:18:6f:
         1c:4f:c9:4d:1a:0d:5f:18:68:d2:4f:2d:36:81:bc:c5:56:ce:
         f8:45:1b:7d:2e:d1:65:9f:e6:15:1e:ab:a9:8c:82:9d:58:50:
         7e:07:94:88:0f:b1:cb:9c:ae:59:a6:6f:e7:5b:59:ed:a3:a2:
         0e:0a:3f:c3:53:5c:b6:09:0f:c5:b5:b2:aa:ff:13:85:d2:37:
         33:41:93:6e:d8:b8:ac:e5:64:28:91:41:29:d6:08:61:56:9a:
         0e:97:7d:26:f7:c0:77:5a:dd:c7:74:e4:78:29:12:3c:6b:7e:
         26:c4:30:69:02:25:1c:31:df:d8:df:7d:8a:99:05:8c:57:b9:
         b2:cc:4d:e5:09:06:be:95:fb:48:6c:7e:b7:16:ad:5e:8f:55:
         78:0a:78:9c:e2:ed:86:ee:42:79:00:47:d5:4f:d9:6e:33:55:
         22:0b:ef:ee:bc:db:d3:65:e1:db:7b:5d:05:40:a8:31:73:58:
         af:bd:6c:ec:93:47:8b:39:ef:28:b9:e9:66:31:55:2f:0d:5e:
         44:11:24:ed:09:6c:83:e3:20:20:2a:d5:8f:4e:55:4f:a1:d8:
         95:12:5b:1e:03:20:4d:20:3c:06:01:95:09:5e:10:87:53:7e:
         5c:b5:81:de:7f:e1:f3:6a:3f:82:ec:62:e9:9d:32:40:02:be:
         36:45:c2:9e:d2:dd:c4:79:2c:d8:79:05:b1:0a:de:2c:e9:7c:
         14:b6:2d:d5:70:e1:00:2d:7b:35:7a:c5:10:20:49:08:b9:01:
         be:8f:a9:d4:2f:64:dc:78:e0:1b:45:b0:5b:90:b6:e7:77:a4:
         cc:1e:7f:fb:ca:39:43:77:4b:b8:fb:cf:16:64:56:ff:dd:8a:
         34:04:9c:e5:01:82:36:32:0c:80:6d:5b:f0:e0:96:4e:5c:7d:
         4e:27:40:83:72:5e:e7:3c:ee:29:8e:02:fc:c0:a7:99:86:1e:
         4c:c9:d8:72:c9:82:57:b1:7f:42:2d:d6:d3:a1:a4:14:59:ee:
         93:6a:38:da:4e:14:b0:42:27:cb:84:1f:56:89:fb:b8:36:0b:
         72:73:ff:1c:2a:26:b7:35:68:94:37:d3:03:16:9a:75:81:e5:
         a8:cd:f5:e8:29:7c:c9:ea:54:4e:fd:cd:d4:5a:79:40:a8:1f:
         40:be:4a:3a:f7:63:47:4d:7c:f0:25:bc:ac:6d:ae:57:94:f6:
         8e:6f:eb:fc:1d:6b:40:8a
-----BEGIN CERTIFICATE-----
MIIF6zCCA9OgAwIBAgICEAMwDQYJKoZIhvcNAQELBQAwgYUxCzAJBgNVBAYTAkNa
MRowGAYDVQQIDBFKaWhvbW9yYXZza3kga3JhajENMAsGA1UEBwwEQnJubzEjMCEG
A1UECgwaT3BlblN0YWNrIENvbW1vbiBMaWJyYXJpZXMxFDASBgNVBAsMC0VuZ2lu
ZWVyaW5nMRAwDgYDVQQDDAdSb290IENBMB4XDTE4MDgxNDE2MTYxMVoXDTI4MDgx
MTE2MTYxMVowgYIxCzAJBgNVBAYTAkNaMRowGAYDVQQIDBFKaWhvbW9yYXZza3kg
a3JhajEjMCEGA1UECgwaT3BlblN0YWNrIENvbW1vbiBMaWJyYXJpZXMxFDASBgNV
BAsMC0VuZ2luZWVyaW5nMRwwGgYDVQQDDBNJbnRlcm1lZGlhdGUgQ0EgMDAzMIIC
IjANBgkqhkiG9w0BAQEFAAOCAg8AMIICCgKCAgEAzbrn7v+QNYRkhghl95QFGmyy
rFCu1Nd6YgCBclnVYBkIlZUsomlkGzCuM/N8re8OKWFjtOSwkJJ0iRGP3wGVnUSi
JtVhLkBgxxgfgolbzKS/R1ZebtnkK3756Yyz0yxu/Nczh13bMchlxdBjAm/AaLoY
bskhPwrl/OO4akr4Dc84SsgLYGXcpL9wi7qzFDRV854eaGMrVrkGCOSlLqs+gxlh
VBklHU4T8G3cBp9y38V6brfAp98mNRSe2U/AMgEdBL5Vt7ndLnQ0M8LqooG42/S6
T6BKrZzJZ4xK7OcUue68JeZvH+RHXsU89/is+3GC0a3gabBdeVt7kLnOV1RxDNSL
LhMd7j5RyHA5+Iabd4CkeUGXlCa4prQQRIztHRs0WBVQP2QFEcw4BN+J1W27VBn/
gef1/m2hIlpCN/15feJNRla1vOEkxQTxeVy5W5KTh+9rIKj4WqXR29HCb0eIkqnI
ou10Zl6EFn9OeT3QXVnTv8yPFrPZOS78ahONOyT19q5j1fjE0G1pPM19wB/Fig0W
S8tOpuzTaDyD/uvjjr/MgFUzpIgl2XMGyEjOe2Y8+ijXmexXPvsD8gDeoYgbISwv
6KucJ1orJ5TyfdreLxwgmPtOGpRpk26LILWYVieGXOzVnyQdsOTbaCSvAzpr/4RR
rUKfIjwJhjs5LUEndXkCAwEAAaNmMGQwHQYDVR0OBBYEFI11fXzhWKwOBgs6JbfZ
cO2LI8GbMB8GA1UdIwQYMBaAFJODSJIjtsPapxWFCEF1MGeXpdScMBIGA1UdEwEB
/wQIMAYBAf8CAQAwDgYDVR0PAQH/BAQDAgGGMA0GCSqGSIb3DQEBCwUAA4ICAQCc
O3aqEVBQ3lITMCaU2nTgJKquRBoynDfjdhpZ94SZK2v7lUq+vB0xmMeKkwEcI7g0
YWjjGG8cT8lNGg1fGGjSTy02gbzFVs74RRt9LtFln+YVHqupjIKdWFB+B5SID7HL
nK5Zpm/nW1nto6IOCj/DU1y2CQ/FtbKq/xOF0jczQZNu2Lis5WQokUEp1ghhVpoO
l30m98B3Wt3HdOR4KRI8a34mxDBpAiUcMd/Y332KmQWMV7myzE3lCQa+lftIbH63
Fq1ej1V4Cnic4u2G7kJ5AEfVT9luM1UiC+/uvNvTZeHbe10FQKgxc1ivvWzsk0eL
Oe8ouelmMVUvDV5EESTtCWyD4yAgKtWPTlVPodiVElseAyBNIDwGAZUJXhCHU35c
tYHef+Hzaj+C7GLpnTJAAr42RcKe0t3EeSzYeQWxCt4s6XwUti3VcOEALXs1esUQ
IEkIuQG+j6nUL2TceOAbRbBbkLbnd6TMHn/7yjlDd0u4+88WZFb/3Yo0BJzlAYI2
MgyAbVvw4JZOXH1OJ0CDcl7nPO4pjgL8wKeZhh5MydhyyYJXsX9CLdbToaQUWe6T
ajjaThSwQifLhB9Wifu4Ngtyc/8cKia3NWiUN9MDFpp1geWozfXoKXzJ6lRO/c3U
WnlAqB9Avko692NHTXzwJbysba5XlPaOb+v8HWtAig==
-----END CERTIFICATE-----
