Certificate:
    Data:
        Version: 3 (0x2)
        Serial Number: 4100 (0x1004)
    Signature Algorithm: sha256WithRSAEncryption
        Issuer: C=CZ, ST=Jihomoravsky kraj, O=OpenStack Common Libraries, OU=Engineering, CN=Intermediate CA 003
        Validity
            Not Before: Aug 14 16:16:15 2018 GMT
            Not After : Sep  4 16:16:15 2018 GMT
        Subject: C=CZ, ST=Jihomoravsky kraj, L=Brno, O=OpenStack Common Libraries, OU=Engineering, CN=Node 003005
        Subject Public Key Info:
            Public Key Algorithm: rsaEncryption
                Public-Key: (2048 bit)
                Modulus:
                    00:cb:6a:9c:f0:9b:c0:a5:53:8d:dd:98:43:b7:38:
                    5d:fe:0c:3b:a6:56:ec:25:85:4e:e9:7b:84:6e:51:
                    6a:a9:7b:96:d1:b4:b5:a1:62:00:f0:f3:80:17:6f:
                    b6:19:43:14:45:bb:3b:5e:52:1e:61:e9:05:46:dd:
                    21:88:f7:72:d7:36:a1:88:da:a5:7b:6a:32:66:3a:
                    e3:02:33:1d:29:bd:25:53:80:ba:05:93:2a:b5:82:
                    be:7d:bd:25:5f:e7:88:5a:1f:0f:5e:d6:61:11:e5:
                    a8:31:e0:9c:9c:a0:f9:93:41:7c:0f:b4:fa:74:3e:
                    1b:e0:3b:73:d8:ef:35:c9:c3:8d:e3:49:d6:99:5a:
                    5d:56:06:47:a1:e1:f2:b0:dd:c5:f9:72:b6:39:8a:
                    67:f5:fc:f3:63:56:6d:38:e3:03:f7:bb:64:ab:b0:
                    03:fc:59:e7:ee:60:1d:81:ff:69:9b:bb:0e:66:d0:
                    61:7c:6e:c1:72:27:6e:4a:cd:0a:41:87:f4:76:d1:
                    4e:ed:b9:d3:39:f2:74:d0:8f:88:57:06:96:40:63:
                    93:2e:ac:21:2a:86:4a:03:d3:7c:61:8e:db:cf:47:
                    31:91:03:a2:c1:3d:0e:fd:a5:f1:fd:85:a5:2d:99:
                    76:73:c0:d0:cb:66:38:41:0f:88:86:3b:b0:d6:3d:
                    cb:3d
                Exponent: 65537 (0x10001)
        X509v3 extensions:
            X509v3 Basic Constraints: 
                CA:FALSE
            Netscape Cert Type: 
                SSL Client, S/MIME
            Netscape Comment: 
                OpenSSL Generated Client Certificate
            X509v3 Subject Key Identifier: 
                AF:AE:F0:0D:83:7A:87:2A:59:F5:A3:C0:90:FD:44:47:98:5D:25:EF
            X509v3 Authority Key Identifier: 
                keyid:8D:75:7D:7C:E1:58:AC:0E:06:0B:3A:25:B7:D9:70:ED:8B:23:C1:9B

            X509v3 Key Usage: critical
                Digital Signature, Non Repudiation, Key Encipherment
            X509v3 Extended Key Usage: 
                TLS Web Client Authentication, E-mail Protection
    Signature Algorithm: sha256WithRSAEncryption
         b2:6d:3c:61:b2:67:c3:80:ed:8f:31:6f:07:73:d1:4b:d9:9b:
         a6:68:37:9e:95:4b:6a:bf:dd:ab:6f:64:f1:02:1b:22:09:34:
         33:7f:ad:f9:1a:7d:24:8e:3b:39:c0:8e:09:bd:48:33:e6:d3:
         86:f1:da:d0:72:b8:43:a7:f6:2f:fb:21:93:48:c2:2d:a8:a9:
         95:aa:ff:ba:25:37:13:d0:5d:3f:34:35:43:b9:9f:63:e6:52:
         67:e6:2e:16:38:dc:68:af:f5:0b:d6:1e:37:1a:19:7e:77:85:
         69:d3:31:ae:c0:50:76:7b:c2:ff:72:cd:bd:0f:6f:e5:72:35:
         7a:70:80:db:81:af:79:d0:70:16:13:96:67:84:be:ce:a7:bb:
         02:12:92:e1:c2:99:26:42:b6:19:ed:a6:10:bf:60:be:7d:73:
         91:22:1f:49:60:7e:32:1e:5a:90:36:67:3e:ea:33:ef:78:f5:
         57:9f:46:54:7e:1e:e0:8a:6d:3a:90:83:5b:c0:a1:66:1e:5e:
         fa:97:3f:8d:89:33:ed:01:3c:58:85:49:b5:94:92:d1:72:b7:
         01:b8:df:18:87:54:bc:78:c7:9d:ee:96:80:2f:e0:30:b4:8f:
         18:fe:f1:b0:c4:f8:83:33:ec:54:ef:f2:75:8c:8f:09:bb:24:
         62:13:7e:69:e5:bd:15:32:d4:a9:83:e1:33:89:dd:a6:96:36:
         bf:98:f2:33:87:e2:9c:2d:c8:c5:e8:0c:04:b1:a4:74:73:0e:
         59:17:ce:9d:4d:47:fe:de:6c:f1:4f:3f:19:39:eb:44:4c:f7:
         05:34:1d:06:ab:ad:af:3b:11:64:b8:18:5f:29:3a:54:d2:c1:
         f5:03:f0:24:9c:cb:a8:19:e4:47:31:bf:ed:c4:48:80:89:4b:
         07:4e:28:ba:6e:f8:f0:10:fd:35:e6:14:c9:eb:bf:c4:4e:26:
         6a:f1:5a:f5:58:93:32:31:6e:97:95:92:40:53:a3:21:26:b4:
         54:51:01:06:9f:05:cf:31:de:a5:86:7f:60:6a:3b:06:ac:18:
         b9:51:b8:cf:78:38:5e:0b:d1:ac:c8:eb:e7:14:b0:df:21:68:
         ce:f7:d9:d8:6d:eb:c8:e7:46:ae:70:8d:35:5a:0e:8e:18:fa:
         3c:53:8b:47:f0:69:f0:58:0f:e7:c5:bd:5c:f3:1e:2c:0f:50:
         bb:4e:79:4a:71:12:38:ef:7b:28:be:85:18:df:9e:bc:a4:a3:
         5b:0c:37:b8:10:6e:f9:3d:ff:52:a5:37:e4:2d:23:8d:39:8c:
         44:1b:61:4c:7e:f3:95:07:b9:2b:4e:87:9f:c2:36:04:ae:0a:
         4d:e4:90:f7:ae:d9:9a:5a
-----BEGIN CERTIFICATE-----
MIIFTzCCAzegAwIBAgICEAQwDQYJKoZIhvcNAQELBQAwgYIxCzAJBgNVBAYTAkNa
MRowGAYDVQQIDBFKaWhvbW9yYXZza3kga3JhajEjMCEGA1UECgwaT3BlblN0YWNr
IENvbW1vbiBMaWJyYXJpZXMxFDASBgNVBAsMC0VuZ2luZWVyaW5nMRwwGgYDVQQD
DBNJbnRlcm1lZGlhdGUgQ0EgMDAzMB4XDTE4MDgxNDE2MTYxNVoXDTE4MDkwNDE2
MTYxNVowgYkxCzAJBgNVBAYTAkNaMRowGAYDVQQIDBFKaWhvbW9yYXZza3kga3Jh
ajENMAsGA1UEBwwEQnJubzEjMCEGA1UECgwaT3BlblN0YWNrIENvbW1vbiBMaWJy
YXJpZXMxFDASBgNVBAsMC0VuZ2luZWVyaW5nMRQwEgYDVQQDDAtOb2RlIDAwMzAw
NTCCASIwDQYJKoZIhvcNAQEBBQADggEPADCCAQoCggEBAMtqnPCbwKVTjd2YQ7c4
Xf4MO6ZW7CWFTul7hG5Raql7ltG0taFiAPDzgBdvthlDFEW7O15SHmHpBUbdIYj3
ctc2oYjapXtqMmY64wIzHSm9JVOAugWTKrWCvn29JV/niFofD17WYRHlqDHgnJyg
+ZNBfA+0+nQ+G+A7c9jvNcnDjeNJ1plaXVYGR6Hh8rDdxflytjmKZ/X882NWbTjj
A/e7ZKuwA/xZ5+5gHYH/aZu7DmbQYXxuwXInbkrNCkGH9HbRTu250znydNCPiFcG
lkBjky6sISqGSgPTfGGO289HMZEDosE9Dv2l8f2FpS2ZdnPA0MtmOEEPiIY7sNY9
yz0CAwEAAaOBxTCBwjAJBgNVHRMEAjAAMBEGCWCGSAGG+EIBAQQEAwIFoDAzBglg
hkgBhvhCAQ0EJhYkT3BlblNTTCBHZW5lcmF0ZWQgQ2xpZW50IENlcnRpZmljYXRl
MB0GA1UdDgQWBBSvrvANg3qHKln1o8CQ/URHmF0l7zAfBgNVHSMEGDAWgBSNdX18
4VisDgYLOiW32XDtiyPBmzAOBgNVHQ8BAf8EBAMCBeAwHQYDVR0lBBYwFAYIKwYB
BQUHAwIGCCsGAQUFBwMEMA0GCSqGSIb3DQEBCwUAA4ICAQCybTxhsmfDgO2PMW8H
c9FL2ZumaDeelUtqv92rb2TxAhsiCTQzf635Gn0kjjs5wI4JvUgz5tOG8drQcrhD
p/Yv+yGTSMItqKmVqv+6JTcT0F0/NDVDuZ9j5lJn5i4WONxor/UL1h43Ghl+d4Vp
0zGuwFB2e8L/cs29D2/lcjV6cIDbga950HAWE5ZnhL7Op7sCEpLhwpkmQrYZ7aYQ
v2C+fXORIh9JYH4yHlqQNmc+6jPvePVXn0ZUfh7gim06kINbwKFmHl76lz+NiTPt
ATxYhUm1lJLRcrcBuN8Yh1S8eMed7paAL+AwtI8Y/vGwxPiDM+xU7/J1jI8JuyRi
E35p5b0VMtSpg+Ezid2mlja/mPIzh+KcLcjF6AwEsaR0cw5ZF86dTUf+3mzxTz8Z
OetETPcFNB0Gq62vOxFkuBhfKTpU0sH1A/AknMuoGeRHMb/txEiAiUsHTii6bvjw
EP015hTJ67/ETiZq8Vr1WJMyMW6XlZJAU6MhJrRUUQEGnwXPMd6lhn9gajsGrBi5
UbjPeDheC9GsyOvnFLDfIWjO99nYbevI50aucI01Wg6OGPo8U4tH8GnwWA/nxb1c
8x4sD1C7TnlKcRI473sovoUY3568pKNbDDe4EG75Pf9SpTfkLSONOYxEG2FMfvOV
B7krToefwjYErgpN5JD3rtmaWg==
-----END CERTIFICATE-----
Certificate:
    Data:
        Version: 3 (0x2)
        Serial Number: 4099 (0x1003)
    Signature Algorithm: sha256WithRSAEncryption
        Issuer: C=CZ, ST=Jihomoravsky kraj, L=Brno, O=OpenStack Common Libraries, OU=Engineering, CN=Root CA
        Validity
            Not Before: Aug 14 16:16:11 2018 GMT
            Not After : Aug 11 16:16:11 2028 GMT
        Subject: C=CZ, ST=Jihomoravsky kraj, O=OpenStack Common Libraries, OU=Engineering, CN=Intermediate CA 003
        Subject Public Key Info:
            Public Key Algorithm: rsaEncryption
                Public-Key: (4096 bit)
                Modulus:
                    00:cd:ba:e7:ee:ff:90:35:84:64:86:08:65:f7:94:
                    05:1a:6c:b2:ac:50:ae:d4:d7:7a:62:00:81:72:59:
                    d5:60:19:08:95:95:2c:a2:69:64:1b:30:ae:33:f3:
                    7c:ad:ef:0e:29:61:63:b4:e4:b0:90:92:74:89:11:
                    8f:df:01:95:9d:44:a2:26:d5:61:2e:40:60:c7:18:
                    1f:82:89:5b:cc:a4:bf:47:56:5e:6e:d9:e4:2b:7e:
                    f9:e9:8c:b3:d3:2c:6e:fc:d7:33:87:5d:db:31:c8:
                    65:c5:d0:63:02:6f:c0:68:ba:18:6e:c9:21:3f:0a:
                    e5:fc:e3:b8:6a:4a:f8:0d:cf:38:4a:c8:0b:60:65:
                    dc:a4:bf:70:8b:ba:b3:14:34:55:f3:9e:1e:68:63:
                    2b:56:b9:06:08:e4:a5:2e:ab:3e:83:19:61:54:19:
                    25:1d:4e:13:f0:6d:dc:06:9f:72:df:c5:7a:6e:b7:
                    c0:a7:df:26:35:14:9e:d9:4f:c0:32:01:1d:04:be:
                    55:b7:b9:dd:2e:74:34:33:c2:ea:a2:81:b8:db:f4:
                    ba:4f:a0:4a:ad:9c:c9:67:8c:4a:ec:e7:14:b9:ee:
                    bc:25:e6:6f:1f:e4:47:5e:c5:3c:f7:f8:ac:fb:71:
                    82:d1:ad:e0:69:b0:5d:79:5b:7b:90:b9:ce:57:54:
                    71:0c:d4:8b:2e:13:1d:ee:3e:51:c8:70:39:f8:86:
                    9b:77:80:a4:79:41:97:94:26:b8:a6:b4:10:44:8c:
                    ed:1d:1b:34:58:15:50:3f:64:05:11:cc:38:04:df:
                    89:d5:6d:bb:54:19:ff:81:e7:f5:fe:6d:a1:22:5a:
                    42:37:fd:79:7d:e2:4d:46:56:b5:bc:e1:24:c5:04:
                    f1:79:5c:b9:5b:92:93:87:ef:6b:20:a8:f8:5a:a5:
                    d1:db:d1:c2:6f:47:88:92:a9:c8:a2:ed:74:66:5e:
                    84:16:7f:4e:79:3d:d0:5d:59:d3:bf:cc:8f:16:b3:
                    d9:39:2e:fc:6a:13:8d:3b:24:f5:f6:ae:63:d5:f8:
                    c4:d0:6d:69:3c:cd:7d:c0:1f:c5:8a:0d:16:4b:cb:
                    4e:a6:ec:d3:68:3c:83:fe:eb:e3:8e:bf:cc:80:55:
                    33:a4:88:25:d9:73:06:c8:48:ce:7b:66:3c:fa:28:
                    d7:99:ec:57:3e:fb:03:f2:00:de:a1:88:1b:21:2c:
                    2f:e8:ab:9c:27:5a:2b:27:94:f2:7d:da:de:2f:1c:
                    20:98:fb:4e:1a:94:69:93:6e:8b:20:b5:98:56:27:
                    86:5c:ec:d5:9f:24:1d:b0:e4:db:68:24:af:03:3a:
                    6b:ff:84:51:ad:42:9f:22:3c:09:86:3b:39:2d:41:
                    27:75:79
                Exponent: 65537 (0x10001)
        X509v3 extensions:
            X509v3 Subject Key Identifier: 
                8D:75:7D:7C:E1:58:AC:0E:06:0B:3A:25:B7:D9:70:ED:8B:23:C1:9B
            X509v3 Authority Key Identifier: 
                keyid:93:83:48:92:23:B6:C3:DA:A7:15:85:08:41:75:30:67:97:A5:D4:9C

            X509v3 Basic Constraints: critical
                CA:TRUE, pathlen:0
            X509v3 Key Usage: critical
                Digital Signature, Certificate Sign, CRL Sign
    Signature Algorithm: sha256WithRSAEncryption
         9c:3b:76:aa:11:50:50:de:52:13:30:26:94:da:74:e0:24:aa:
         ae:44:1a:32:9c:37:e3:76:1a:59:f7:84:99:2b:6b:fb:95:4a:
         be:bc:1d:31:98:c7:8a:93:01:1c:23:b8:34:61:68:e3:18:6f:
         1c:4f:c9:4d:1a:0d:5f:18:68:d2:4f:2d:36:81:bc:c5:56:ce:
         f8:45:1b:7d:2e:d1:65:9f:e6:15:1e:ab:a9:8c:82:9d:58:50:
         7e:07:94:88:0f:b1:cb:9c:ae:59:a6:6f:e7:5b:59:ed:a3:a2:
         0e:0a:3f:c3:53:5c:b6:09:0f:c5:b5:b2:aa:ff:13:85:d2:37:
         33:41:93:6e:d8:b8:ac:e5:64:28:91:41:29:d6:08:61:56:9a:
         0e:97:7d:26:f7:c0:77:5a:dd:c7:74:e4:78:29:12:3c:6b:7e:
         26:c4:30:69:02:25:1c:31:df:d8:df:7d:8a:99:05:8c:57:b9:
         b2:cc:4d:e5:09:06:be:95:fb:48:6c:7e:b7:16:ad:5e:8f:55:
         78:0a:78:9c:e2:ed:86:ee:42:79:00:47:d5:4f:d9:6e:33:55:
         22:0b:ef:ee:bc:db:d3:65:e1:db:7b:5d:05:40:a8:31:73:58:
         af:bd:6c:ec:93:47:8b:39:ef:28:b9:e9:66:31:55:2f:0d:5e:
         44:11:24:ed:09:6c:83:e3:20:20:2a:d5:8f:4e:55:4f:a1:d8:
         95:12:5b:1e:03:20:4d:20:3c:06:01:95:09:5e:10:87:53:7e:
         5c:b5:81:de:7f:e1:f3:6a:3f:82:ec:62:e9:9d:32:40:02:be:
         36:45:c2:9e:d2:dd:c4:79:2c:d8:79:05:b1:0a:de:2c:e9:7c:
         14:b6:2d:d5:70:e1:00:2d:7b:35:7a:c5:10:20:49:08:b9:01:
         be:8f:a9:d4:2f:64:dc:78:e0:1b:45:b0:5b:90:b6:e7:77:a4:
         cc:1e:7f:fb:ca:39:43:77:4b:b8:fb:cf:16:64:56:ff:dd:8a:
         34:04:9c:e5:01:82:36:32:0c:80:6d:5b:f0:e0:96:4e:5c:7d:
         4e:27:40:83:72:5e:e7:3c:ee:29:8e:02:fc:c0:a7:99:86:1e:
         4c:c9:d8:72:c9:82:57:b1:7f:42:2d:d6:d3:a1:a4:14:59:ee:
         93:6a:38:da:4e:14:b0:42:27:cb:84:1f:56:89:fb:b8:36:0b:
         72:73:ff:1c:2a:26:b7:35:68:94:37:d3:03:16:9a:75:81:e5:
         a8:cd:f5:e8:29:7c:c9:ea:54:4e:fd:cd:d4:5a:79:40:a8:1f:
         40:be:4a:3a:f7:63:47:4d:7c:f0:25:bc:ac:6d:ae:57:94:f6:
         8e:6f:eb:fc:1d:6b:40:8a
-----BEGIN CERTIFICATE-----
MIIF6zCCA9OgAwIBAgICEAMwDQYJKoZIhvcNAQELBQAwgYUxCzAJBgNVBAYTAkNa
MRowGAYDVQQIDBFKaWhvbW9yYXZza3kga3JhajENMAsGA1UEBwwEQnJubzEjMCEG
A1UECgwaT3BlblN0YWNrIENvbW1vbiBMaWJyYXJpZXMxFDASBgNVBAsMC0VuZ2lu
ZWVyaW5nMRAwDgYDVQQDDAdSb290IENBMB4XDTE4MDgxNDE2MTYxMVoXDTI4MDgx
MTE2MTYxMVowgYIxCzAJBgNVBAYTAkNaMRowGAYDVQQIDBFKaWhvbW9yYXZza3kg
a3JhajEjMCEGA1UECgwaT3BlblN0YWNrIENvbW1vbiBMaWJyYXJpZXMxFDASBgNV
BAsMC0VuZ2luZWVyaW5nMRwwGgYDVQQDDBNJbnRlcm1lZGlhdGUgQ0EgMDAzMIIC
IjANBgkqhkiG9w0BAQEFAAOCAg8AMIICCgKCAgEAzbrn7v+QNYRkhghl95QFGmyy
rFCu1Nd6YgCBclnVYBkIlZUsomlkGzCuM/N8re8OKWFjtOSwkJJ0iRGP3wGVnUSi
JtVhLkBgxxgfgolbzKS/R1ZebtnkK3756Yyz0yxu/Nczh13bMchlxdBjAm/AaLoY
bskhPwrl/OO4akr4Dc84SsgLYGXcpL9wi7qzFDRV854eaGMrVrkGCOSlLqs+gxlh
VBklHU4T8G3cBp9y38V6brfAp98mNRSe2U/AMgEdBL5Vt7ndLnQ0M8LqooG42/S6
T6BKrZzJZ4xK7OcUue68JeZvH+RHXsU89/is+3GC0a3gabBdeVt7kLnOV1RxDNSL
LhMd7j5RyHA5+Iabd4CkeUGXlCa4prQQRIztHRs0WBVQP2QFEcw4BN+J1W27VBn/
gef1/m2hIlpCN/15feJNRla1vOEkxQTxeVy5W5KTh+9rIKj4WqXR29HCb0eIkqnI
ou10Zl6EFn9OeT3QXVnTv8yPFrPZOS78ahONOyT19q5j1fjE0G1pPM19wB/Fig0W
S8tOpuzTaDyD/uvjjr/MgFUzpIgl2XMGyEjOe2Y8+ijXmexXPvsD8gDeoYgbISwv
6KucJ1orJ5TyfdreLxwgmPtOGpRpk26LILWYVieGXOzVnyQdsOTbaCSvAzpr/4RR
rUKfIjwJhjs5LUEndXkCAwEAAaNmMGQwHQYDVR0OBBYEFI11fXzhWKwOBgs6JbfZ
cO2LI8GbMB8GA1UdIwQYMBaAFJODSJIjtsPapxWFCEF1MGeXpdScMBIGA1UdEwEB
/wQIMAYBAf8CAQAwDgYDVR0PAQH/BAQDAgGGMA0GCSqGSIb3DQEBCwUAA4ICAQCc
O3aqEVBQ3lITMCaU2nTgJKquRBoynDfjdhpZ94SZK2v7lUq+vB0xmMeKkwEcI7g0
YWjjGG8cT8lNGg1fGGjSTy02gbzFVs74RRt9LtFln+YVHqupjIKdWFB+B5SID7HL
nK5Zpm/nW1nto6IOCj/DU1y2CQ/FtbKq/xOF0jczQZNu2Lis5WQokUEp1ghhVpoO
l30m98B3Wt3HdOR4KRI8a34mxDBpAiUcMd/Y332KmQWMV7myzE3lCQa+lftIbH63
Fq1ej1V4Cnic4u2G7kJ5AEfVT9luM1UiC+/uvNvTZeHbe10FQKgxc1ivvWzsk0eL
Oe8ouelmMVUvDV5EESTtCWyD4yAgKtWPTlVPodiVElseAyBNIDwGAZUJXhCHU35c
tYHef+Hzaj+C7GLpnTJAAr42RcKe0t3EeSzYeQWxCt4s6XwUti3VcOEALXs1esUQ
IEkIuQG+j6nUL2TceOAbRbBbkLbnd6TMHn/7yjlDd0u4+88WZFb/3Yo0BJzlAYI2
MgyAbVvw4JZOXH1OJ0CDcl7nPO4pjgL8wKeZhh5MydhyyYJXsX9CLdbToaQUWe6T
ajjaThSwQifLhB9Wifu4Ngtyc/8cKia3NWiUN9MDFpp1geWozfXoKXzJ6lRO/c3U
WnlAqB9Avko692NHTXzwJbysba5XlPaOb+v8HWtAig==
-----END CERTIFICATE-----
