Certificate:
    Data:
        Version: 3 (0x2)
        Serial Number: 4099 (0x1003)
    Signature Algorithm: sha256WithRSAEncryption
        Issuer: C=CZ, ST=Jihomoravsky kraj, O=OpenStack Common Libraries, OU=Engineering, CN=Intermediate CA 003
        Validity
            Not Before: Aug 10 16:28:28 2018 GMT
            Not After : Aug 31 16:28:28 2018 GMT
        Subject: C=CZ, ST=Jihomoravsky kraj, L=Brno, O=OpenStack Common Libraries, OU=Engineering, CN=Node 003004
        Subject Public Key Info:
            Public Key Algorithm: rsaEncryption
                Public-Key: (2048 bit)
                Modulus:
                    00:df:dc:57:f8:ed:68:32:dd:d1:68:6f:e9:b2:ee:
                    10:96:3b:fb:9b:76:e7:c4:13:37:55:0a:4f:43:39:
                    05:13:b7:77:94:3e:4a:f8:a2:19:4e:96:c6:d8:52:
                    a6:30:22:6c:17:bc:da:71:84:58:98:62:6a:b4:6f:
                    21:bf:d7:5c:4d:30:52:c0:42:ba:30:9f:fc:47:f5:
                    ac:26:f4:ba:00:4c:2a:ce:7b:34:1e:67:d1:91:70:
                    1c:92:3a:ad:6e:0a:69:5a:90:a4:4b:91:e7:99:67:
                    5e:02:d1:44:df:dc:be:0c:7a:18:a4:74:09:25:41:
                    80:76:dd:3d:f5:4d:9b:0a:c6:71:eb:8b:f0:07:54:
                    04:45:4e:8c:1c:64:90:c9:94:1c:da:43:1e:d6:92:
                    41:49:79:64:91:58:e1:68:e1:13:ac:e7:55:d2:02:
                    ed:aa:09:be:de:3c:16:25:7f:ba:67:54:8b:f1:74:
                    4a:db:0a:e5:9d:cc:6b:d4:51:46:e2:73:82:1e:60:
                    f0:a9:a9:19:ee:8f:db:5c:4f:43:1f:e3:02:32:3f:
                    ca:43:1d:98:95:f9:65:e8:74:0a:12:36:43:b7:1a:
                    89:6f:97:c9:50:5a:88:59:1c:90:b1:9f:fc:92:b5:
                    e3:9b:26:b3:ee:8d:19:bb:a0:3d:8e:73:16:5e:ac:
                    f7:49
                Exponent: 65537 (0x10001)
        X509v3 extensions:
            X509v3 Basic Constraints: 
                CA:FALSE
            Netscape Cert Type: 
                SSL Client, S/MIME
            Netscape Comment: 
                OpenSSL Generated Client Certificate
            X509v3 Subject Key Identifier: 
                BA:59:54:E6:40:B3:78:E4:DE:23:43:EB:ED:F9:73:C8:26:50:C9:29
            X509v3 Authority Key Identifier: 
                keyid:EC:17:6C:61:91:BE:6C:AE:6F:0E:E3:D4:71:9A:80:BD:E5:EB:58:21

            X509v3 Key Usage: critical
                Digital Signature, Non Repudiation, Key Encipherment
            X509v3 Extended Key Usage: 
                TLS Web Client Authentication, E-mail Protection
    Signature Algorithm: sha256WithRSAEncryption
         27:30:38:90:62:65:1f:e5:f7:d1:05:0e:e9:69:3d:40:c4:49:
         22:9d:d2:bd:7e:aa:60:30:50:ff:9e:ae:50:26:f4:3c:e3:b7:
         3d:b1:61:f2:52:0d:77:33:b0:a0:99:8c:c7:ca:0e:4c:f9:3f:
         5a:b5:c0:68:cd:11:8a:23:c6:92:42:4b:e3:69:b3:8d:94:58:
         27:7a:90:1f:80:b6:e3:02:18:74:7f:a5:30:83:49:76:3b:1b:
         85:26:3e:f3:1f:47:ac:41:c5:94:0b:16:6d:ee:ad:d1:da:2f:
         cd:04:69:b5:ee:de:19:1c:07:e0:e8:0b:60:e6:94:92:04:dc:
         d9:65:50:28:fa:22:39:48:d3:84:53:e2:33:e4:b5:b4:e2:c1:
         9f:77:cf:16:20:24:13:4a:51:f4:f7:3e:52:dd:be:93:ec:3a:
         8e:56:82:93:bb:62:0c:c4:5b:0e:a1:a3:d1:80:3b:40:b3:ba:
         48:df:37:45:14:7f:68:cd:80:2c:47:9d:4c:71:fe:61:3f:fd:
         21:a1:38:f3:40:bf:a2:a8:c4:bb:18:77:ed:08:ed:41:2a:42:
         4a:3e:dc:98:e2:83:f3:73:b2:1c:81:06:33:7b:c2:4a:7c:1b:
         8e:50:09:42:ef:da:0b:e8:5d:16:57:14:14:2f:3c:f7:00:0b:
         15:70:b7:ef
-----BEGIN CERTIFICATE-----
MIIETzCCAzegAwIBAgICEAMwDQYJKoZIhvcNAQELBQAwgYIxCzAJBgNVBAYTAkNa
MRowGAYDVQQIDBFKaWhvbW9yYXZza3kga3JhajEjMCEGA1UECgwaT3BlblN0YWNr
IENvbW1vbiBMaWJyYXJpZXMxFDASBgNVBAsMC0VuZ2luZWVyaW5nMRwwGgYDVQQD
DBNJbnRlcm1lZGlhdGUgQ0EgMDAzMB4XDTE4MDgxMDE2MjgyOFoXDTE4MDgzMTE2
MjgyOFowgYkxCzAJBgNVBAYTAkNaMRowGAYDVQQIDBFKaWhvbW9yYXZza3kga3Jh
ajENMAsGA1UEBwwEQnJubzEjMCEGA1UECgwaT3BlblN0YWNrIENvbW1vbiBMaWJy
YXJpZXMxFDASBgNVBAsMC0VuZ2luZWVyaW5nMRQwEgYDVQQDDAtOb2RlIDAwMzAw
NDCCASIwDQYJKoZIhvcNAQEBBQADggEPADCCAQoCggEBAN/cV/jtaDLd0Whv6bLu
EJY7+5t258QTN1UKT0M5BRO3d5Q+SviiGU6WxthSpjAibBe82nGEWJhiarRvIb/X
XE0wUsBCujCf/Ef1rCb0ugBMKs57NB5n0ZFwHJI6rW4KaVqQpEuR55lnXgLRRN/c
vgx6GKR0CSVBgHbdPfVNmwrGceuL8AdUBEVOjBxkkMmUHNpDHtaSQUl5ZJFY4Wjh
E6znVdIC7aoJvt48FiV/umdUi/F0StsK5Z3Ma9RRRuJzgh5g8KmpGe6P21xPQx/j
AjI/ykMdmJX5Zeh0ChI2Q7caiW+XyVBaiFkckLGf/JK145sms+6NGbugPY5zFl6s
90kCAwEAAaOBxTCBwjAJBgNVHRMEAjAAMBEGCWCGSAGG+EIBAQQEAwIFoDAzBglg
hkgBhvhCAQ0EJhYkT3BlblNTTCBHZW5lcmF0ZWQgQ2xpZW50IENlcnRpZmljYXRl
MB0GA1UdDgQWBBS6WVTmQLN45N4jQ+vt+XPIJlDJKTAfBgNVHSMEGDAWgBTsF2xh
kb5srm8O49RxmoC95etYITAOBgNVHQ8BAf8EBAMCBeAwHQYDVR0lBBYwFAYIKwYB
BQUHAwIGCCsGAQUFBwMEMA0GCSqGSIb3DQEBCwUAA4IBAQAnMDiQYmUf5ffRBQ7p
aT1AxEkindK9fqpgMFD/nq5QJvQ847c9sWHyUg13M7CgmYzHyg5M+T9atcBozRGK
I8aSQkvjabONlFgnepAfgLbjAhh0f6Uwg0l2OxuFJj7zH0esQcWUCxZt7q3R2i/N
BGm17t4ZHAfg6Atg5pSSBNzZZVAo+iI5SNOEU+Iz5LW04sGfd88WICQTSlH09z5S
3b6T7DqOVoKTu2IMxFsOoaPRgDtAs7pI3zdFFH9ozYAsR51Mcf5hP/0hoTjzQL+i
qMS7GHftCO1BKkJKPtyY4oPzc7IcgQYze8JKfBuOUAlC79oL6F0WVxQULzz3AAsV
cLfv
-----END CERTIFICATE-----
