Certificate:
    Data:
        Version: 3 (0x2)
        Serial Number: 4096 (0x1000)
    Signature Algorithm: sha256WithRSAEncryption
        Issuer: C=CZ, ST=Jihomoravsky kraj, O=OpenStack Common Libraries, OU=Engineering, CN=Intermediate CA 003
        Validity
            Not Before: Aug 10 16:28:22 2018 GMT
            Not After : Aug 31 16:28:22 2018 GMT
        Subject: C=CZ, ST=Jihomoravsky kraj, L=Brno, O=OpenStack Common Libraries, OU=Engineering, CN=Node 003001
        Subject Public Key Info:
            Public Key Algorithm: rsaEncryption
                Public-Key: (2048 bit)
                Modulus:
                    00:be:4e:33:ff:39:11:f4:97:38:21:09:6c:5f:95:
                    e8:c1:ff:7c:af:8e:b6:85:29:2c:03:b2:af:94:30:
                    8b:51:64:1e:5b:c3:3b:29:26:df:cd:6f:73:ed:e6:
                    32:f7:f1:fc:84:dd:0d:d1:e1:32:0d:73:0f:f7:34:
                    da:08:d1:a1:f9:e6:7d:82:15:d4:ec:7d:f5:69:3c:
                    ad:a7:ab:51:92:8a:d9:aa:48:52:e5:43:6c:f6:d2:
                    d5:35:ee:ca:92:96:cb:93:cb:55:4e:57:5b:3e:2d:
                    3a:ab:53:52:ab:de:81:bf:db:b9:cc:4b:63:07:fa:
                    03:2e:23:8b:b7:4b:de:0f:62:b9:be:b8:bb:69:70:
                    28:3c:0a:b4:a8:9f:86:47:4c:62:3c:ac:c7:0c:c7:
                    7e:be:01:79:e5:3e:a3:25:c9:c8:5d:5d:a0:93:03:
                    93:b7:8d:3d:26:5a:82:65:43:5b:44:af:25:5b:aa:
                    29:20:7c:ff:dd:51:7b:c0:b7:bb:5f:97:a4:b1:10:
                    cf:a6:24:3c:dc:c8:78:fe:5d:fa:10:9c:9d:29:fc:
                    37:0e:78:f5:12:86:be:65:54:a1:ab:72:27:3b:be:
                    1e:30:56:c4:c3:30:6e:40:34:5f:6f:cf:50:74:b7:
                    3d:64:55:ca:95:64:aa:55:4e:5d:ae:6f:a3:45:42:
                    75:7b
                Exponent: 65537 (0x10001)
        X509v3 extensions:
            X509v3 Basic Constraints: 
                CA:FALSE
            Netscape Cert Type: 
                SSL Client, S/MIME
            Netscape Comment: 
                OpenSSL Generated Client Certificate
            X509v3 Subject Key Identifier: 
                F3:86:76:9D:AE:15:E7:E9:61:7F:FD:49:B9:24:C5:EE:A2:49:A8:5F
            X509v3 Authority Key Identifier: 
                keyid:EC:17:6C:61:91:BE:6C:AE:6F:0E:E3:D4:71:9A:80:BD:E5:EB:58:21

            X509v3 Key Usage: critical
                Digital Signature, Non Repudiation, Key Encipherment
            X509v3 Extended Key Usage: 
                TLS Web Client Authentication, E-mail Protection
    Signature Algorithm: sha256WithRSAEncryption
         66:1e:42:04:05:df:a1:bf:4e:6d:80:2d:20:c9:34:0a:e3:63:
         c1:1c:89:ff:22:75:e1:72:b2:31:27:6c:09:72:f3:6b:e7:69:
         01:0c:84:37:57:6b:83:ba:1c:33:ea:23:e3:82:a4:47:ef:db:
         17:1c:c9:39:63:3d:2f:11:f3:86:d2:b9:ab:5b:72:61:2a:62:
         24:fd:a9:b3:59:82:c5:c0:9f:d0:98:7a:fc:93:5b:61:5e:a3:
         ff:be:af:78:2e:f4:0c:ef:a1:ba:54:70:a9:16:8c:11:d4:93:
         3d:3f:b2:1c:cf:96:14:e7:c7:17:91:c7:eb:6d:e3:0e:53:14:
         cc:59:a7:85:2a:5b:bf:79:bd:ca:5d:d0:13:e1:2d:f3:23:e2:
         e9:3a:2a:7b:8c:71:65:c0:1c:1e:6a:02:57:2c:b1:b6:c4:b0:
         d3:95:9f:ef:8e:c5:a0:4a:26:d1:06:f2:22:0b:bf:e7:cd:31:
         bc:6c:72:91:43:91:f8:72:58:5e:7b:e1:10:db:4e:39:9a:4c:
         0f:d6:f7:92:b7:19:fe:49:14:4e:56:90:79:5d:c8:3e:68:95:
         1f:fa:fa:32:0a:be:16:8a:92:94:ef:ae:9c:1b:3b:b4:2d:7f:
         c2:b2:63:12:77:f5:bd:53:e1:18:59:0c:6d:69:d4:b3:8d:84:
         33:e0:d5:93
-----BEGIN CERTIFICATE-----
MIIETzCCAzegAwIBAgICEAAwDQYJKoZIhvcNAQELBQAwgYIxCzAJBgNVBAYTAkNa
MRowGAYDVQQIDBFKaWhvbW9yYXZza3kga3JhajEjMCEGA1UECgwaT3BlblN0YWNr
IENvbW1vbiBMaWJyYXJpZXMxFDASBgNVBAsMC0VuZ2luZWVyaW5nMRwwGgYDVQQD
DBNJbnRlcm1lZGlhdGUgQ0EgMDAzMB4XDTE4MDgxMDE2MjgyMloXDTE4MDgzMTE2
MjgyMlowgYkxCzAJBgNVBAYTAkNaMRowGAYDVQQIDBFKaWhvbW9yYXZza3kga3Jh
ajENMAsGA1UEBwwEQnJubzEjMCEGA1UECgwaT3BlblN0YWNrIENvbW1vbiBMaWJy
YXJpZXMxFDASBgNVBAsMC0VuZ2luZWVyaW5nMRQwEgYDVQQDDAtOb2RlIDAwMzAw
MTCCASIwDQYJKoZIhvcNAQEBBQADggEPADCCAQoCggEBAL5OM/85EfSXOCEJbF+V
6MH/fK+OtoUpLAOyr5Qwi1FkHlvDOykm381vc+3mMvfx/ITdDdHhMg1zD/c02gjR
ofnmfYIV1Ox99Wk8raerUZKK2apIUuVDbPbS1TXuypKWy5PLVU5XWz4tOqtTUqve
gb/bucxLYwf6Ay4ji7dL3g9iub64u2lwKDwKtKifhkdMYjysxwzHfr4BeeU+oyXJ
yF1doJMDk7eNPSZagmVDW0SvJVuqKSB8/91Re8C3u1+XpLEQz6YkPNzIeP5d+hCc
nSn8Nw549RKGvmVUoatyJzu+HjBWxMMwbkA0X2/PUHS3PWRVypVkqlVOXa5vo0VC
dXsCAwEAAaOBxTCBwjAJBgNVHRMEAjAAMBEGCWCGSAGG+EIBAQQEAwIFoDAzBglg
hkgBhvhCAQ0EJhYkT3BlblNTTCBHZW5lcmF0ZWQgQ2xpZW50IENlcnRpZmljYXRl
MB0GA1UdDgQWBBTzhnadrhXn6WF//Um5JMXuokmoXzAfBgNVHSMEGDAWgBTsF2xh
kb5srm8O49RxmoC95etYITAOBgNVHQ8BAf8EBAMCBeAwHQYDVR0lBBYwFAYIKwYB
BQUHAwIGCCsGAQUFBwMEMA0GCSqGSIb3DQEBCwUAA4IBAQBmHkIEBd+hv05tgC0g
yTQK42PBHIn/InXhcrIxJ2wJcvNr52kBDIQ3V2uDuhwz6iPjgqRH79sXHMk5Yz0v
EfOG0rmrW3JhKmIk/amzWYLFwJ/QmHr8k1thXqP/vq94LvQM76G6VHCpFowR1JM9
P7Icz5YU58cXkcfrbeMOUxTMWaeFKlu/eb3KXdAT4S3zI+LpOip7jHFlwBweagJX
LLG2xLDTlZ/vjsWgSibRBvIiC7/nzTG8bHKRQ5H4clhee+EQ2045mkwP1veStxn+
SRROVpB5Xcg+aJUf+voyCr4WipKU766cGzu0LX/CsmMSd/W9U+EYWQxtadSzjYQz
4NWT
-----END CERTIFICATE-----
