Certificate:
    Data:
        Version: 3 (0x2)
        Serial Number: 4100 (0x1004)
    Signature Algorithm: sha256WithRSAEncryption
        Issuer: C=CZ, ST=Jihomoravsky kraj, O=OpenStack Common Libraries, OU=Engineering, CN=Intermediate CA 003
        Validity
            Not Before: Aug 10 16:28:29 2018 GMT
            Not After : Aug 31 16:28:29 2018 GMT
        Subject: C=CZ, ST=Jihomoravsky kraj, L=Brno, O=OpenStack Common Libraries, OU=Engineering, CN=Node 003005
        Subject Public Key Info:
            Public Key Algorithm: rsaEncryption
                Public-Key: (2048 bit)
                Modulus:
                    00:b6:e1:af:e2:f7:ef:7e:0b:45:0b:06:53:b7:22:
                    8f:01:3f:e1:4b:78:cc:b4:4f:73:41:2f:02:74:74:
                    7d:30:cd:4a:82:5d:ee:ba:72:73:ae:d5:fe:9a:57:
                    c0:7e:05:63:cb:ab:e7:ca:24:57:cc:19:e1:8f:60:
                    2b:e5:fc:3d:a1:1b:f2:b1:11:b8:e2:4d:51:e4:6b:
                    ff:fe:b2:c0:f1:78:30:15:f2:27:e2:a6:45:1f:72:
                    6a:b5:ea:cc:d4:73:1f:bd:69:d3:5e:a5:b5:8b:27:
                    15:79:b0:05:22:89:57:4a:66:5e:77:2d:2c:18:e2:
                    2e:96:e2:07:9f:ae:8d:88:33:4d:9e:4d:53:24:c9:
                    ab:81:c1:03:f8:f3:3f:e1:33:2f:35:5a:ee:72:f5:
                    b7:31:ae:dc:cd:df:20:9c:a4:96:72:88:ba:f8:e6:
                    54:91:aa:ec:4b:09:51:00:d3:1a:a0:e7:e2:70:e4:
                    77:19:1a:53:f0:37:1b:b4:0d:4f:a0:f4:8c:54:6d:
                    78:87:01:ef:18:14:a5:9d:ea:8e:0c:02:68:c1:10:
                    9f:75:30:0f:ad:2e:96:69:b3:86:e4:8a:83:66:7a:
                    87:d5:87:3c:dc:30:e3:0d:eb:4f:bc:5d:ef:74:9c:
                    29:81:f9:6d:eb:d5:6e:41:01:90:1d:0a:a1:82:4a:
                    e3:81
                Exponent: 65537 (0x10001)
        X509v3 extensions:
            X509v3 Basic Constraints: 
                CA:FALSE
            Netscape Cert Type: 
                SSL Client, S/MIME
            Netscape Comment: 
                OpenSSL Generated Client Certificate
            X509v3 Subject Key Identifier: 
                5E:C9:BE:83:3C:01:11:5D:0A:53:09:66:E9:50:7E:5B:92:D6:76:54
            X509v3 Authority Key Identifier: 
                keyid:EC:17:6C:61:91:BE:6C:AE:6F:0E:E3:D4:71:9A:80:BD:E5:EB:58:21

            X509v3 Key Usage: critical
                Digital Signature, Non Repudiation, Key Encipherment
            X509v3 Extended Key Usage: 
                TLS Web Client Authentication, E-mail Protection
    Signature Algorithm: sha256WithRSAEncryption
         2c:46:d0:2f:e8:cb:52:b6:59:97:df:71:ea:63:d0:67:75:cf:
         71:f8:5c:1d:c9:90:03:c0:7c:7e:76:1f:c8:81:24:9f:4b:1d:
         30:6b:2a:42:d6:80:52:43:7a:66:96:a1:07:e6:be:ff:e3:5b:
         31:74:1b:8c:fb:9a:04:ba:35:ca:b5:a3:82:f5:0d:34:f3:8d:
         b3:c7:86:2e:e4:3a:14:24:66:99:0e:ac:80:b3:a2:8f:92:9e:
         ad:ef:01:a0:2d:aa:86:07:f3:93:56:75:48:c5:75:55:52:d8:
         f7:a5:dc:65:ad:1c:09:ad:83:e5:45:54:f2:a3:0c:7d:f3:32:
         aa:c3:46:90:d2:cb:7c:10:44:5d:4c:f5:39:f6:bc:49:eb:6a:
         34:f1:6f:cc:22:15:6c:db:ef:07:65:85:5c:47:f3:a2:1d:63:
         86:2d:13:ed:3c:74:37:e9:7e:81:9b:de:86:12:69:80:9b:98:
         18:b7:ec:e3:c1:e7:8a:39:4d:05:52:65:4c:c6:c3:f1:15:e2:
         fe:d1:3b:2d:cc:67:bc:5b:ab:f3:05:cc:bb:99:91:63:8d:1e:
         04:c0:4d:08:6d:c1:47:74:8b:72:9f:10:3b:cc:ed:97:c5:f5:
         3e:0f:83:e1:f9:35:c9:d0:eb:f8:ae:0f:61:4c:40:75:98:b3:
         e0:fa:e4:cd
-----BEGIN CERTIFICATE-----
MIIETzCCAzegAwIBAgICEAQwDQYJKoZIhvcNAQELBQAwgYIxCzAJBgNVBAYTAkNa
MRowGAYDVQQIDBFKaWhvbW9yYXZza3kga3JhajEjMCEGA1UECgwaT3BlblN0YWNr
IENvbW1vbiBMaWJyYXJpZXMxFDASBgNVBAsMC0VuZ2luZWVyaW5nMRwwGgYDVQQD
DBNJbnRlcm1lZGlhdGUgQ0EgMDAzMB4XDTE4MDgxMDE2MjgyOVoXDTE4MDgzMTE2
MjgyOVowgYkxCzAJBgNVBAYTAkNaMRowGAYDVQQIDBFKaWhvbW9yYXZza3kga3Jh
ajENMAsGA1UEBwwEQnJubzEjMCEGA1UECgwaT3BlblN0YWNrIENvbW1vbiBMaWJy
YXJpZXMxFDASBgNVBAsMC0VuZ2luZWVyaW5nMRQwEgYDVQQDDAtOb2RlIDAwMzAw
NTCCASIwDQYJKoZIhvcNAQEBBQADggEPADCCAQoCggEBALbhr+L3734LRQsGU7ci
jwE/4Ut4zLRPc0EvAnR0fTDNSoJd7rpyc67V/ppXwH4FY8ur58okV8wZ4Y9gK+X8
PaEb8rERuOJNUeRr//6ywPF4MBXyJ+KmRR9yarXqzNRzH71p016ltYsnFXmwBSKJ
V0pmXnctLBjiLpbiB5+ujYgzTZ5NUyTJq4HBA/jzP+EzLzVa7nL1tzGu3M3fIJyk
lnKIuvjmVJGq7EsJUQDTGqDn4nDkdxkaU/A3G7QNT6D0jFRteIcB7xgUpZ3qjgwC
aMEQn3UwD60ulmmzhuSKg2Z6h9WHPNww4w3rT7xd73ScKYH5bevVbkEBkB0KoYJK
44ECAwEAAaOBxTCBwjAJBgNVHRMEAjAAMBEGCWCGSAGG+EIBAQQEAwIFoDAzBglg
hkgBhvhCAQ0EJhYkT3BlblNTTCBHZW5lcmF0ZWQgQ2xpZW50IENlcnRpZmljYXRl
MB0GA1UdDgQWBBReyb6DPAERXQpTCWbpUH5bktZ2VDAfBgNVHSMEGDAWgBTsF2xh
kb5srm8O49RxmoC95etYITAOBgNVHQ8BAf8EBAMCBeAwHQYDVR0lBBYwFAYIKwYB
BQUHAwIGCCsGAQUFBwMEMA0GCSqGSIb3DQEBCwUAA4IBAQAsRtAv6MtStlmX33Hq
Y9Bndc9x+FwdyZADwHx+dh/IgSSfSx0waypC1oBSQ3pmlqEH5r7/41sxdBuM+5oE
ujXKtaOC9Q00842zx4Yu5DoUJGaZDqyAs6KPkp6t7wGgLaqGB/OTVnVIxXVVUtj3
pdxlrRwJrYPlRVTyowx98zKqw0aQ0st8EERdTPU59rxJ62o08W/MIhVs2+8HZYVc
R/OiHWOGLRPtPHQ36X6Bm96GEmmAm5gYt+zjweeKOU0FUmVMxsPxFeL+0TstzGe8
W6vzBcy7mZFjjR4EwE0IbcFHdItynxA7zO2XxfU+D4Ph+TXJ0Ov4rg9hTEB1mLPg
+uTN
-----END CERTIFICATE-----
