Certificate:
    Data:
        Version: 3 (0x2)
        Serial Number: 4098 (0x1002)
    Signature Algorithm: sha256WithRSAEncryption
        Issuer: C=CZ, ST=Jihomoravsky kraj, O=OpenStack Common Libraries, OU=Engineering, CN=Intermediate CA 003
        Validity
            Not Before: Aug 14 16:16:14 2018 GMT
            Not After : Sep  4 16:16:14 2018 GMT
        Subject: C=CZ, ST=Jihomoravsky kraj, L=Brno, O=OpenStack Common Libraries, OU=Engineering, CN=Node 003003
        Subject Public Key Info:
            Public Key Algorithm: rsaEncryption
                Public-Key: (2048 bit)
                Modulus:
                    00:ae:03:99:9e:d0:8a:5a:8c:76:eb:2c:e7:c4:28:
                    cf:b3:ff:fb:cf:11:a4:df:ae:58:49:71:e5:17:20:
                    fe:e5:ec:a3:d3:35:ab:e1:82:a7:94:c4:3f:4e:ce:
                    6a:49:19:28:dd:e4:8e:04:d8:fc:3d:5e:48:b5:a4:
                    53:ef:b2:70:30:ba:cc:6e:d3:47:77:0a:9f:76:e8:
                    65:d0:42:cc:4e:91:e9:c8:f2:ef:9b:b4:bc:c4:15:
                    06:63:5d:77:88:db:d0:a1:7a:1c:3d:af:37:1e:ee:
                    ea:e9:b6:1f:7b:14:74:bb:87:30:2f:a1:d8:8a:ae:
                    4f:98:01:66:87:16:08:88:ea:3b:33:12:a7:ba:e5:
                    67:ce:87:8c:2a:50:f9:f8:5e:2a:90:3c:3a:d6:8a:
                    e3:1c:57:2a:9b:dc:17:d7:7c:de:22:af:f3:10:ca:
                    9a:76:84:c1:54:bb:4f:47:87:a0:68:d3:88:dc:18:
                    c0:6a:f5:6c:f9:6a:a1:57:dc:19:d2:65:60:bc:69:
                    9a:b1:e5:1b:55:b5:a3:bf:18:0d:86:ae:94:cd:da:
                    5f:36:e1:db:44:ef:66:4f:3e:e9:7e:8a:31:e9:9c:
                    51:db:2f:ec:32:8d:93:5a:5a:57:97:68:a2:24:a8:
                    29:25:2b:b3:8b:d9:d4:dd:7a:69:0d:8c:43:08:03:
                    6e:d1
                Exponent: 65537 (0x10001)
        X509v3 extensions:
            X509v3 Basic Constraints: 
                CA:FALSE
            Netscape Cert Type: 
                SSL Client, S/MIME
            Netscape Comment: 
                OpenSSL Generated Client Certificate
            X509v3 Subject Key Identifier: 
                9E:35:41:1A:91:DA:C0:C2:FE:0D:C8:8E:D5:04:20:E5:AF:A5:CE:CB
            X509v3 Authority Key Identifier: 
                keyid:8D:75:7D:7C:E1:58:AC:0E:06:0B:3A:25:B7:D9:70:ED:8B:23:C1:9B

            X509v3 Key Usage: critical
                Digital Signature, Non Repudiation, Key Encipherment
            X509v3 Extended Key Usage: 
                TLS Web Client Authentication, E-mail Protection
    Signature Algorithm: sha256WithRSAEncryption
         69:dc:2e:d4:e3:f6:dc:c6:4c:79:79:67:cd:9a:7e:75:8c:f0:
         53:82:da:89:ff:b5:39:81:43:74:fc:78:af:1a:bd:f3:c8:58:
         96:18:30:81:59:82:28:41:a9:17:91:cd:bf:88:25:c9:99:b8:
         2c:0f:c5:42:c2:67:ce:ba:b2:bb:e3:51:8a:ee:8e:2f:24:5d:
         15:ce:fc:7f:7a:c9:10:83:19:d7:48:1c:f8:44:27:eb:85:1f:
         39:2a:5e:a5:51:7f:96:76:b4:5e:5a:d4:77:5e:29:76:bd:e7:
         3f:ad:f2:43:b4:14:98:3e:3f:4a:c6:55:d1:52:92:dc:1f:41:
         ee:1c:f4:d7:ed:46:26:98:aa:bc:c7:f1:7a:65:4a:a7:df:f3:
         bb:0c:4f:59:67:e8:1b:8f:e8:2d:e3:49:a9:d4:c6:02:a8:db:
         c5:81:3e:b0:06:d8:e5:f4:b8:7f:ee:b2:e0:fe:c8:59:5e:d6:
         f6:f9:32:5d:5c:96:29:44:54:ee:e3:0a:b9:16:c5:d3:e4:fb:
         b6:21:de:7d:03:9c:23:50:26:ed:9c:78:50:ea:57:6e:71:7e:
         f1:9c:ac:f6:9a:5b:7c:18:19:6a:2e:34:12:09:aa:f5:d7:45:
         d1:13:59:c4:5d:77:42:ac:25:d4:3f:ac:68:ec:8c:aa:97:ea:
         87:63:ed:3e:43:9a:6f:2b:5d:f5:90:fa:27:7b:0c:3b:1c:a5:
         4c:a6:81:53:97:75:34:4f:dc:41:db:c9:47:e1:1f:91:da:a8:
         10:57:f8:74:46:52:42:85:d0:bc:86:04:c9:90:97:cf:4d:3f:
         19:9b:c9:48:49:8b:c0:70:85:39:b7:56:4e:77:33:96:28:bd:
         52:5b:8c:b1:19:5f:53:4c:cd:eb:1b:dd:3c:0a:51:5f:fb:f7:
         83:94:33:56:06:8d:eb:d7:08:0c:fe:36:40:3b:71:fa:b5:03:
         8e:e0:67:a1:ea:ed:5a:6c:26:e5:59:d3:af:b5:fa:3f:5a:54:
         80:d0:78:9b:b0:47:01:89:fe:0d:d5:92:b6:02:2c:71:dc:da:
         66:9a:9f:8b:d8:48:65:a3:c1:54:f4:69:d6:71:1f:0e:30:d5:
         94:53:4e:aa:60:fa:2c:a8:52:6f:ce:84:63:1b:aa:1b:de:42:
         3b:3c:f6:ba:91:5c:bb:72:90:c7:54:e3:5e:87:4a:a2:76:b4:
         40:6c:3a:4e:bf:c3:5b:ed:a0:22:50:25:51:3a:3e:5b:d8:f1:
         e7:9c:bf:48:5f:9d:3a:35:83:7a:2e:ba:64:2e:10:ff:d4:a6:
         81:2c:ca:c8:98:ae:25:be:1f:96:88:89:1e:50:7a:3c:a7:98:
         95:27:44:9a:1f:e5:2d:df
-----BEGIN CERTIFICATE-----
MIIFTzCCAzegAwIBAgICEAIwDQYJKoZIhvcNAQELBQAwgYIxCzAJBgNVBAYTAkNa
MRowGAYDVQQIDBFKaWhvbW9yYXZza3kga3JhajEjMCEGA1UECgwaT3BlblN0YWNr
IENvbW1vbiBMaWJyYXJpZXMxFDASBgNVBAsMC0VuZ2luZWVyaW5nMRwwGgYDVQQD
DBNJbnRlcm1lZGlhdGUgQ0EgMDAzMB4XDTE4MDgxNDE2MTYxNFoXDTE4MDkwNDE2
MTYxNFowgYkxCzAJBgNVBAYTAkNaMRowGAYDVQQIDBFKaWhvbW9yYXZza3kga3Jh
ajENMAsGA1UEBwwEQnJubzEjMCEGA1UECgwaT3BlblN0YWNrIENvbW1vbiBMaWJy
YXJpZXMxFDASBgNVBAsMC0VuZ2luZWVyaW5nMRQwEgYDVQQDDAtOb2RlIDAwMzAw
MzCCASIwDQYJKoZIhvcNAQEBBQADggEPADCCAQoCggEBAK4DmZ7QilqMduss58Qo
z7P/+88RpN+uWElx5Rcg/uXso9M1q+GCp5TEP07OakkZKN3kjgTY/D1eSLWkU++y
cDC6zG7TR3cKn3boZdBCzE6R6cjy75u0vMQVBmNdd4jb0KF6HD2vNx7u6um2H3sU
dLuHMC+h2IquT5gBZocWCIjqOzMSp7rlZ86HjCpQ+fheKpA8OtaK4xxXKpvcF9d8
3iKv8xDKmnaEwVS7T0eHoGjTiNwYwGr1bPlqoVfcGdJlYLxpmrHlG1W1o78YDYau
lM3aXzbh20TvZk8+6X6KMemcUdsv7DKNk1paV5dooiSoKSUrs4vZ1N16aQ2MQwgD
btECAwEAAaOBxTCBwjAJBgNVHRMEAjAAMBEGCWCGSAGG+EIBAQQEAwIFoDAzBglg
hkgBhvhCAQ0EJhYkT3BlblNTTCBHZW5lcmF0ZWQgQ2xpZW50IENlcnRpZmljYXRl
MB0GA1UdDgQWBBSeNUEakdrAwv4NyI7VBCDlr6XOyzAfBgNVHSMEGDAWgBSNdX18
4VisDgYLOiW32XDtiyPBmzAOBgNVHQ8BAf8EBAMCBeAwHQYDVR0lBBYwFAYIKwYB
BQUHAwIGCCsGAQUFBwMEMA0GCSqGSIb3DQEBCwUAA4ICAQBp3C7U4/bcxkx5eWfN
mn51jPBTgtqJ/7U5gUN0/HivGr3zyFiWGDCBWYIoQakXkc2/iCXJmbgsD8VCwmfO
urK741GK7o4vJF0Vzvx/eskQgxnXSBz4RCfrhR85Kl6lUX+WdrReWtR3Xil2vec/
rfJDtBSYPj9KxlXRUpLcH0HuHPTX7UYmmKq8x/F6ZUqn3/O7DE9ZZ+gbj+gt40mp
1MYCqNvFgT6wBtjl9Lh/7rLg/shZXtb2+TJdXJYpRFTu4wq5FsXT5Pu2Id59A5wj
UCbtnHhQ6lducX7xnKz2mlt8GBlqLjQSCar110XRE1nEXXdCrCXUP6xo7Iyql+qH
Y+0+Q5pvK131kPoneww7HKVMpoFTl3U0T9xB28lH4R+R2qgQV/h0RlJChdC8hgTJ
kJfPTT8Zm8lISYvAcIU5t1ZOdzOWKL1SW4yxGV9TTM3rG908ClFf+/eDlDNWBo3r
1wgM/jZAO3H6tQOO4Geh6u1abCblWdOvtfo/WlSA0HibsEcBif4N1ZK2Aixx3Npm
mp+L2Ehlo8FU9GnWcR8OMNWUU06qYPosqFJvzoRjG6ob3kI7PPa6kVy7cpDHVONe
h0qidrRAbDpOv8Nb7aAiUCVROj5b2PHnnL9IX506NYN6LrpkLhD/1KaBLMrImK4l
vh+WiIkeUHo8p5iVJ0SaH+Ut3w==
-----END CERTIFICATE-----
