Certificate:
    Data:
        Version: 3 (0x2)
        Serial Number: 4098 (0x1002)
    Signature Algorithm: sha256WithRSAEncryption
        Issuer: C=CZ, ST=Jihomoravsky kraj, O=OpenStack Common Libraries, OU=Engineering, CN=Intermediate CA 003
        Validity
            Not Before: Aug 10 16:28:27 2018 GMT
            Not After : Aug 31 16:28:27 2018 GMT
        Subject: C=CZ, ST=Jihomoravsky kraj, L=Brno, O=OpenStack Common Libraries, OU=Engineering, CN=Node 003003
        Subject Public Key Info:
            Public Key Algorithm: rsaEncryption
                Public-Key: (2048 bit)
                Modulus:
                    00:be:db:26:b3:4e:9c:35:dc:ed:e8:8c:07:f7:52:
                    36:d7:60:35:dc:77:b0:88:cd:4d:07:73:d1:a2:81:
                    2f:d0:cb:05:35:18:8b:73:05:20:39:18:79:dd:e5:
                    1b:7f:08:ef:e5:5f:1f:c7:64:b4:82:d1:d0:ff:5e:
                    6e:18:0b:e8:c5:e2:5e:13:ee:93:ff:be:e5:63:53:
                    42:d2:b2:74:1c:cf:e2:bb:b3:4e:12:57:35:7f:a6:
                    70:b7:95:11:0a:5f:cc:45:66:65:72:f6:5d:99:8c:
                    5c:c2:a9:2f:04:5f:f7:1c:68:63:a9:d1:b1:1c:d4:
                    bc:e7:a5:84:ca:43:b9:9c:33:97:d6:ef:31:c8:05:
                    1d:89:04:65:fc:72:f0:99:02:38:c4:f4:a7:40:57:
                    13:00:b3:42:36:ab:fc:db:cc:2c:de:ea:57:d5:25:
                    24:3c:30:fc:8b:ac:b7:c2:f2:51:7c:20:83:8d:51:
                    f1:8f:56:05:c5:f0:49:eb:58:01:1a:12:fb:26:55:
                    00:38:41:b1:3e:9f:18:ec:9b:53:30:36:7e:47:9d:
                    98:8e:0c:27:69:a4:99:c5:47:54:cc:0b:7c:8c:9e:
                    25:c9:74:aa:07:7c:41:79:e4:69:0b:02:c1:82:73:
                    3d:75:f1:03:87:24:ce:05:db:3b:4a:dd:53:1b:21:
                    37:1b
                Exponent: 65537 (0x10001)
        X509v3 extensions:
            X509v3 Basic Constraints: 
                CA:FALSE
            Netscape Cert Type: 
                SSL Client, S/MIME
            Netscape Comment: 
                OpenSSL Generated Client Certificate
            X509v3 Subject Key Identifier: 
                C5:34:A9:B2:CB:03:4A:50:E1:C7:3F:2F:28:03:1E:B9:6F:46:14:AE
            X509v3 Authority Key Identifier: 
                keyid:EC:17:6C:61:91:BE:6C:AE:6F:0E:E3:D4:71:9A:80:BD:E5:EB:58:21

            X509v3 Key Usage: critical
                Digital Signature, Non Repudiation, Key Encipherment
            X509v3 Extended Key Usage: 
                TLS Web Client Authentication, E-mail Protection
    Signature Algorithm: sha256WithRSAEncryption
         2a:1a:50:fa:71:58:04:21:37:c9:3f:75:dd:3b:bf:91:64:90:
         e8:a1:e6:a5:3c:ef:80:10:51:47:4e:e7:3f:95:d6:bb:47:7b:
         5f:c8:60:32:fb:b5:d6:b3:a6:45:a3:ff:ae:a4:ef:38:35:78:
         00:ce:0e:78:61:81:ee:1b:ff:4b:4a:14:56:4b:00:b7:7f:31:
         5e:09:16:5d:15:cd:05:a6:c8:72:51:bc:32:ad:b5:e7:7e:12:
         69:bb:cb:2e:b5:91:22:23:0e:39:b3:da:c7:91:16:69:b2:4b:
         13:6f:de:b3:9a:59:e6:ca:cf:1b:e1:e0:eb:1d:03:b5:21:f9:
         4c:48:d0:16:32:96:f8:44:d5:41:2a:2c:ec:5f:6c:75:aa:e1:
         eb:25:92:43:5c:5f:fe:06:9e:d0:ba:5f:d6:77:db:a9:f8:62:
         8b:fb:df:b1:65:97:bb:d4:2b:40:d0:32:01:f3:86:f8:cb:a3:
         36:45:e8:28:55:d4:63:53:6f:8f:d2:43:57:60:25:9a:12:e7:
         c8:61:c2:09:60:d3:02:05:9e:c3:6d:8f:e1:31:2b:79:20:75:
         93:e0:56:9d:b6:f3:4d:c5:06:a5:e8:c4:0c:7e:eb:f5:1e:ab:
         40:e8:b0:64:06:49:65:0f:7d:a2:32:0f:94:e9:10:ba:b2:79:
         61:20:3e:12
-----BEGIN CERTIFICATE-----
MIIETzCCAzegAwIBAgICEAIwDQYJKoZIhvcNAQELBQAwgYIxCzAJBgNVBAYTAkNa
MRowGAYDVQQIDBFKaWhvbW9yYXZza3kga3JhajEjMCEGA1UECgwaT3BlblN0YWNr
IENvbW1vbiBMaWJyYXJpZXMxFDASBgNVBAsMC0VuZ2luZWVyaW5nMRwwGgYDVQQD
DBNJbnRlcm1lZGlhdGUgQ0EgMDAzMB4XDTE4MDgxMDE2MjgyN1oXDTE4MDgzMTE2
MjgyN1owgYkxCzAJBgNVBAYTAkNaMRowGAYDVQQIDBFKaWhvbW9yYXZza3kga3Jh
ajENMAsGA1UEBwwEQnJubzEjMCEGA1UECgwaT3BlblN0YWNrIENvbW1vbiBMaWJy
YXJpZXMxFDASBgNVBAsMC0VuZ2luZWVyaW5nMRQwEgYDVQQDDAtOb2RlIDAwMzAw
MzCCASIwDQYJKoZIhvcNAQEBBQADggEPADCCAQoCggEBAL7bJrNOnDXc7eiMB/dS
NtdgNdx3sIjNTQdz0aKBL9DLBTUYi3MFIDkYed3lG38I7+VfH8dktILR0P9ebhgL
6MXiXhPuk/++5WNTQtKydBzP4ruzThJXNX+mcLeVEQpfzEVmZXL2XZmMXMKpLwRf
9xxoY6nRsRzUvOelhMpDuZwzl9bvMcgFHYkEZfxy8JkCOMT0p0BXEwCzQjar/NvM
LN7qV9UlJDww/Iust8LyUXwgg41R8Y9WBcXwSetYARoS+yZVADhBsT6fGOybUzA2
fkedmI4MJ2mkmcVHVMwLfIyeJcl0qgd8QXnkaQsCwYJzPXXxA4ckzgXbO0rdUxsh
NxsCAwEAAaOBxTCBwjAJBgNVHRMEAjAAMBEGCWCGSAGG+EIBAQQEAwIFoDAzBglg
hkgBhvhCAQ0EJhYkT3BlblNTTCBHZW5lcmF0ZWQgQ2xpZW50IENlcnRpZmljYXRl
MB0GA1UdDgQWBBTFNKmyywNKUOHHPy8oAx65b0YUrjAfBgNVHSMEGDAWgBTsF2xh
kb5srm8O49RxmoC95etYITAOBgNVHQ8BAf8EBAMCBeAwHQYDVR0lBBYwFAYIKwYB
BQUHAwIGCCsGAQUFBwMEMA0GCSqGSIb3DQEBCwUAA4IBAQAqGlD6cVgEITfJP3Xd
O7+RZJDooealPO+AEFFHTuc/lda7R3tfyGAy+7XWs6ZFo/+upO84NXgAzg54YYHu
G/9LShRWSwC3fzFeCRZdFc0FpshyUbwyrbXnfhJpu8sutZEiIw45s9rHkRZpsksT
b96zmlnmys8b4eDrHQO1IflMSNAWMpb4RNVBKizsX2x1quHrJZJDXF/+Bp7Qul/W
d9up+GKL+9+xZZe71CtA0DIB84b4y6M2RegoVdRjU2+P0kNXYCWaEufIYcIJYNMC
BZ7DbY/hMSt5IHWT4FadtvNNxQal6MQMfuv1HqtA6LBkBkllD32iMg+U6RC6snlh
ID4S
-----END CERTIFICATE-----
