Certificate:
    Data:
        Version: 3 (0x2)
        Serial Number: 4097 (0x1001)
    Signature Algorithm: sha256WithRSAEncryption
        Issuer: C=CZ, ST=Jihomoravsky kraj, O=OpenStack Common Libraries, OU=Engineering, CN=Intermediate CA 003
        Validity
            Not Before: Aug 14 16:16:14 2018 GMT
            Not After : Sep  4 16:16:14 2018 GMT
        Subject: C=CZ, ST=Jihomoravsky kraj, L=Brno, O=OpenStack Common Libraries, OU=Engineering, CN=Node 003002
        Subject Public Key Info:
            Public Key Algorithm: rsaEncryption
                Public-Key: (2048 bit)
                Modulus:
                    00:a2:2d:ef:83:a7:8b:7e:c7:70:ee:56:84:58:46:
                    a3:3c:84:d7:3e:4b:32:82:ec:a7:f1:3f:f7:8b:1b:
                    0b:76:1c:3e:dd:da:33:12:93:a5:45:af:03:4e:dc:
                    b3:82:19:c1:78:6d:08:52:a7:bd:fc:5d:9f:d2:b6:
                    4f:ce:e3:9f:4c:77:6a:93:47:f4:a2:2e:cc:6b:e0:
                    97:d7:60:f3:f6:47:4d:ee:82:d9:08:47:72:af:18:
                    4b:c1:41:29:31:27:9d:3e:dd:e9:c6:91:f7:35:6e:
                    ba:2b:16:0d:25:95:0a:8a:8a:ab:fb:ea:c3:2a:b3:
                    d9:bc:cc:25:e0:29:fa:d1:08:13:b7:57:ad:75:11:
                    bd:bf:a0:5e:53:06:54:07:94:77:3d:8a:2e:53:4a:
                    5b:0f:83:b7:e9:b1:35:49:c0:57:97:31:c7:eb:b0:
                    8b:6a:da:52:90:a2:63:b1:10:33:d1:52:49:ce:47:
                    93:84:5e:8d:65:5b:3a:9b:4a:e4:a7:37:0f:82:52:
                    ba:48:ea:e7:1f:5f:30:6b:d7:a9:d2:98:30:5d:0b:
                    7c:e8:5e:f3:ac:38:a9:8e:07:8c:f0:97:78:49:53:
                    40:43:1f:58:58:b7:63:bb:75:72:87:59:ee:c2:6b:
                    5c:c2:79:a9:66:45:4c:b9:c4:3a:15:50:ef:65:36:
                    bb:b1
                Exponent: 65537 (0x10001)
        X509v3 extensions:
            X509v3 Basic Constraints: 
                CA:FALSE
            Netscape Cert Type: 
                SSL Client, S/MIME
            Netscape Comment: 
                OpenSSL Generated Client Certificate
            X509v3 Subject Key Identifier: 
                3B:40:7C:01:A7:AD:59:85:94:7B:A5:AD:15:60:8F:D5:6C:C2:FD:60
            X509v3 Authority Key Identifier: 
                keyid:8D:75:7D:7C:E1:58:AC:0E:06:0B:3A:25:B7:D9:70:ED:8B:23:C1:9B

            X509v3 Key Usage: critical
                Digital Signature, Non Repudiation, Key Encipherment
            X509v3 Extended Key Usage: 
                TLS Web Client Authentication, E-mail Protection
    Signature Algorithm: sha256WithRSAEncryption
         cd:47:ab:dd:08:7b:fa:9b:b7:ec:c7:4f:0c:e2:b8:60:5f:71:
         c3:b9:53:87:ce:dc:7b:d0:62:b5:a4:30:db:49:5c:a0:74:5e:
         d9:f2:5d:84:7f:d5:ca:34:6f:b2:53:23:83:68:e1:ff:76:9c:
         dc:d7:de:14:74:68:5f:3d:b0:75:7b:eb:bc:f8:0a:fc:5b:84:
         a4:74:24:8d:5a:08:12:0e:6e:53:88:59:55:02:b3:d9:30:33:
         d6:c2:b9:b1:b9:2c:96:51:e5:b7:7d:99:f5:67:8b:13:22:83:
         b3:39:57:44:a0:6d:fe:a8:31:8b:5b:79:75:85:70:ce:98:59:
         ba:09:41:8c:a4:18:54:b8:3c:1b:22:c9:9a:5e:12:57:48:d5:
         df:b2:3f:4e:4c:42:9b:04:b1:79:ab:0b:2e:aa:1f:52:35:c6:
         15:bd:0b:56:f9:ec:9c:70:bf:a3:6a:42:3c:a9:da:52:56:30:
         94:51:64:50:1f:a7:bb:a2:c0:b1:5f:e2:ea:97:57:0f:07:a0:
         92:a0:48:88:bc:9e:64:d1:1a:53:d3:37:70:6f:44:38:34:16:
         65:62:45:1a:0c:be:33:ed:94:26:4e:d7:95:52:db:6f:99:43:
         49:3c:d9:3c:cd:a3:fd:52:0b:38:7e:a8:07:30:0c:1a:c1:b7:
         e8:ef:11:e0:12:5b:1f:72:9a:e6:ac:2a:4b:3e:aa:f7:f4:bf:
         3a:84:81:97:8a:ff:17:af:54:7e:32:16:ce:14:fb:ef:80:82:
         62:13:83:da:19:f0:84:c3:8d:83:28:00:e6:54:9e:25:9f:05:
         86:1a:a0:5f:a8:73:8c:2a:17:a2:4a:ec:5f:f2:ca:4e:37:3b:
         68:65:40:25:8c:9f:34:cc:e8:bd:10:f9:f3:51:17:52:90:c0:
         4a:d1:20:d6:56:93:02:ed:0d:1f:df:76:b3:1c:75:51:ef:01:
         a5:c0:72:dd:fb:73:1f:c1:f9:cc:ab:2d:b8:bf:bb:78:64:27:
         7f:a7:0e:fb:98:e7:97:b0:eb:ae:07:62:1b:e4:b3:6f:b7:70:
         33:79:50:5b:3b:57:12:dc:ed:87:11:4c:1d:89:10:2b:88:f2:
         35:60:a4:48:ae:b0:e8:cd:3f:2b:26:17:68:a2:68:de:46:ef:
         71:72:e0:5e:68:d2:3a:9a:11:57:a1:1f:a3:70:7e:34:38:c3:
         1b:5c:39:4b:37:79:a7:e2:69:6b:ab:fe:80:88:f3:57:df:f2:
         ba:2d:73:fc:7f:32:7e:79:7b:1e:20:fa:fa:f0:f7:eb:45:0a:
         b4:06:58:06:6c:96:c7:0d:c4:eb:52:ce:f1:4b:04:f3:5c:61:
         ee:e4:3d:d0:c7:de:a1:77
-----BEGIN CERTIFICATE-----
MIIFTzCCAzegAwIBAgICEAEwDQYJKoZIhvcNAQELBQAwgYIxCzAJBgNVBAYTAkNa
MRowGAYDVQQIDBFKaWhvbW9yYXZza3kga3JhajEjMCEGA1UECgwaT3BlblN0YWNr
IENvbW1vbiBMaWJyYXJpZXMxFDASBgNVBAsMC0VuZ2luZWVyaW5nMRwwGgYDVQQD
DBNJbnRlcm1lZGlhdGUgQ0EgMDAzMB4XDTE4MDgxNDE2MTYxNFoXDTE4MDkwNDE2
MTYxNFowgYkxCzAJBgNVBAYTAkNaMRowGAYDVQQIDBFKaWhvbW9yYXZza3kga3Jh
ajENMAsGA1UEBwwEQnJubzEjMCEGA1UECgwaT3BlblN0YWNrIENvbW1vbiBMaWJy
YXJpZXMxFDASBgNVBAsMC0VuZ2luZWVyaW5nMRQwEgYDVQQDDAtOb2RlIDAwMzAw
MjCCASIwDQYJKoZIhvcNAQEBBQADggEPADCCAQoCggEBAKIt74Oni37HcO5WhFhG
ozyE1z5LMoLsp/E/94sbC3YcPt3aMxKTpUWvA07cs4IZwXhtCFKnvfxdn9K2T87j
n0x3apNH9KIuzGvgl9dg8/ZHTe6C2QhHcq8YS8FBKTEnnT7d6caR9zVuuisWDSWV
CoqKq/vqwyqz2bzMJeAp+tEIE7dXrXURvb+gXlMGVAeUdz2KLlNKWw+Dt+mxNUnA
V5cxx+uwi2raUpCiY7EQM9FSSc5Hk4RejWVbOptK5Kc3D4JSukjq5x9fMGvXqdKY
MF0LfOhe86w4qY4HjPCXeElTQEMfWFi3Y7t1codZ7sJrXMJ5qWZFTLnEOhVQ72U2
u7ECAwEAAaOBxTCBwjAJBgNVHRMEAjAAMBEGCWCGSAGG+EIBAQQEAwIFoDAzBglg
hkgBhvhCAQ0EJhYkT3BlblNTTCBHZW5lcmF0ZWQgQ2xpZW50IENlcnRpZmljYXRl
MB0GA1UdDgQWBBQ7QHwBp61ZhZR7pa0VYI/VbML9YDAfBgNVHSMEGDAWgBSNdX18
4VisDgYLOiW32XDtiyPBmzAOBgNVHQ8BAf8EBAMCBeAwHQYDVR0lBBYwFAYIKwYB
BQUHAwIGCCsGAQUFBwMEMA0GCSqGSIb3DQEBCwUAA4ICAQDNR6vdCHv6m7fsx08M
4rhgX3HDuVOHztx70GK1pDDbSVygdF7Z8l2Ef9XKNG+yUyODaOH/dpzc194UdGhf
PbB1e+u8+Ar8W4SkdCSNWggSDm5TiFlVArPZMDPWwrmxuSyWUeW3fZn1Z4sTIoOz
OVdEoG3+qDGLW3l1hXDOmFm6CUGMpBhUuDwbIsmaXhJXSNXfsj9OTEKbBLF5qwsu
qh9SNcYVvQtW+eyccL+jakI8qdpSVjCUUWRQH6e7osCxX+Lql1cPB6CSoEiIvJ5k
0RpT0zdwb0Q4NBZlYkUaDL4z7ZQmTteVUttvmUNJPNk8zaP9Ugs4fqgHMAwawbfo
7xHgElsfcprmrCpLPqr39L86hIGXiv8Xr1R+MhbOFPvvgIJiE4PaGfCEw42DKADm
VJ4lnwWGGqBfqHOMKheiSuxf8spONztoZUAljJ80zOi9EPnzURdSkMBK0SDWVpMC
7Q0f33azHHVR7wGlwHLd+3MfwfnMqy24v7t4ZCd/pw77mOeXsOuuB2Ib5LNvt3Az
eVBbO1cS3O2HEUwdiRAriPI1YKRIrrDozT8rJhdoomjeRu9xcuBeaNI6mhFXoR+j
cH40OMMbXDlLN3mn4mlrq/6AiPNX3/K6LXP8fzJ+eXseIPr68PfrRQq0BlgGbJbH
DcTrUs7xSwTzXGHu5D3Qx96hdw==
-----END CERTIFICATE-----
