Certificate:
    Data:
        Version: 3 (0x2)
        Serial Number: 4097 (0x1001)
    Signature Algorithm: sha256WithRSAEncryption
        Issuer: C=CZ, ST=Jihomoravsky kraj, O=OpenStack Common Libraries, OU=Engineering, CN=Intermediate CA 003
        Validity
            Not Before: Aug 10 16:28:23 2018 GMT
            Not After : Aug 31 16:28:23 2018 GMT
        Subject: C=CZ, ST=Jihomoravsky kraj, L=Brno, O=OpenStack Common Libraries, OU=Engineering, CN=Node 003002
        Subject Public Key Info:
            Public Key Algorithm: rsaEncryption
                Public-Key: (2048 bit)
                Modulus:
                    00:bf:b6:d9:a1:87:eb:9a:07:0d:f2:5a:1d:10:07:
                    86:9d:5d:c7:ec:01:09:43:fc:ad:fc:19:59:08:a4:
                    42:c7:e0:57:a8:45:64:4d:0f:49:7b:bc:2e:a5:90:
                    34:24:5a:ba:f8:b6:7d:b2:bf:71:c8:27:48:fb:78:
                    39:1f:18:e0:16:41:c7:1b:58:9d:a3:ee:b4:3d:d1:
                    95:ae:fa:1b:6c:5d:6c:3a:e8:8b:7a:52:65:d9:06:
                    95:1f:86:3e:08:2d:25:98:36:51:27:4a:87:55:ca:
                    83:57:4d:a0:0a:c2:3e:b8:1e:63:72:22:4b:13:c1:
                    f5:9f:3c:4c:fc:60:9e:2a:68:b3:40:2e:82:ad:60:
                    fe:ce:31:b0:a6:d2:12:5f:a1:63:44:ea:48:92:ac:
                    9e:69:ca:ec:18:20:55:b9:cb:06:17:7a:68:fb:ce:
                    a7:10:a3:ae:a3:ca:55:5e:94:77:c5:70:e7:59:29:
                    f6:73:ca:f4:c1:51:88:1e:6f:b3:94:07:40:09:9f:
                    36:e7:f0:ec:95:88:83:2d:e7:0c:04:4b:1a:7d:96:
                    b5:6a:e0:96:92:5a:09:d2:03:d8:56:fd:83:6a:92:
                    b1:3a:99:b2:68:f4:83:cf:4a:2a:68:97:59:ae:db:
                    66:48:0e:11:d9:84:0b:99:ad:71:80:f6:21:95:cc:
                    49:5d
                Exponent: 65537 (0x10001)
        X509v3 extensions:
            X509v3 Basic Constraints: 
                CA:FALSE
            Netscape Cert Type: 
                SSL Client, S/MIME
            Netscape Comment: 
                OpenSSL Generated Client Certificate
            X509v3 Subject Key Identifier: 
                DA:41:4C:DD:CA:02:42:25:FF:DC:B6:EC:CC:F3:46:66:68:0D:FE:2C
            X509v3 Authority Key Identifier: 
                keyid:EC:17:6C:61:91:BE:6C:AE:6F:0E:E3:D4:71:9A:80:BD:E5:EB:58:21

            X509v3 Key Usage: critical
                Digital Signature, Non Repudiation, Key Encipherment
            X509v3 Extended Key Usage: 
                TLS Web Client Authentication, E-mail Protection
    Signature Algorithm: sha256WithRSAEncryption
         23:42:9a:1a:34:e9:60:07:a9:78:03:1e:18:55:61:68:96:ed:
         fe:d6:49:98:ac:6a:d6:aa:a4:52:b0:86:ed:27:c5:24:85:dc:
         c5:0b:94:4b:97:79:c2:08:33:ba:66:89:2c:03:1f:25:05:ee:
         d7:59:6f:ae:dc:87:c2:b4:5a:50:61:68:a5:ac:27:c1:c8:a5:
         f1:92:86:04:78:9d:06:c0:a2:ff:8d:6e:4e:99:76:f0:5a:70:
         c4:9c:aa:12:3d:08:51:b9:9b:80:ed:37:a5:70:e0:07:3d:1c:
         c3:a9:ef:06:10:72:eb:bc:4f:2c:44:19:d6:47:be:14:38:29:
         6f:43:86:cc:82:e9:bd:2b:5c:3d:c5:84:86:3e:b6:f9:3e:e8:
         0b:7a:4a:64:42:19:03:87:25:6d:6a:43:f1:98:67:cf:8d:48:
         ac:ed:32:ef:69:d0:56:fb:5a:ab:37:23:84:6f:dd:92:b1:ed:
         78:4d:05:67:81:9b:bd:67:21:39:2f:fd:4d:39:9d:51:b5:35:
         bc:71:0a:00:d4:cc:98:bb:55:57:3d:b3:98:08:a5:32:73:e0:
         52:16:24:5e:1d:23:cf:6a:60:89:49:29:17:76:b8:8e:61:54:
         36:df:fe:df:95:cb:33:8f:86:94:d0:1b:2c:34:23:e5:9c:ee:
         8a:23:82:1f
-----BEGIN CERTIFICATE-----
MIIETzCCAzegAwIBAgICEAEwDQYJKoZIhvcNAQELBQAwgYIxCzAJBgNVBAYTAkNa
MRowGAYDVQQIDBFKaWhvbW9yYXZza3kga3JhajEjMCEGA1UECgwaT3BlblN0YWNr
IENvbW1vbiBMaWJyYXJpZXMxFDASBgNVBAsMC0VuZ2luZWVyaW5nMRwwGgYDVQQD
DBNJbnRlcm1lZGlhdGUgQ0EgMDAzMB4XDTE4MDgxMDE2MjgyM1oXDTE4MDgzMTE2
MjgyM1owgYkxCzAJBgNVBAYTAkNaMRowGAYDVQQIDBFKaWhvbW9yYXZza3kga3Jh
ajENMAsGA1UEBwwEQnJubzEjMCEGA1UECgwaT3BlblN0YWNrIENvbW1vbiBMaWJy
YXJpZXMxFDASBgNVBAsMC0VuZ2luZWVyaW5nMRQwEgYDVQQDDAtOb2RlIDAwMzAw
MjCCASIwDQYJKoZIhvcNAQEBBQADggEPADCCAQoCggEBAL+22aGH65oHDfJaHRAH
hp1dx+wBCUP8rfwZWQikQsfgV6hFZE0PSXu8LqWQNCRauvi2fbK/ccgnSPt4OR8Y
4BZBxxtYnaPutD3Rla76G2xdbDroi3pSZdkGlR+GPggtJZg2USdKh1XKg1dNoArC
PrgeY3IiSxPB9Z88TPxgnipos0Augq1g/s4xsKbSEl+hY0TqSJKsnmnK7BggVbnL
Bhd6aPvOpxCjrqPKVV6Ud8Vw51kp9nPK9MFRiB5vs5QHQAmfNufw7JWIgy3nDARL
Gn2WtWrglpJaCdID2Fb9g2qSsTqZsmj0g89KKmiXWa7bZkgOEdmEC5mtcYD2IZXM
SV0CAwEAAaOBxTCBwjAJBgNVHRMEAjAAMBEGCWCGSAGG+EIBAQQEAwIFoDAzBglg
hkgBhvhCAQ0EJhYkT3BlblNTTCBHZW5lcmF0ZWQgQ2xpZW50IENlcnRpZmljYXRl
MB0GA1UdDgQWBBTaQUzdygJCJf/ctuzM80ZmaA3+LDAfBgNVHSMEGDAWgBTsF2xh
kb5srm8O49RxmoC95etYITAOBgNVHQ8BAf8EBAMCBeAwHQYDVR0lBBYwFAYIKwYB
BQUHAwIGCCsGAQUFBwMEMA0GCSqGSIb3DQEBCwUAA4IBAQAjQpoaNOlgB6l4Ax4Y
VWFolu3+1kmYrGrWqqRSsIbtJ8UkhdzFC5RLl3nCCDO6ZoksAx8lBe7XWW+u3IfC
tFpQYWilrCfByKXxkoYEeJ0GwKL/jW5OmXbwWnDEnKoSPQhRuZuA7TelcOAHPRzD
qe8GEHLrvE8sRBnWR74UOClvQ4bMgum9K1w9xYSGPrb5PugLekpkQhkDhyVtakPx
mGfPjUis7TLvadBW+1qrNyOEb92Sse14TQVngZu9ZyE5L/1NOZ1RtTW8cQoA1MyY
u1VXPbOYCKUyc+BSFiReHSPPamCJSSkXdriOYVQ23/7flcszj4aU0BssNCPlnO6K
I4If
-----END CERTIFICATE-----
