Certificate:
    Data:
        Version: 3 (0x2)
        Serial Number: 4100 (0x1004)
    Signature Algorithm: sha256WithRSAEncryption
        Issuer: C=CZ, ST=Jihomoravsky kraj, O=OpenStack Common Libraries, OU=Engineering, CN=Intermediate CA 003
        Validity
            Not Before: Aug 14 16:16:15 2018 GMT
            Not After : Sep  4 16:16:15 2018 GMT
        Subject: C=CZ, ST=Jihomoravsky kraj, L=Brno, O=OpenStack Common Libraries, OU=Engineering, CN=Node 003005
        Subject Public Key Info:
            Public Key Algorithm: rsaEncryption
                Public-Key: (2048 bit)
                Modulus:
                    00:cb:6a:9c:f0:9b:c0:a5:53:8d:dd:98:43:b7:38:
                    5d:fe:0c:3b:a6:56:ec:25:85:4e:e9:7b:84:6e:51:
                    6a:a9:7b:96:d1:b4:b5:a1:62:00:f0:f3:80:17:6f:
                    b6:19:43:14:45:bb:3b:5e:52:1e:61:e9:05:46:dd:
                    21:88:f7:72:d7:36:a1:88:da:a5:7b:6a:32:66:3a:
                    e3:02:33:1d:29:bd:25:53:80:ba:05:93:2a:b5:82:
                    be:7d:bd:25:5f:e7:88:5a:1f:0f:5e:d6:61:11:e5:
                    a8:31:e0:9c:9c:a0:f9:93:41:7c:0f:b4:fa:74:3e:
                    1b:e0:3b:73:d8:ef:35:c9:c3:8d:e3:49:d6:99:5a:
                    5d:56:06:47:a1:e1:f2:b0:dd:c5:f9:72:b6:39:8a:
                    67:f5:fc:f3:63:56:6d:38:e3:03:f7:bb:64:ab:b0:
                    03:fc:59:e7:ee:60:1d:81:ff:69:9b:bb:0e:66:d0:
                    61:7c:6e:c1:72:27:6e:4a:cd:0a:41:87:f4:76:d1:
                    4e:ed:b9:d3:39:f2:74:d0:8f:88:57:06:96:40:63:
                    93:2e:ac:21:2a:86:4a:03:d3:7c:61:8e:db:cf:47:
                    31:91:03:a2:c1:3d:0e:fd:a5:f1:fd:85:a5:2d:99:
                    76:73:c0:d0:cb:66:38:41:0f:88:86:3b:b0:d6:3d:
                    cb:3d
                Exponent: 65537 (0x10001)
        X509v3 extensions:
            X509v3 Basic Constraints: 
                CA:FALSE
            Netscape Cert Type: 
                SSL Client, S/MIME
            Netscape Comment: 
                OpenSSL Generated Client Certificate
            X509v3 Subject Key Identifier: 
                AF:AE:F0:0D:83:7A:87:2A:59:F5:A3:C0:90:FD:44:47:98:5D:25:EF
            X509v3 Authority Key Identifier: 
                keyid:8D:75:7D:7C:E1:58:AC:0E:06:0B:3A:25:B7:D9:70:ED:8B:23:C1:9B

            X509v3 Key Usage: critical
                Digital Signature, Non Repudiation, Key Encipherment
            X509v3 Extended Key Usage: 
                TLS Web Client Authentication, E-mail Protection
    Signature Algorithm: sha256WithRSAEncryption
         b2:6d:3c:61:b2:67:c3:80:ed:8f:31:6f:07:73:d1:4b:d9:9b:
         a6:68:37:9e:95:4b:6a:bf:dd:ab:6f:64:f1:02:1b:22:09:34:
         33:7f:ad:f9:1a:7d:24:8e:3b:39:c0:8e:09:bd:48:33:e6:d3:
         86:f1:da:d0:72:b8:43:a7:f6:2f:fb:21:93:48:c2:2d:a8:a9:
         95:aa:ff:ba:25:37:13:d0:5d:3f:34:35:43:b9:9f:63:e6:52:
         67:e6:2e:16:38:dc:68:af:f5:0b:d6:1e:37:1a:19:7e:77:85:
         69:d3:31:ae:c0:50:76:7b:c2:ff:72:cd:bd:0f:6f:e5:72:35:
         7a:70:80:db:81:af:79:d0:70:16:13:96:67:84:be:ce:a7:bb:
         02:12:92:e1:c2:99:26:42:b6:19:ed:a6:10:bf:60:be:7d:73:
         91:22:1f:49:60:7e:32:1e:5a:90:36:67:3e:ea:33:ef:78:f5:
         57:9f:46:54:7e:1e:e0:8a:6d:3a:90:83:5b:c0:a1:66:1e:5e:
         fa:97:3f:8d:89:33:ed:01:3c:58:85:49:b5:94:92:d1:72:b7:
         01:b8:df:18:87:54:bc:78:c7:9d:ee:96:80:2f:e0:30:b4:8f:
         18:fe:f1:b0:c4:f8:83:33:ec:54:ef:f2:75:8c:8f:09:bb:24:
         62:13:7e:69:e5:bd:15:32:d4:a9:83:e1:33:89:dd:a6:96:36:
         bf:98:f2:33:87:e2:9c:2d:c8:c5:e8:0c:04:b1:a4:74:73:0e:
         59:17:ce:9d:4d:47:fe:de:6c:f1:4f:3f:19:39:eb:44:4c:f7:
         05:34:1d:06:ab:ad:af:3b:11:64:b8:18:5f:29:3a:54:d2:c1:
         f5:03:f0:24:9c:cb:a8:19:e4:47:31:bf:ed:c4:48:80:89:4b:
         07:4e:28:ba:6e:f8:f0:10:fd:35:e6:14:c9:eb:bf:c4:4e:26:
         6a:f1:5a:f5:58:93:32:31:6e:97:95:92:40:53:a3:21:26:b4:
         54:51:01:06:9f:05:cf:31:de:a5:86:7f:60:6a:3b:06:ac:18:
         b9:51:b8:cf:78:38:5e:0b:d1:ac:c8:eb:e7:14:b0:df:21:68:
         ce:f7:d9:d8:6d:eb:c8:e7:46:ae:70:8d:35:5a:0e:8e:18:fa:
         3c:53:8b:47:f0:69:f0:58:0f:e7:c5:bd:5c:f3:1e:2c:0f:50:
         bb:4e:79:4a:71:12:38:ef:7b:28:be:85:18:df:9e:bc:a4:a3:
         5b:0c:37:b8:10:6e:f9:3d:ff:52:a5:37:e4:2d:23:8d:39:8c:
         44:1b:61:4c:7e:f3:95:07:b9:2b:4e:87:9f:c2:36:04:ae:0a:
         4d:e4:90:f7:ae:d9:9a:5a
-----BEGIN CERTIFICATE-----
MIIFTzCCAzegAwIBAgICEAQwDQYJKoZIhvcNAQELBQAwgYIxCzAJBgNVBAYTAkNa
MRowGAYDVQQIDBFKaWhvbW9yYXZza3kga3JhajEjMCEGA1UECgwaT3BlblN0YWNr
IENvbW1vbiBMaWJyYXJpZXMxFDASBgNVBAsMC0VuZ2luZWVyaW5nMRwwGgYDVQQD
DBNJbnRlcm1lZGlhdGUgQ0EgMDAzMB4XDTE4MDgxNDE2MTYxNVoXDTE4MDkwNDE2
MTYxNVowgYkxCzAJBgNVBAYTAkNaMRowGAYDVQQIDBFKaWhvbW9yYXZza3kga3Jh
ajENMAsGA1UEBwwEQnJubzEjMCEGA1UECgwaT3BlblN0YWNrIENvbW1vbiBMaWJy
YXJpZXMxFDASBgNVBAsMC0VuZ2luZWVyaW5nMRQwEgYDVQQDDAtOb2RlIDAwMzAw
NTCCASIwDQYJKoZIhvcNAQEBBQADggEPADCCAQoCggEBAMtqnPCbwKVTjd2YQ7c4
Xf4MO6ZW7CWFTul7hG5Raql7ltG0taFiAPDzgBdvthlDFEW7O15SHmHpBUbdIYj3
ctc2oYjapXtqMmY64wIzHSm9JVOAugWTKrWCvn29JV/niFofD17WYRHlqDHgnJyg
+ZNBfA+0+nQ+G+A7c9jvNcnDjeNJ1plaXVYGR6Hh8rDdxflytjmKZ/X882NWbTjj
A/e7ZKuwA/xZ5+5gHYH/aZu7DmbQYXxuwXInbkrNCkGH9HbRTu250znydNCPiFcG
lkBjky6sISqGSgPTfGGO289HMZEDosE9Dv2l8f2FpS2ZdnPA0MtmOEEPiIY7sNY9
yz0CAwEAAaOBxTCBwjAJBgNVHRMEAjAAMBEGCWCGSAGG+EIBAQQEAwIFoDAzBglg
hkgBhvhCAQ0EJhYkT3BlblNTTCBHZW5lcmF0ZWQgQ2xpZW50IENlcnRpZmljYXRl
MB0GA1UdDgQWBBSvrvANg3qHKln1o8CQ/URHmF0l7zAfBgNVHSMEGDAWgBSNdX18
4VisDgYLOiW32XDtiyPBmzAOBgNVHQ8BAf8EBAMCBeAwHQYDVR0lBBYwFAYIKwYB
BQUHAwIGCCsGAQUFBwMEMA0GCSqGSIb3DQEBCwUAA4ICAQCybTxhsmfDgO2PMW8H
c9FL2ZumaDeelUtqv92rb2TxAhsiCTQzf635Gn0kjjs5wI4JvUgz5tOG8drQcrhD
p/Yv+yGTSMItqKmVqv+6JTcT0F0/NDVDuZ9j5lJn5i4WONxor/UL1h43Ghl+d4Vp
0zGuwFB2e8L/cs29D2/lcjV6cIDbga950HAWE5ZnhL7Op7sCEpLhwpkmQrYZ7aYQ
v2C+fXORIh9JYH4yHlqQNmc+6jPvePVXn0ZUfh7gim06kINbwKFmHl76lz+NiTPt
ATxYhUm1lJLRcrcBuN8Yh1S8eMed7paAL+AwtI8Y/vGwxPiDM+xU7/J1jI8JuyRi
E35p5b0VMtSpg+Ezid2mlja/mPIzh+KcLcjF6AwEsaR0cw5ZF86dTUf+3mzxTz8Z
OetETPcFNB0Gq62vOxFkuBhfKTpU0sH1A/AknMuoGeRHMb/txEiAiUsHTii6bvjw
EP015hTJ67/ETiZq8Vr1WJMyMW6XlZJAU6MhJrRUUQEGnwXPMd6lhn9gajsGrBi5
UbjPeDheC9GsyOvnFLDfIWjO99nYbevI50aucI01Wg6OGPo8U4tH8GnwWA/nxb1c
8x4sD1C7TnlKcRI473sovoUY3568pKNbDDe4EG75Pf9SpTfkLSONOYxEG2FMfvOV
B7krToefwjYErgpN5JD3rtmaWg==
-----END CERTIFICATE-----
