Certificate:
    Data:
        Version: 3 (0x2)
        Serial Number: 4099 (0x1003)
    Signature Algorithm: sha256WithRSAEncryption
        Issuer: C=CZ, ST=Jihomoravsky kraj, O=OpenStack Common Libraries, OU=Engineering, CN=Intermediate CA 003
        Validity
            Not Before: Aug 14 16:16:15 2018 GMT
            Not After : Sep  4 16:16:15 2018 GMT
        Subject: C=CZ, ST=Jihomoravsky kraj, L=Brno, O=OpenStack Common Libraries, OU=Engineering, CN=Node 003004
        Subject Public Key Info:
            Public Key Algorithm: rsaEncryption
                Public-Key: (2048 bit)
                Modulus:
                    00:c2:29:bb:a6:92:64:91:32:aa:4d:3d:71:ba:2e:
                    88:9e:57:da:92:46:13:bd:74:cb:e1:ea:d4:13:5e:
                    93:32:cb:83:c2:53:93:59:38:6a:e1:e4:fe:54:00:
                    77:26:41:a9:6c:9a:ac:11:dd:74:7e:e7:50:61:27:
                    d6:16:31:3f:32:1f:aa:56:3b:0c:bb:6f:7f:22:f4:
                    13:58:63:ce:78:92:6f:ef:9b:b3:5e:c8:34:63:3c:
                    1d:90:b9:8a:2b:5e:3d:bc:ef:a2:89:3c:62:7c:df:
                    0b:1a:3a:f5:39:1c:40:22:46:d3:ba:db:89:44:de:
                    bf:3c:ef:d0:00:81:13:4f:4f:40:5b:49:54:be:aa:
                    c3:8e:71:4a:51:97:e6:79:24:74:1f:82:23:45:8a:
                    f1:8e:4a:71:ac:d0:89:26:d5:1e:13:14:11:58:35:
                    d1:92:fa:67:65:66:4a:78:0b:9c:cc:9b:fd:aa:19:
                    d0:97:71:b7:e3:84:7a:cb:64:0b:ca:16:b6:90:51:
                    74:08:39:00:ce:dc:aa:ff:ca:50:88:64:50:bd:94:
                    92:fa:15:8c:78:1b:bf:83:d8:12:59:a1:45:0f:f5:
                    53:4a:a2:f1:9f:24:cc:f4:d1:11:2e:3e:64:f7:d5:
                    1e:5e:94:86:b0:f7:13:fb:d0:e7:2e:f9:e4:f8:54:
                    a0:db
                Exponent: 65537 (0x10001)
        X509v3 extensions:
            X509v3 Basic Constraints: 
                CA:FALSE
            Netscape Cert Type: 
                SSL Client, S/MIME
            Netscape Comment: 
                OpenSSL Generated Client Certificate
            X509v3 Subject Key Identifier: 
                C6:BC:EC:DB:4A:3F:86:B6:B1:71:E7:AA:AF:11:1A:4C:01:60:A7:C4
            X509v3 Authority Key Identifier: 
                keyid:8D:75:7D:7C:E1:58:AC:0E:06:0B:3A:25:B7:D9:70:ED:8B:23:C1:9B

            X509v3 Key Usage: critical
                Digital Signature, Non Repudiation, Key Encipherment
            X509v3 Extended Key Usage: 
                TLS Web Client Authentication, E-mail Protection
    Signature Algorithm: sha256WithRSAEncryption
         77:b0:03:99:9b:01:24:b0:03:31:12:0b:92:4e:ad:1e:f6:b7:
         05:61:9f:28:56:68:23:52:90:64:59:bb:a8:5d:d2:14:f9:3b:
         eb:b9:11:78:e3:10:ec:98:1f:7d:3c:50:34:2a:e1:02:d1:ea:
         99:35:31:f4:27:39:c2:ae:fe:40:b8:88:26:53:59:e7:56:5c:
         ba:2c:f0:eb:25:ce:67:22:de:05:fc:38:1b:cd:9d:4e:aa:a6:
         b8:70:8c:f8:70:14:2a:e0:f4:e1:40:f2:de:78:82:a9:7a:a9:
         65:bd:9a:de:c0:dc:aa:94:76:d2:c9:9f:c9:76:fd:b0:6e:9b:
         01:0a:9a:48:d7:ff:e5:68:d6:4c:52:f0:8d:90:c2:6b:56:d6:
         24:64:50:28:a7:d0:df:bc:30:fa:b6:b6:c2:53:a7:60:13:d4:
         47:46:fb:99:e5:0b:dd:2f:df:7a:6b:af:f4:f7:4b:84:4c:23:
         25:81:cf:5c:b4:1c:7a:fd:81:b7:56:1e:0d:0f:7a:20:13:88:
         4f:4c:27:fd:06:17:3a:9f:ac:ac:f8:47:6c:72:61:22:3b:3a:
         4e:7a:56:e5:2a:6f:c7:b7:4b:2f:5e:67:0b:26:33:06:a1:57:
         23:02:0c:63:60:07:64:66:7a:d5:1e:2d:2c:bf:ac:6e:33:4f:
         17:b5:ee:24:2c:78:2d:fa:d1:58:66:16:ab:96:f6:6c:d7:28:
         75:32:6e:22:25:a5:2a:91:9b:24:0a:db:d3:23:57:ef:ec:7d:
         ce:3a:0c:e5:24:c3:80:b6:95:8d:6f:1b:49:07:4c:81:66:f9:
         0b:1f:db:11:a8:d7:32:ab:1d:37:20:13:dc:24:d4:da:ec:32:
         e3:7f:c9:70:ad:48:a7:d3:fe:b8:22:b5:6a:36:13:15:c0:be:
         34:b6:0e:60:dc:f9:de:48:00:1a:e3:11:2c:43:8e:ab:8a:04:
         2f:bf:07:74:2e:28:87:39:52:c4:6d:57:3f:6e:07:89:5e:56:
         24:d9:17:e0:44:d9:0d:74:55:13:8e:05:5c:e9:27:9a:96:a5:
         5d:b3:22:40:96:10:cf:a1:2f:4c:9e:88:02:cd:70:69:ac:70:
         f9:7d:59:9b:20:6d:20:10:2c:96:6e:c9:e7:64:d3:3f:12:13:
         da:34:a0:b7:6a:c4:35:58:13:c6:f0:53:0d:3a:88:a6:be:d5:
         d3:98:10:48:7f:35:88:ab:bd:23:92:fd:a7:cd:68:4c:e6:fc:
         a5:3b:5c:16:f0:a3:7c:83:53:3c:d8:97:08:43:db:5b:dc:b6:
         df:33:80:58:ae:60:4c:f2:59:c4:40:a3:20:60:4a:a0:de:07:
         a7:ae:b6:60:88:d8:1a:9d
-----BEGIN CERTIFICATE-----
MIIFTzCCAzegAwIBAgICEAMwDQYJKoZIhvcNAQELBQAwgYIxCzAJBgNVBAYTAkNa
MRowGAYDVQQIDBFKaWhvbW9yYXZza3kga3JhajEjMCEGA1UECgwaT3BlblN0YWNr
IENvbW1vbiBMaWJyYXJpZXMxFDASBgNVBAsMC0VuZ2luZWVyaW5nMRwwGgYDVQQD
DBNJbnRlcm1lZGlhdGUgQ0EgMDAzMB4XDTE4MDgxNDE2MTYxNVoXDTE4MDkwNDE2
MTYxNVowgYkxCzAJBgNVBAYTAkNaMRowGAYDVQQIDBFKaWhvbW9yYXZza3kga3Jh
ajENMAsGA1UEBwwEQnJubzEjMCEGA1UECgwaT3BlblN0YWNrIENvbW1vbiBMaWJy
YXJpZXMxFDASBgNVBAsMC0VuZ2luZWVyaW5nMRQwEgYDVQQDDAtOb2RlIDAwMzAw
NDCCASIwDQYJKoZIhvcNAQEBBQADggEPADCCAQoCggEBAMIpu6aSZJEyqk09cbou
iJ5X2pJGE710y+Hq1BNekzLLg8JTk1k4auHk/lQAdyZBqWyarBHddH7nUGEn1hYx
PzIfqlY7DLtvfyL0E1hjzniSb++bs17INGM8HZC5iitePbzvook8YnzfCxo69Tkc
QCJG07rbiUTevzzv0ACBE09PQFtJVL6qw45xSlGX5nkkdB+CI0WK8Y5KcazQiSbV
HhMUEVg10ZL6Z2VmSngLnMyb/aoZ0Jdxt+OEestkC8oWtpBRdAg5AM7cqv/KUIhk
UL2UkvoVjHgbv4PYElmhRQ/1U0qi8Z8kzPTRES4+ZPfVHl6UhrD3E/vQ5y755PhU
oNsCAwEAAaOBxTCBwjAJBgNVHRMEAjAAMBEGCWCGSAGG+EIBAQQEAwIFoDAzBglg
hkgBhvhCAQ0EJhYkT3BlblNTTCBHZW5lcmF0ZWQgQ2xpZW50IENlcnRpZmljYXRl
MB0GA1UdDgQWBBTGvOzbSj+GtrFx56qvERpMAWCnxDAfBgNVHSMEGDAWgBSNdX18
4VisDgYLOiW32XDtiyPBmzAOBgNVHQ8BAf8EBAMCBeAwHQYDVR0lBBYwFAYIKwYB
BQUHAwIGCCsGAQUFBwMEMA0GCSqGSIb3DQEBCwUAA4ICAQB3sAOZmwEksAMxEguS
Tq0e9rcFYZ8oVmgjUpBkWbuoXdIU+TvruRF44xDsmB99PFA0KuEC0eqZNTH0JznC
rv5AuIgmU1nnVly6LPDrJc5nIt4F/DgbzZ1Oqqa4cIz4cBQq4PThQPLeeIKpeqll
vZrewNyqlHbSyZ/Jdv2wbpsBCppI1//laNZMUvCNkMJrVtYkZFAop9DfvDD6trbC
U6dgE9RHRvuZ5QvdL996a6/090uETCMlgc9ctBx6/YG3Vh4ND3ogE4hPTCf9Bhc6
n6ys+EdscmEiOzpOelblKm/Ht0svXmcLJjMGoVcjAgxjYAdkZnrVHi0sv6xuM08X
te4kLHgt+tFYZharlvZs1yh1Mm4iJaUqkZskCtvTI1fv7H3OOgzlJMOAtpWNbxtJ
B0yBZvkLH9sRqNcyqx03IBPcJNTa7DLjf8lwrUin0/64IrVqNhMVwL40tg5g3Pne
SAAa4xEsQ46rigQvvwd0LiiHOVLEbVc/bgeJXlYk2RfgRNkNdFUTjgVc6SealqVd
syJAlhDPoS9MnogCzXBprHD5fVmbIG0gECyWbsnnZNM/EhPaNKC3asQ1WBPG8FMN
OoimvtXTmBBIfzWIq70jkv2nzWhM5vylO1wW8KN8g1M82JcIQ9tb3LbfM4BYrmBM
8lnEQKMgYEqg3genrrZgiNganQ==
-----END CERTIFICATE-----
