Certificate:
    Data:
        Version: 3 (0x2)
        Serial Number: 4096 (0x1000)
    Signature Algorithm: sha256WithRSAEncryption
        Issuer: C=CZ, ST=Jihomoravsky kraj, O=OpenStack Common Libraries, OU=Engineering, CN=Intermediate CA 003
        Validity
            Not Before: Aug 14 16:16:14 2018 GMT
            Not After : Sep  4 16:16:14 2018 GMT
        Subject: C=CZ, ST=Jihomoravsky kraj, L=Brno, O=OpenStack Common Libraries, OU=Engineering, CN=Node 003001
        Subject Public Key Info:
            Public Key Algorithm: rsaEncryption
                Public-Key: (2048 bit)
                Modulus:
                    00:f3:e3:7b:f0:b4:71:5f:fd:16:3d:8a:dc:44:0b:
                    be:d9:20:53:0b:cf:93:86:a5:2e:03:de:20:9d:af:
                    ff:15:04:4e:7e:78:6a:ff:5b:ed:22:e3:be:91:97:
                    ee:de:a1:8e:36:1b:4a:9c:ca:81:db:1f:42:f1:dc:
                    d2:ff:9b:b7:23:35:6a:df:3f:74:6c:2c:68:be:18:
                    bf:e4:56:91:20:a9:5e:04:20:11:35:f9:5a:8c:0f:
                    4c:5c:7b:fc:a4:ba:72:3a:27:15:d7:df:07:10:3e:
                    c3:03:b1:13:82:84:c3:4f:68:a9:bd:b2:c1:b5:b6:
                    62:76:7c:2a:0b:c3:31:68:62:1f:ca:95:48:9b:13:
                    7e:32:2e:5a:c8:d7:be:db:7f:4c:b9:6d:5b:25:83:
                    5f:bd:23:c9:6c:0c:db:cb:7e:03:56:03:ad:5b:ef:
                    33:9e:7b:2d:93:e1:41:9d:5d:e4:08:21:32:2c:dd:
                    d2:ea:92:a7:a1:60:71:d5:3e:1d:14:e1:79:07:ab:
                    72:57:06:c1:e3:88:f9:9a:0f:00:c7:cf:48:d7:b0:
                    3c:75:8f:e6:b0:5c:d1:aa:31:d6:3b:64:cc:6e:bb:
                    6e:3a:c3:2c:e6:88:3f:12:bb:83:25:f4:b1:cf:e4:
                    fd:7a:2b:87:7b:89:33:06:06:94:81:48:02:ea:a9:
                    ab:e1
                Exponent: 65537 (0x10001)
        X509v3 extensions:
            X509v3 Basic Constraints: 
                CA:FALSE
            Netscape Cert Type: 
                SSL Client, S/MIME
            Netscape Comment: 
                OpenSSL Generated Client Certificate
            X509v3 Subject Key Identifier: 
                04:F8:D8:A1:F0:F3:92:CB:68:F7:B2:87:15:07:7D:41:81:EB:4B:4F
            X509v3 Authority Key Identifier: 
                keyid:8D:75:7D:7C:E1:58:AC:0E:06:0B:3A:25:B7:D9:70:ED:8B:23:C1:9B

            X509v3 Key Usage: critical
                Digital Signature, Non Repudiation, Key Encipherment
            X509v3 Extended Key Usage: 
                TLS Web Client Authentication, E-mail Protection
    Signature Algorithm: sha256WithRSAEncryption
         19:4b:c2:af:65:43:94:01:1f:53:9b:7f:d2:89:84:ae:32:78:
         26:98:32:e6:81:fe:6d:db:ac:4a:aa:d4:6d:bd:aa:bd:2d:37:
         44:ad:e2:cb:fa:96:a4:77:21:bc:e6:d0:ef:94:34:00:48:8c:
         22:97:00:7f:31:ee:4c:29:6b:f5:df:6f:1a:ce:b7:9b:6b:cd:
         31:c9:9d:e8:ce:7a:87:70:6b:31:5c:23:d9:94:76:d7:ee:4c:
         11:1d:35:57:2f:42:51:f2:0d:b2:7f:01:b8:3e:09:19:be:83:
         23:2c:91:4e:a3:09:df:25:ea:21:2f:ad:83:16:fd:3f:57:fa:
         cf:77:66:95:71:8c:ba:b5:ce:86:3a:10:39:a7:06:2c:a2:67:
         79:ba:78:c5:a1:84:69:46:a9:4c:d2:bb:ca:74:a6:21:96:f0:
         7e:5b:d1:d6:5e:55:8b:4e:a3:3f:f7:c0:f7:83:e3:d9:be:ad:
         42:4d:b0:0c:4e:3c:e9:ee:f3:38:ee:95:bd:f8:a6:59:a5:27:
         fb:36:52:55:90:f0:8a:7e:28:c5:6c:fa:e7:c4:c9:bd:99:ae:
         aa:30:0f:64:af:60:dc:99:df:7d:21:ef:34:76:b9:c8:e6:a0:
         4b:80:e1:14:6b:8a:af:25:7b:b1:e9:fe:de:3e:a1:e2:8b:4a:
         5c:de:c4:5f:32:d0:4b:df:ea:de:98:fe:93:ad:f6:60:84:a6:
         ea:bc:70:95:14:9e:63:f8:19:71:4b:31:ec:2f:79:fa:e9:c6:
         16:50:1e:9d:54:33:aa:62:0c:08:ad:9e:a6:0d:55:6d:d1:77:
         62:b7:f1:bf:1e:08:76:23:18:a5:eb:bb:19:97:30:2f:2f:71:
         45:4c:cf:81:d3:85:93:86:ba:8f:d9:8a:eb:32:dc:15:80:dc:
         bb:80:3a:c0:b2:49:63:df:bd:86:48:f5:ba:08:0f:9b:c4:7c:
         c7:0b:75:92:5e:0b:82:8d:23:42:0f:07:41:26:58:3f:31:c1:
         10:b8:86:fa:8d:89:14:c5:1b:16:58:b3:db:9c:43:6c:32:da:
         a3:74:61:b3:7c:aa:ce:83:66:9b:7e:f8:94:fa:9d:98:15:70:
         bf:aa:ea:58:69:36:f5:53:6e:1d:72:a4:68:1e:31:0b:7e:e2:
         cd:3a:8b:5b:78:9b:d2:b4:b0:cf:5c:3c:56:c6:10:ee:d7:7a:
         05:0f:a4:bb:bd:10:2d:1c:84:53:66:84:c5:80:12:68:12:f5:
         3f:15:d1:82:79:95:97:84:f0:59:a9:40:3b:8d:ab:02:f4:56:
         01:f8:3f:47:0e:fb:87:ac:1d:d1:ef:c7:6b:0d:ae:fd:a8:7a:
         55:53:30:47:67:1e:a7:0a
-----BEGIN CERTIFICATE-----
MIIFTzCCAzegAwIBAgICEAAwDQYJKoZIhvcNAQELBQAwgYIxCzAJBgNVBAYTAkNa
MRowGAYDVQQIDBFKaWhvbW9yYXZza3kga3JhajEjMCEGA1UECgwaT3BlblN0YWNr
IENvbW1vbiBMaWJyYXJpZXMxFDASBgNVBAsMC0VuZ2luZWVyaW5nMRwwGgYDVQQD
DBNJbnRlcm1lZGlhdGUgQ0EgMDAzMB4XDTE4MDgxNDE2MTYxNFoXDTE4MDkwNDE2
MTYxNFowgYkxCzAJBgNVBAYTAkNaMRowGAYDVQQIDBFKaWhvbW9yYXZza3kga3Jh
ajENMAsGA1UEBwwEQnJubzEjMCEGA1UECgwaT3BlblN0YWNrIENvbW1vbiBMaWJy
YXJpZXMxFDASBgNVBAsMC0VuZ2luZWVyaW5nMRQwEgYDVQQDDAtOb2RlIDAwMzAw
MTCCASIwDQYJKoZIhvcNAQEBBQADggEPADCCAQoCggEBAPPje/C0cV/9Fj2K3EQL
vtkgUwvPk4alLgPeIJ2v/xUETn54av9b7SLjvpGX7t6hjjYbSpzKgdsfQvHc0v+b
tyM1at8/dGwsaL4Yv+RWkSCpXgQgETX5WowPTFx7/KS6cjonFdffBxA+wwOxE4KE
w09oqb2ywbW2YnZ8KgvDMWhiH8qVSJsTfjIuWsjXvtt/TLltWyWDX70jyWwM28t+
A1YDrVvvM557LZPhQZ1d5AghMizd0uqSp6FgcdU+HRTheQerclcGweOI+ZoPAMfP
SNewPHWP5rBc0aox1jtkzG67bjrDLOaIPxK7gyX0sc/k/Xorh3uJMwYGlIFIAuqp
q+ECAwEAAaOBxTCBwjAJBgNVHRMEAjAAMBEGCWCGSAGG+EIBAQQEAwIFoDAzBglg
hkgBhvhCAQ0EJhYkT3BlblNTTCBHZW5lcmF0ZWQgQ2xpZW50IENlcnRpZmljYXRl
MB0GA1UdDgQWBBQE+Nih8POSy2j3socVB31BgetLTzAfBgNVHSMEGDAWgBSNdX18
4VisDgYLOiW32XDtiyPBmzAOBgNVHQ8BAf8EBAMCBeAwHQYDVR0lBBYwFAYIKwYB
BQUHAwIGCCsGAQUFBwMEMA0GCSqGSIb3DQEBCwUAA4ICAQAZS8KvZUOUAR9Tm3/S
iYSuMngmmDLmgf5t26xKqtRtvaq9LTdEreLL+pakdyG85tDvlDQASIwilwB/Me5M
KWv1328azreba80xyZ3oznqHcGsxXCPZlHbX7kwRHTVXL0JR8g2yfwG4PgkZvoMj
LJFOownfJeohL62DFv0/V/rPd2aVcYy6tc6GOhA5pwYsomd5unjFoYRpRqlM0rvK
dKYhlvB+W9HWXlWLTqM/98D3g+PZvq1CTbAMTjzp7vM47pW9+KZZpSf7NlJVkPCK
fijFbPrnxMm9ma6qMA9kr2Dcmd99Ie80drnI5qBLgOEUa4qvJXux6f7ePqHii0pc
3sRfMtBL3+remP6TrfZghKbqvHCVFJ5j+BlxSzHsL3n66cYWUB6dVDOqYgwIrZ6m
DVVt0Xdit/G/Hgh2Ixil67sZlzAvL3FFTM+B04WThrqP2YrrMtwVgNy7gDrAsklj
372GSPW6CA+bxHzHC3WSXguCjSNCDwdBJlg/McEQuIb6jYkUxRsWWLPbnENsMtqj
dGGzfKrOg2abfviU+p2YFXC/qupYaTb1U24dcqRoHjELfuLNOotbeJvStLDPXDxW
xhDu13oFD6S7vRAtHIRTZoTFgBJoEvU/FdGCeZWXhPBZqUA7jasC9FYB+D9HDvuH
rB3R78drDa79qHpVUzBHZx6nCg==
-----END CERTIFICATE-----
