Certificate:
    Data:
        Version: 3 (0x2)
        Serial Number: 4096 (0x1000)
    Signature Algorithm: sha256WithRSAEncryption
        Issuer: C=CZ, ST=Jihomoravsky kraj, L=Brno, O=OpenStack Common Libraries, OU=Engineering, CN=Root CA
        Validity
            Not Before: Aug 10 16:28:05 2018 GMT
            Not After : Aug  7 16:28:05 2028 GMT
        Subject: C=CZ, ST=Jihomoravsky kraj, O=OpenStack Common Libraries, OU=Engineering, CN=Intermediate CA 001
        Subject Public Key Info:
            Public Key Algorithm: rsaEncryption
                Public-Key: (2048 bit)
                Modulus:
                    00:d8:e5:45:fb:2e:31:11:da:9b:68:e5:6a:58:9a:
                    17:90:2a:d4:44:87:31:e5:e7:ff:5e:d5:b8:ac:5c:
                    22:c3:be:4a:89:4b:c1:be:1b:76:b5:ca:8d:07:4e:
                    7b:32:58:26:8f:48:35:d7:8b:9f:8e:db:e9:ab:1e:
                    46:23:9d:06:46:81:d0:e0:e5:07:17:1e:db:f4:37:
                    f4:fe:c9:da:bf:8d:c1:4d:72:08:a4:80:54:27:13:
                    58:88:f5:ed:56:25:d8:17:ec:cf:a1:1f:43:8a:93:
                    68:1f:c4:8b:47:a6:af:a8:2c:3a:54:54:34:c9:93:
                    7a:be:6d:1a:6b:85:a5:53:51:44:c3:1f:5a:97:5d:
                    a5:a1:6e:20:30:a7:84:18:be:49:29:1b:af:71:c6:
                    d8:b3:9f:71:e9:d0:7c:af:a8:bc:09:c9:93:b2:57:
                    7f:6e:c8:67:35:1e:8a:30:41:a6:30:67:81:51:86:
                    0c:91:ed:e5:7d:cf:c9:d9:f2:2f:dd:5f:d6:9f:e4:
                    11:b3:c3:15:df:7a:9e:5b:2f:a7:34:c5:15:51:90:
                    0e:f4:04:e7:af:ac:3d:70:41:8e:a1:73:b4:1f:03:
                    7b:45:c1:0d:3d:14:e8:30:ba:46:d3:b5:d4:4d:2d:
                    50:60:f3:9d:19:d8:9b:ad:b0:7a:0e:05:7d:59:56:
                    1a:4f
                Exponent: 65537 (0x10001)
        X509v3 extensions:
            X509v3 Subject Key Identifier: 
                A2:59:AB:45:0D:FE:EA:9D:4E:75:93:DB:A4:F5:0A:34:DE:EC:00:4E
            X509v3 Authority Key Identifier: 
                keyid:FF:EE:5D:6F:A5:B1:66:52:28:CC:10:71:3F:41:50:11:96:97:E7:F9

            X509v3 Basic Constraints: critical
                CA:TRUE, pathlen:0
            X509v3 Key Usage: critical
                Digital Signature, Certificate Sign, CRL Sign
    Signature Algorithm: sha256WithRSAEncryption
         73:9f:47:f8:bf:53:20:19:d4:3b:a0:4c:ee:8c:53:ec:54:0a:
         a7:f7:bc:fb:75:8a:ae:10:c5:6e:fc:de:a0:a8:ca:ce:41:d1:
         a6:f0:67:15:f6:78:a0:e4:b0:d0:0b:4b:24:a7:7d:fc:37:3d:
         22:b2:1c:d4:80:84:be:be:cc:78:27:d1:3d:fe:47:e2:ef:c5:
         38:98:7d:2b:6c:40:37:8e:5e:a5:81:2b:b1:76:28:a7:ea:f9:
         0b:b3:2e:79:97:44:58:fa:32:de:e8:ad:e4:b7:56:12:0b:1a:
         5b:07:0f:fd:69:73:ad:ea:21:f0:23:f4:40:0d:76:b2:4a:b7:
         aa:11:75:d4:ac:d2:f6:d1:ed:3d:f2:b6:39:06:c4:ec:d5:44:
         d3:13:50:4b:6f:df:f7:82:61:3e:3e:9c:29:d4:3d:98:2f:4e:
         08:0e:7e:73:10:68:e5:2e:8e:4e:a0:7b:be:1f:f3:1c:b9:aa:
         8d:99:ff:9b:8d:89:92:05:fe:dd:9b:c6:fc:50:70:91:71:29:
         cc:dc:48:86:4f:b2:35:a3:b1:7b:09:45:24:c6:5a:21:61:48:
         12:5d:77:dd:51:2c:44:b9:0f:f8:85:93:63:80:79:1c:1d:43:
         6e:f0:94:d4:04:bd:d1:c9:b1:b3:2a:14:1b:7c:a7:9e:d7:38:
         a3:cd:82:5b
-----BEGIN CERTIFICATE-----
MIID6zCCAtOgAwIBAgICEAAwDQYJKoZIhvcNAQELBQAwgYUxCzAJBgNVBAYTAkNa
MRowGAYDVQQIDBFKaWhvbW9yYXZza3kga3JhajENMAsGA1UEBwwEQnJubzEjMCEG
A1UECgwaT3BlblN0YWNrIENvbW1vbiBMaWJyYXJpZXMxFDASBgNVBAsMC0VuZ2lu
ZWVyaW5nMRAwDgYDVQQDDAdSb290IENBMB4XDTE4MDgxMDE2MjgwNVoXDTI4MDgw
NzE2MjgwNVowgYIxCzAJBgNVBAYTAkNaMRowGAYDVQQIDBFKaWhvbW9yYXZza3kg
a3JhajEjMCEGA1UECgwaT3BlblN0YWNrIENvbW1vbiBMaWJyYXJpZXMxFDASBgNV
BAsMC0VuZ2luZWVyaW5nMRwwGgYDVQQDDBNJbnRlcm1lZGlhdGUgQ0EgMDAxMIIB
IjANBgkqhkiG9w0BAQEFAAOCAQ8AMIIBCgKCAQEA2OVF+y4xEdqbaOVqWJoXkCrU
RIcx5ef/XtW4rFwiw75KiUvBvht2tcqNB057Mlgmj0g114ufjtvpqx5GI50GRoHQ
4OUHFx7b9Df0/snav43BTXIIpIBUJxNYiPXtViXYF+zPoR9DipNoH8SLR6avqCw6
VFQ0yZN6vm0aa4WlU1FEwx9al12loW4gMKeEGL5JKRuvccbYs59x6dB8r6i8CcmT
sld/bshnNR6KMEGmMGeBUYYMke3lfc/J2fIv3V/Wn+QRs8MV33qeWy+nNMUVUZAO
9ATnr6w9cEGOoXO0HwN7RcENPRToMLpG07XUTS1QYPOdGdibrbB6DgV9WVYaTwID
AQABo2YwZDAdBgNVHQ4EFgQUolmrRQ3+6p1OdZPbpPUKNN7sAE4wHwYDVR0jBBgw
FoAU/+5db6WxZlIozBBxP0FQEZaX5/kwEgYDVR0TAQH/BAgwBgEB/wIBADAOBgNV
HQ8BAf8EBAMCAYYwDQYJKoZIhvcNAQELBQADggEBAHOfR/i/UyAZ1DugTO6MU+xU
Cqf3vPt1iq4QxW783qCoys5B0abwZxX2eKDksNALSySnffw3PSKyHNSAhL6+zHgn
0T3+R+LvxTiYfStsQDeOXqWBK7F2KKfq+QuzLnmXRFj6Mt7oreS3VhILGlsHD/1p
c63qIfAj9EANdrJKt6oRddSs0vbR7T3ytjkGxOzVRNMTUEtv3/eCYT4+nCnUPZgv
TggOfnMQaOUujk6ge74f8xy5qo2Z/5uNiZIF/t2bxvxQcJFxKczcSIZPsjWjsXsJ
RSTGWiFhSBJdd91RLES5D/iFk2OAeRwdQ27wlNQEvdHJsbMqFBt8p57XOKPNgls=
-----END CERTIFICATE-----
