Certificate:
    Data:
        Version: 3 (0x2)
        Serial Number: 4098 (0x1002)
    Signature Algorithm: sha256WithRSAEncryption
        Issuer: C=CZ, ST=Jihomoravsky kraj, O=OpenStack Common Libraries, OU=Engineering, CN=Intermediate CA 001
        Validity
            Not Before: Aug 10 16:28:13 2018 GMT
            Not After : Aug 31 16:28:13 2018 GMT
        Subject: C=CZ, ST=Jihomoravsky kraj, L=Brno, O=OpenStack Common Libraries, OU=Engineering, CN=Node 001003
        Subject Public Key Info:
            Public Key Algorithm: rsaEncryption
                Public-Key: (2048 bit)
                Modulus:
                    00:cb:75:2f:20:36:5d:67:9c:15:d9:90:cc:fa:08:
                    25:11:48:f1:7c:ef:ae:45:ca:8c:47:09:a5:ff:58:
                    82:cf:69:d5:9e:95:18:14:96:45:f2:3a:b7:21:53:
                    20:7b:19:ee:8b:6d:65:c5:fa:88:26:ec:9e:74:b4:
                    af:50:07:7a:c4:b1:5a:0e:e5:e9:92:b2:68:b5:ab:
                    a5:d0:04:6c:78:81:37:21:da:20:79:b5:51:ce:80:
                    65:61:f6:ee:4a:9e:7f:fc:a5:ff:8f:5c:bb:db:98:
                    0e:01:0c:90:3d:d6:79:97:8d:1b:0b:ac:9c:52:7e:
                    f0:cf:d0:94:58:e8:14:56:20:d5:06:cd:ed:60:d2:
                    ec:53:0c:d5:60:20:1f:94:64:aa:90:33:07:ac:8f:
                    45:a3:c4:93:fd:74:d4:91:3e:4e:2d:e2:d9:3b:8e:
                    48:a4:26:2b:36:2a:e7:14:c8:2d:57:02:ce:5b:b8:
                    9d:94:6a:d5:d9:8c:63:6f:a0:85:21:90:78:dc:fa:
                    c9:e5:78:4b:60:07:ac:e1:08:b7:51:b1:30:1c:e5:
                    fd:0d:a1:c7:c5:38:50:56:1c:97:2c:d7:fe:4a:d2:
                    07:bd:85:67:15:57:c4:6d:82:14:1f:c0:06:0d:c7:
                    fd:b4:35:ce:9b:3e:36:5f:36:c0:b0:35:0b:a9:f8:
                    54:8d
                Exponent: 65537 (0x10001)
        X509v3 extensions:
            X509v3 Basic Constraints: 
                CA:FALSE
            Netscape Cert Type: 
                SSL Client, S/MIME
            Netscape Comment: 
                OpenSSL Generated Client Certificate
            X509v3 Subject Key Identifier: 
                73:AB:46:1D:4D:3B:C0:23:A9:4B:3F:F8:53:E2:95:FB:C1:EC:51:8C
            X509v3 Authority Key Identifier: 
                keyid:A2:59:AB:45:0D:FE:EA:9D:4E:75:93:DB:A4:F5:0A:34:DE:EC:00:4E

            X509v3 Key Usage: critical
                Digital Signature, Non Repudiation, Key Encipherment
            X509v3 Extended Key Usage: 
                TLS Web Client Authentication, E-mail Protection
    Signature Algorithm: sha256WithRSAEncryption
         08:fe:e2:b0:f9:6e:df:75:7a:cd:4a:cc:d4:a8:08:1c:6f:40:
         b4:e7:51:cd:93:15:fb:90:c9:8f:ec:b2:b0:8c:bb:e9:da:b5:
         f6:3f:df:8d:a4:48:c5:89:a5:79:e3:f0:2c:27:a8:64:90:65:
         57:d6:e2:ce:da:eb:8f:10:06:5f:11:4b:8c:a9:38:88:74:55:
         0b:a2:9f:61:51:78:82:ca:2a:2a:9b:ed:74:3e:43:3b:88:c9:
         21:46:14:c8:a8:ed:2b:26:1b:06:59:3e:5d:f3:0b:f9:7b:5e:
         e6:fc:aa:77:ea:b9:fe:f4:64:2a:f5:e5:7e:58:80:53:e5:2b:
         6a:95:6f:bb:41:8e:ca:03:6e:f4:3b:fd:36:98:28:8d:c4:3d:
         f3:6f:66:b1:55:bd:cb:12:25:ca:4c:03:db:d6:4e:aa:47:b2:
         4b:fc:2d:d2:41:1f:db:fa:6d:4d:7f:2a:85:a6:6e:f4:e2:b5:
         b0:f0:4b:b0:95:d2:e0:d3:02:a7:b3:f1:8a:2e:ff:b8:69:b0:
         6c:25:66:ec:0f:00:5e:c2:b9:a2:31:06:99:9b:51:22:cc:71:
         86:eb:1c:7e:0d:ce:c9:6b:eb:df:0a:61:a5:c1:c3:aa:3c:d0:
         31:86:21:a4:08:44:f6:75:61:a3:17:84:8b:13:f3:3b:9a:04:
         30:08:6f:b1
-----BEGIN CERTIFICATE-----
MIIETzCCAzegAwIBAgICEAIwDQYJKoZIhvcNAQELBQAwgYIxCzAJBgNVBAYTAkNa
MRowGAYDVQQIDBFKaWhvbW9yYXZza3kga3JhajEjMCEGA1UECgwaT3BlblN0YWNr
IENvbW1vbiBMaWJyYXJpZXMxFDASBgNVBAsMC0VuZ2luZWVyaW5nMRwwGgYDVQQD
DBNJbnRlcm1lZGlhdGUgQ0EgMDAxMB4XDTE4MDgxMDE2MjgxM1oXDTE4MDgzMTE2
MjgxM1owgYkxCzAJBgNVBAYTAkNaMRowGAYDVQQIDBFKaWhvbW9yYXZza3kga3Jh
ajENMAsGA1UEBwwEQnJubzEjMCEGA1UECgwaT3BlblN0YWNrIENvbW1vbiBMaWJy
YXJpZXMxFDASBgNVBAsMC0VuZ2luZWVyaW5nMRQwEgYDVQQDDAtOb2RlIDAwMTAw
MzCCASIwDQYJKoZIhvcNAQEBBQADggEPADCCAQoCggEBAMt1LyA2XWecFdmQzPoI
JRFI8XzvrkXKjEcJpf9Ygs9p1Z6VGBSWRfI6tyFTIHsZ7ottZcX6iCbsnnS0r1AH
esSxWg7l6ZKyaLWrpdAEbHiBNyHaIHm1Uc6AZWH27kqef/yl/49cu9uYDgEMkD3W
eZeNGwusnFJ+8M/QlFjoFFYg1QbN7WDS7FMM1WAgH5RkqpAzB6yPRaPEk/101JE+
Ti3i2TuOSKQmKzYq5xTILVcCzlu4nZRq1dmMY2+ghSGQeNz6yeV4S2AHrOEIt1Gx
MBzl/Q2hx8U4UFYclyzX/krSB72FZxVXxG2CFB/ABg3H/bQ1zps+Nl82wLA1C6n4
VI0CAwEAAaOBxTCBwjAJBgNVHRMEAjAAMBEGCWCGSAGG+EIBAQQEAwIFoDAzBglg
hkgBhvhCAQ0EJhYkT3BlblNTTCBHZW5lcmF0ZWQgQ2xpZW50IENlcnRpZmljYXRl
MB0GA1UdDgQWBBRzq0YdTTvAI6lLP/hT4pX7wexRjDAfBgNVHSMEGDAWgBSiWatF
Df7qnU51k9uk9Qo03uwATjAOBgNVHQ8BAf8EBAMCBeAwHQYDVR0lBBYwFAYIKwYB
BQUHAwIGCCsGAQUFBwMEMA0GCSqGSIb3DQEBCwUAA4IBAQAI/uKw+W7fdXrNSszU
qAgcb0C051HNkxX7kMmP7LKwjLvp2rX2P9+NpEjFiaV54/AsJ6hkkGVX1uLO2uuP
EAZfEUuMqTiIdFULop9hUXiCyioqm+10PkM7iMkhRhTIqO0rJhsGWT5d8wv5e17m
/Kp36rn+9GQq9eV+WIBT5StqlW+7QY7KA270O/02mCiNxD3zb2axVb3LEiXKTAPb
1k6qR7JL/C3SQR/b+m1NfyqFpm704rWw8EuwldLg0wKns/GKLv+4abBsJWbsDwBe
wrmiMQaZm1EizHGG6xx+Dc7Ja+vfCmGlwcOqPNAxhiGkCET2dWGjF4SLE/M7mgQw
CG+x
-----END CERTIFICATE-----
