Certificate:
    Data:
        Version: 3 (0x2)
        Serial Number: 4096 (0x1000)
    Signature Algorithm: sha256WithRSAEncryption
        Issuer: C=CZ, ST=Jihomoravsky kraj, O=OpenStack Common Libraries, OU=Engineering, CN=Intermediate CA 001
        Validity
            Not Before: Aug 10 16:28:11 2018 GMT
            Not After : Aug 31 16:28:11 2018 GMT
        Subject: C=CZ, ST=Jihomoravsky kraj, L=Brno, O=OpenStack Common Libraries, OU=Engineering, CN=Node 001001
        Subject Public Key Info:
            Public Key Algorithm: rsaEncryption
                Public-Key: (2048 bit)
                Modulus:
                    00:c4:3a:a0:ca:df:d2:34:26:f0:09:18:6f:53:bd:
                    66:ed:0f:c2:67:d8:42:dd:0c:ac:87:e6:e3:07:aa:
                    ee:b3:b8:b9:fa:0c:e1:18:5e:89:c2:55:b6:d7:c9:
                    b8:ef:fd:88:3e:4a:ec:ee:e3:fe:c7:b3:8f:d7:84:
                    e1:10:be:81:d9:fa:f5:d0:d3:fc:75:60:d9:ca:93:
                    86:bf:d6:67:e6:c5:b7:03:bb:43:69:d6:b6:31:a7:
                    fd:fc:eb:65:b4:6e:23:91:55:ff:0d:aa:29:8b:e9:
                    2d:ae:1d:22:07:c1:7d:58:5f:6a:02:1f:7a:78:b1:
                    63:66:e5:a7:81:6d:92:e8:da:50:64:d4:ab:82:fc:
                    81:4f:75:e4:61:cc:99:3c:29:82:d2:0a:2d:b9:c6:
                    6c:d3:49:fc:06:f2:fb:66:25:cc:60:69:49:24:d8:
                    9e:1b:cd:1d:f3:06:ae:d1:50:dc:2c:1f:b2:1b:2a:
                    e8:4d:f1:44:cc:bd:08:64:7c:fa:f5:b7:42:b5:71:
                    0d:6d:9d:64:f2:49:60:8b:47:ee:de:c4:f5:92:e3:
                    c2:64:54:bf:6c:78:ac:d6:23:20:c8:b3:94:79:18:
                    8c:e3:b4:6f:f0:88:8f:74:a2:b9:51:f7:75:c1:d3:
                    66:b2:0e:ed:52:db:26:39:04:db:60:a9:81:7e:c6:
                    87:b5
                Exponent: 65537 (0x10001)
        X509v3 extensions:
            X509v3 Basic Constraints: 
                CA:FALSE
            Netscape Cert Type: 
                SSL Client, S/MIME
            Netscape Comment: 
                OpenSSL Generated Client Certificate
            X509v3 Subject Key Identifier: 
                8B:F5:F3:EE:B2:B7:27:E0:98:DB:36:B0:E5:68:24:60:E1:76:39:11
            X509v3 Authority Key Identifier: 
                keyid:A2:59:AB:45:0D:FE:EA:9D:4E:75:93:DB:A4:F5:0A:34:DE:EC:00:4E

            X509v3 Key Usage: critical
                Digital Signature, Non Repudiation, Key Encipherment
            X509v3 Extended Key Usage: 
                TLS Web Client Authentication, E-mail Protection
    Signature Algorithm: sha256WithRSAEncryption
         4e:c5:9e:ee:ed:d6:d1:6c:d1:91:cf:8b:a5:22:52:5f:e2:82:
         f9:7c:f3:98:38:17:46:97:9a:0e:c6:3a:9e:e1:af:20:e1:c2:
         9d:c9:bf:f7:55:9d:43:4e:9c:c7:5f:30:d5:4a:b4:cd:df:e6:
         0f:ad:98:04:24:0d:7f:b8:0d:07:2e:87:51:d4:96:c6:4c:23:
         3d:a5:0a:6b:3a:e4:a1:11:83:0e:6c:57:33:3b:64:e3:00:13:
         f9:2e:12:48:b2:c5:4c:a6:ce:a6:80:36:85:27:d2:ac:a2:ba:
         d7:3c:a3:a6:eb:f4:0a:ed:b2:f3:f4:9d:cf:ea:1c:43:14:8d:
         4b:cb:e6:d2:c7:9d:50:5c:c5:65:d4:ea:8a:6b:3b:d1:75:46:
         d5:dc:db:d4:ed:d5:28:83:a4:9c:99:d4:ea:5d:d9:c7:be:40:
         ca:1e:65:e0:b7:3b:49:bf:d8:e2:c0:2b:d6:7c:4f:80:6e:d0:
         e4:0c:b9:57:4a:55:ef:b3:58:0d:5b:ce:33:69:e0:34:47:93:
         5e:14:60:c0:be:0b:39:66:8b:c7:a3:c2:1d:72:94:2f:e6:3b:
         af:06:b7:92:80:dd:5e:14:9b:5d:39:fa:ea:9c:8f:2c:0a:f4:
         a8:f9:46:64:ce:bb:49:d7:c5:b9:51:06:fc:78:30:d7:4c:df:
         09:b1:9f:8a
-----BEGIN CERTIFICATE-----
MIIETzCCAzegAwIBAgICEAAwDQYJKoZIhvcNAQELBQAwgYIxCzAJBgNVBAYTAkNa
MRowGAYDVQQIDBFKaWhvbW9yYXZza3kga3JhajEjMCEGA1UECgwaT3BlblN0YWNr
IENvbW1vbiBMaWJyYXJpZXMxFDASBgNVBAsMC0VuZ2luZWVyaW5nMRwwGgYDVQQD
DBNJbnRlcm1lZGlhdGUgQ0EgMDAxMB4XDTE4MDgxMDE2MjgxMVoXDTE4MDgzMTE2
MjgxMVowgYkxCzAJBgNVBAYTAkNaMRowGAYDVQQIDBFKaWhvbW9yYXZza3kga3Jh
ajENMAsGA1UEBwwEQnJubzEjMCEGA1UECgwaT3BlblN0YWNrIENvbW1vbiBMaWJy
YXJpZXMxFDASBgNVBAsMC0VuZ2luZWVyaW5nMRQwEgYDVQQDDAtOb2RlIDAwMTAw
MTCCASIwDQYJKoZIhvcNAQEBBQADggEPADCCAQoCggEBAMQ6oMrf0jQm8AkYb1O9
Zu0PwmfYQt0MrIfm4weq7rO4ufoM4RheicJVttfJuO/9iD5K7O7j/sezj9eE4RC+
gdn69dDT/HVg2cqThr/WZ+bFtwO7Q2nWtjGn/fzrZbRuI5FV/w2qKYvpLa4dIgfB
fVhfagIfenixY2blp4FtkujaUGTUq4L8gU915GHMmTwpgtIKLbnGbNNJ/Aby+2Yl
zGBpSSTYnhvNHfMGrtFQ3Cwfshsq6E3xRMy9CGR8+vW3QrVxDW2dZPJJYItH7t7E
9ZLjwmRUv2x4rNYjIMizlHkYjOO0b/CIj3SiuVH3dcHTZrIO7VLbJjkE22CpgX7G
h7UCAwEAAaOBxTCBwjAJBgNVHRMEAjAAMBEGCWCGSAGG+EIBAQQEAwIFoDAzBglg
hkgBhvhCAQ0EJhYkT3BlblNTTCBHZW5lcmF0ZWQgQ2xpZW50IENlcnRpZmljYXRl
MB0GA1UdDgQWBBSL9fPusrcn4JjbNrDlaCRg4XY5ETAfBgNVHSMEGDAWgBSiWatF
Df7qnU51k9uk9Qo03uwATjAOBgNVHQ8BAf8EBAMCBeAwHQYDVR0lBBYwFAYIKwYB
BQUHAwIGCCsGAQUFBwMEMA0GCSqGSIb3DQEBCwUAA4IBAQBOxZ7u7dbRbNGRz4ul
IlJf4oL5fPOYOBdGl5oOxjqe4a8g4cKdyb/3VZ1DTpzHXzDVSrTN3+YPrZgEJA1/
uA0HLodR1JbGTCM9pQprOuShEYMObFczO2TjABP5LhJIssVMps6mgDaFJ9KsorrX
PKOm6/QK7bLz9J3P6hxDFI1Ly+bSx51QXMVl1OqKazvRdUbV3NvU7dUog6ScmdTq
XdnHvkDKHmXgtztJv9jiwCvWfE+AbtDkDLlXSlXvs1gNW84zaeA0R5NeFGDAvgs5
ZovHo8IdcpQv5juvBreSgN1eFJtdOfrqnI8sCvSo+UZkzrtJ18W5UQb8eDDXTN8J
sZ+K
-----END CERTIFICATE-----
