Certificate:
    Data:
        Version: 3 (0x2)
        Serial Number: 4099 (0x1003)
    Signature Algorithm: sha256WithRSAEncryption
        Issuer: C=CZ, ST=Jihomoravsky kraj, O=OpenStack Common Libraries, OU=Engineering, CN=Intermediate CA 001
        Validity
            Not Before: Aug 14 16:16:13 2018 GMT
            Not After : Sep  4 16:16:13 2018 GMT
        Subject: C=CZ, ST=Jihomoravsky kraj, L=Brno, O=OpenStack Common Libraries, OU=Engineering, CN=Node 001004
        Subject Public Key Info:
            Public Key Algorithm: rsaEncryption
                Public-Key: (2048 bit)
                Modulus:
                    00:bf:b8:fa:d1:ff:5f:bc:04:14:e0:98:5d:ed:b3:
                    6d:56:18:8f:76:4d:32:cb:ea:5e:2d:11:9c:59:77:
                    e9:fb:5b:9c:aa:d4:6f:c9:53:2c:34:9c:a4:24:56:
                    db:4e:b3:96:c0:f0:dd:9b:18:dd:87:af:01:e2:d0:
                    8e:ca:8d:cc:f0:89:0c:cb:6e:13:b7:b5:44:f0:59:
                    fa:ec:05:f1:a2:1d:61:b1:0d:3f:be:e1:e3:09:71:
                    fe:90:d8:9d:dd:77:14:11:3c:df:7a:44:44:d3:77:
                    0f:e3:26:61:23:da:88:c7:78:c2:ec:48:69:32:57:
                    9f:27:6f:da:3b:6b:28:b8:a6:8a:24:d7:ee:53:4f:
                    6d:83:e7:ca:fa:93:e8:f5:ef:71:aa:4e:f4:a7:0e:
                    a5:a9:12:cd:c1:b3:33:45:21:49:bc:0e:eb:c0:56:
                    3c:16:0b:c5:04:16:57:6c:17:f3:a7:bd:1d:06:8c:
                    a5:f0:4d:bf:2e:66:da:30:37:0c:0b:d2:04:f4:99:
                    44:6d:1d:1e:90:c4:13:3a:36:42:b4:4a:96:b7:2f:
                    a9:ab:ff:f4:ba:dd:f1:35:f5:92:9f:46:a4:dd:b2:
                    af:61:76:5f:d3:4c:ff:bf:fe:f5:79:2b:87:7c:5c:
                    ce:00:f8:6a:4c:8c:27:10:c2:1b:11:d9:1e:61:44:
                    16:93
                Exponent: 65537 (0x10001)
        X509v3 extensions:
            X509v3 Basic Constraints: 
                CA:FALSE
            Netscape Cert Type: 
                SSL Client, S/MIME
            Netscape Comment: 
                OpenSSL Generated Client Certificate
            X509v3 Subject Key Identifier: 
                8D:C2:E3:C7:5D:DF:F8:6C:10:92:4B:84:C5:8B:07:18:97:2C:53:0D
            X509v3 Authority Key Identifier: 
                keyid:52:14:F4:89:78:A6:BC:FB:14:42:9C:75:93:B3:8F:6D:87:87:4F:6D

            X509v3 Key Usage: critical
                Digital Signature, Non Repudiation, Key Encipherment
            X509v3 Extended Key Usage: 
                TLS Web Client Authentication, E-mail Protection
    Signature Algorithm: sha256WithRSAEncryption
         be:4d:63:a7:76:9d:0b:f0:9c:20:6b:4b:1c:66:b0:b7:d2:49:
         72:fe:d7:62:98:e7:be:61:ab:fe:57:c1:fc:71:d1:f9:33:a4:
         79:e4:41:2a:e6:9d:aa:95:06:01:b0:d3:7e:11:23:fc:b3:14:
         75:41:39:5a:03:38:ac:d6:6d:40:97:7b:19:14:e9:0f:a2:7e:
         17:c4:9c:8a:c0:70:40:05:5a:c6:48:24:54:71:9a:05:6f:28:
         cc:b4:63:73:33:44:68:4e:9b:21:88:36:8a:75:21:9b:8d:91:
         9a:0a:d0:bd:0a:67:da:0b:d5:39:2b:dc:5a:ca:ec:52:7c:db:
         7c:d6:f3:5e:e4:10:9b:70:e5:ba:d8:1a:12:e5:f1:de:c7:79:
         ad:b9:5c:ae:28:c5:12:50:f0:d2:ae:22:44:e9:a1:fc:c9:95:
         6d:03:85:02:3d:4b:b9:64:1d:07:45:92:59:d4:25:cb:ea:58:
         04:5c:84:e2:06:64:54:99:3d:e1:a4:34:a9:5b:39:f3:d2:6c:
         14:de:d1:f1:7f:73:07:3b:dc:19:b2:8a:b1:54:d5:c8:f3:25:
         71:99:5c:ac:09:e8:ad:7a:95:9f:76:ab:03:af:3e:dd:a8:37:
         5d:0d:b4:bc:f9:c6:a5:3d:7e:b8:11:33:4e:dd:6d:79:77:59:
         f9:7f:02:6d:95:a6:76:a6:74:12:3b:26:ee:a4:18:9f:a1:07:
         91:e2:e2:1c:dd:bb:4e:61:74:a0:a4:c3:74:6b:0c:d2:7f:0e:
         91:ec:ea:14:a0:83:e6:62:49:9a:1c:93:49:01:20:66:e2:5c:
         8a:b0:04:24:7f:a4:46:3c:b5:47:0d:2b:32:96:dd:b1:93:c8:
         b3:c8:1a:52:33:05:5b:d5:a9:c0:d3:f5:28:70:53:10:80:d5:
         37:77:7f:89:57:7a:ed:ae:36:18:4e:b7:01:f9:08:0c:b9:d6:
         1c:57:83:1a:d4:c4:68:56:12:cb:d4:0c:0b:c1:cf:09:bf:9a:
         cc:40:27:2f:da:dd:b4:44:bd:8b:a8:fd:74:6d:90:71:42:9f:
         64:e1:be:cd:d2:92:97:50:69:f3:42:2e:a7:82:3b:ed:ff:18:
         cc:54:3f:f8:77:f2:ad:63:dc:19:41:6d:65:f5:cd:f7:42:e7:
         06:bc:fe:39:15:c9:f0:6f:f4:1e:bd:b0:ac:13:5c:07:61:2e:
         c2:43:12:9a:48:ec:b9:66:6f:7d:82:1e:bf:db:cd:a1:d5:ed:
         79:f2:1d:3d:79:e0:0c:0d:7e:0a:f9:64:f1:f1:15:ff:d6:34:
         01:02:39:d2:47:09:6a:10:b8:fa:cb:52:c6:33:46:88:c6:e6:
         20:67:4c:34:2e:7f:09:52
-----BEGIN CERTIFICATE-----
MIIFTzCCAzegAwIBAgICEAMwDQYJKoZIhvcNAQELBQAwgYIxCzAJBgNVBAYTAkNa
MRowGAYDVQQIDBFKaWhvbW9yYXZza3kga3JhajEjMCEGA1UECgwaT3BlblN0YWNr
IENvbW1vbiBMaWJyYXJpZXMxFDASBgNVBAsMC0VuZ2luZWVyaW5nMRwwGgYDVQQD
DBNJbnRlcm1lZGlhdGUgQ0EgMDAxMB4XDTE4MDgxNDE2MTYxM1oXDTE4MDkwNDE2
MTYxM1owgYkxCzAJBgNVBAYTAkNaMRowGAYDVQQIDBFKaWhvbW9yYXZza3kga3Jh
ajENMAsGA1UEBwwEQnJubzEjMCEGA1UECgwaT3BlblN0YWNrIENvbW1vbiBMaWJy
YXJpZXMxFDASBgNVBAsMC0VuZ2luZWVyaW5nMRQwEgYDVQQDDAtOb2RlIDAwMTAw
NDCCASIwDQYJKoZIhvcNAQEBBQADggEPADCCAQoCggEBAL+4+tH/X7wEFOCYXe2z
bVYYj3ZNMsvqXi0RnFl36ftbnKrUb8lTLDScpCRW206zlsDw3ZsY3YevAeLQjsqN
zPCJDMtuE7e1RPBZ+uwF8aIdYbENP77h4wlx/pDYnd13FBE833pERNN3D+MmYSPa
iMd4wuxIaTJXnydv2jtrKLimiiTX7lNPbYPnyvqT6PXvcapO9KcOpakSzcGzM0Uh
SbwO68BWPBYLxQQWV2wX86e9HQaMpfBNvy5m2jA3DAvSBPSZRG0dHpDEEzo2QrRK
lrcvqav/9Lrd8TX1kp9GpN2yr2F2X9NM/7/+9Xkrh3xczgD4akyMJxDCGxHZHmFE
FpMCAwEAAaOBxTCBwjAJBgNVHRMEAjAAMBEGCWCGSAGG+EIBAQQEAwIFoDAzBglg
hkgBhvhCAQ0EJhYkT3BlblNTTCBHZW5lcmF0ZWQgQ2xpZW50IENlcnRpZmljYXRl
MB0GA1UdDgQWBBSNwuPHXd/4bBCSS4TFiwcYlyxTDTAfBgNVHSMEGDAWgBRSFPSJ
eKa8+xRCnHWTs49th4dPbTAOBgNVHQ8BAf8EBAMCBeAwHQYDVR0lBBYwFAYIKwYB
BQUHAwIGCCsGAQUFBwMEMA0GCSqGSIb3DQEBCwUAA4ICAQC+TWOndp0L8Jwga0sc
ZrC30kly/tdimOe+Yav+V8H8cdH5M6R55EEq5p2qlQYBsNN+ESP8sxR1QTlaAzis
1m1Al3sZFOkPon4XxJyKwHBABVrGSCRUcZoFbyjMtGNzM0RoTpshiDaKdSGbjZGa
CtC9CmfaC9U5K9xayuxSfNt81vNe5BCbcOW62BoS5fHex3mtuVyuKMUSUPDSriJE
6aH8yZVtA4UCPUu5ZB0HRZJZ1CXL6lgEXITiBmRUmT3hpDSpWznz0mwU3tHxf3MH
O9wZsoqxVNXI8yVxmVysCeitepWfdqsDrz7dqDddDbS8+calPX64ETNO3W15d1n5
fwJtlaZ2pnQSOybupBifoQeR4uIc3btOYXSgpMN0awzSfw6R7OoUoIPmYkmaHJNJ
ASBm4lyKsAQkf6RGPLVHDSsylt2xk8izyBpSMwVb1anA0/UocFMQgNU3d3+JV3rt
rjYYTrcB+QgMudYcV4Ma1MRoVhLL1AwLwc8Jv5rMQCcv2t20RL2LqP10bZBxQp9k
4b7N0pKXUGnzQi6ngjvt/xjMVD/4d/KtY9wZQW1l9c33QucGvP45Fcnwb/QevbCs
E1wHYS7CQxKaSOy5Zm99gh6/282h1e158h09eeAMDX4K+WTx8RX/1jQBAjnSRwlq
ELj6y1LGM0aIxuYgZ0w0Ln8JUg==
-----END CERTIFICATE-----
Certificate:
    Data:
        Version: 3 (0x2)
        Serial Number: 4097 (0x1001)
    Signature Algorithm: sha256WithRSAEncryption
        Issuer: C=CZ, ST=Jihomoravsky kraj, L=Brno, O=OpenStack Common Libraries, OU=Engineering, CN=Root CA
        Validity
            Not Before: Aug 14 16:16:10 2018 GMT
            Not After : Aug 11 16:16:10 2028 GMT
        Subject: C=CZ, ST=Jihomoravsky kraj, O=OpenStack Common Libraries, OU=Engineering, CN=Intermediate CA 001
        Subject Public Key Info:
            Public Key Algorithm: rsaEncryption
                Public-Key: (4096 bit)
                Modulus:
                    00:e1:e0:14:60:ce:42:ef:e5:24:85:a3:17:ba:f1:
                    09:d2:15:87:ba:3a:e3:b3:2d:1f:15:fc:3a:ca:f9:
                    a3:f8:33:ac:d2:82:8a:da:b7:2b:b9:11:26:d9:99:
                    9b:6b:e1:fd:e8:25:d6:1c:eb:8c:3f:c0:48:2b:ba:
                    8b:52:97:b0:5c:bb:06:93:39:79:c1:27:12:4f:0d:
                    54:fb:c5:ae:74:d1:28:28:55:f8:6d:2f:db:37:87:
                    51:f2:9c:24:2b:80:87:0c:19:71:7a:33:95:25:71:
                    09:b4:96:b8:8d:a5:f2:f6:8b:a8:05:4e:4a:2f:17:
                    90:51:3a:9a:14:8a:3a:38:50:e2:bf:b9:d8:ab:08:
                    3f:3b:d3:53:f7:4a:1f:bc:6c:3d:72:63:fa:9a:ae:
                    d0:5a:b7:7f:ad:ff:4c:6f:1e:f0:92:9d:b0:f8:a9:
                    bf:9f:d4:6a:c7:ec:42:a5:a8:ea:81:25:12:6a:23:
                    15:ca:18:c1:b3:cc:0e:77:67:d6:52:09:b4:f1:81:
                    ed:25:1e:80:92:ba:2e:17:21:0d:a4:01:b6:d7:1f:
                    f2:d3:2d:b5:a8:e1:c4:5b:b3:78:63:7c:73:ce:2b:
                    b2:ae:d3:a8:28:f3:4f:52:ff:4d:50:8a:fa:30:f7:
                    13:fa:7a:f2:49:ee:1c:4d:55:ce:a3:1d:85:f0:9a:
                    ae:42:1d:40:bd:61:47:44:b8:e9:36:56:ab:21:37:
                    10:03:df:4b:0f:5e:ed:ad:f1:9a:59:af:c4:9c:ea:
                    b8:7c:60:78:fd:da:ab:96:ed:b3:fa:da:d8:99:5d:
                    77:e9:cb:4d:45:bc:02:cc:b9:79:bb:1d:be:36:f0:
                    35:56:46:82:78:a2:ae:7b:b5:4a:ce:69:e5:5e:0a:
                    98:05:f9:ba:47:b1:ac:63:7b:db:05:fa:57:da:a0:
                    64:3c:e3:96:30:70:ce:80:a1:c0:70:3a:f4:62:23:
                    f7:36:5d:be:44:d1:fc:2f:88:be:2d:9e:80:41:10:
                    a2:0a:38:d2:3a:f1:8f:a0:99:8a:da:dd:68:75:5c:
                    4c:e8:1e:3c:41:5e:c9:3c:f6:7c:a9:47:7e:b4:94:
                    b7:bb:a3:bd:2a:4e:a2:59:f6:65:a5:7f:5c:93:e7:
                    77:b8:75:6e:0e:a6:47:46:4a:fc:a8:8f:6e:ad:b9:
                    c2:bc:c5:3d:48:5d:a3:71:d5:33:c8:b5:db:ee:b9:
                    f6:e8:1c:40:35:82:76:af:65:c8:fb:b7:88:a3:53:
                    75:c4:55:db:bd:48:72:ac:14:f1:b0:ae:77:0d:da:
                    e4:20:43:f6:d0:bd:fe:b0:b1:3a:9e:6f:2d:45:0d:
                    cf:3b:c0:37:03:38:29:3b:bc:44:b9:de:40:29:6c:
                    65:00:19
                Exponent: 65537 (0x10001)
        X509v3 extensions:
            X509v3 Subject Key Identifier: 
                52:14:F4:89:78:A6:BC:FB:14:42:9C:75:93:B3:8F:6D:87:87:4F:6D
            X509v3 Authority Key Identifier: 
                keyid:93:83:48:92:23:B6:C3:DA:A7:15:85:08:41:75:30:67:97:A5:D4:9C

            X509v3 Basic Constraints: critical
                CA:TRUE, pathlen:0
            X509v3 Key Usage: critical
                Digital Signature, Certificate Sign, CRL Sign
    Signature Algorithm: sha256WithRSAEncryption
         16:5c:2f:f3:34:47:ac:a6:0b:2f:16:82:3e:02:a0:ee:37:a9:
         54:46:aa:9b:39:34:a5:97:d9:7b:67:92:93:91:bf:9e:0e:7c:
         31:33:79:47:b2:52:96:0f:33:cf:e5:1c:45:38:96:39:94:b6:
         b6:00:d9:7e:d4:42:1f:38:1f:b0:b7:52:9d:2b:6b:9d:cb:78:
         65:ef:65:0d:bf:9f:3d:81:ea:63:a2:c4:63:58:da:1f:c9:60:
         9c:17:58:29:15:d9:81:88:a0:fc:60:7e:65:82:48:c2:2c:95:
         96:dd:ff:9d:91:47:80:96:46:e8:0a:8c:ef:18:c0:a7:85:98:
         f6:d6:d2:c6:23:9f:ef:cb:5d:51:c9:0d:26:5f:3f:e0:fb:f5:
         22:bd:ce:14:a2:11:b8:2a:13:9f:29:a0:33:0a:e3:3e:63:f9:
         37:79:84:7a:1d:60:b3:bc:e8:b5:6f:f0:70:c9:fd:4a:0e:a5:
         14:79:c0:ff:a2:67:5a:bb:a4:87:a7:7f:83:fc:00:13:8a:fb:
         ad:43:72:df:cf:40:f1:cb:8a:16:31:b8:80:a7:bf:19:ab:a1:
         22:f8:72:b2:28:2f:e8:db:60:bb:0d:a5:11:1b:cd:9f:0a:a2:
         81:9b:1c:94:9c:56:1c:1e:66:54:63:bd:7b:3f:83:be:78:fc:
         f0:af:27:46:2a:d8:e0:f0:86:47:5f:83:14:14:2b:f4:24:78:
         89:78:be:07:9d:72:10:d2:47:43:29:40:19:85:fc:eb:31:75:
         f0:43:ab:2e:c8:21:80:aa:de:85:cd:3b:69:09:90:71:e6:3a:
         dc:4e:e4:c5:ec:bc:ef:6a:26:45:2c:c5:ba:0b:53:c3:20:b6:
         c8:40:a7:f6:ff:d3:69:e2:58:f3:9c:a1:f2:a4:4f:86:fa:dd:
         56:3b:eb:4a:c4:81:9b:0c:1c:27:08:0d:cf:b0:0e:2d:0e:55:
         83:1f:23:39:a8:43:04:ac:01:20:55:21:ef:8d:36:f2:b7:ed:
         5b:c5:60:17:1a:fd:4a:67:26:31:d0:09:ae:71:a4:c4:1c:38:
         e2:f1:ce:ca:54:ee:17:c6:b9:92:64:ee:19:2f:ca:3e:c3:6e:
         3f:0e:e6:22:71:6e:8f:f1:2b:e7:25:50:77:c5:34:bf:ee:6e:
         fb:a9:d5:8b:ed:87:78:9a:4c:bf:da:d0:1e:f2:2c:09:52:89:
         c9:b5:51:c7:45:59:34:27:c6:7b:46:92:59:1f:a1:39:ac:e4:
         3e:e2:c4:0a:dd:39:67:e5:2a:d0:e3:63:64:aa:6c:7f:dd:21:
         de:e1:83:3a:13:6b:88:cc:56:14:5e:8f:9f:13:42:62:9a:38:
         41:bd:b0:30:cb:3a:cd:f1
-----BEGIN CERTIFICATE-----
MIIF6zCCA9OgAwIBAgICEAEwDQYJKoZIhvcNAQELBQAwgYUxCzAJBgNVBAYTAkNa
MRowGAYDVQQIDBFKaWhvbW9yYXZza3kga3JhajENMAsGA1UEBwwEQnJubzEjMCEG
A1UECgwaT3BlblN0YWNrIENvbW1vbiBMaWJyYXJpZXMxFDASBgNVBAsMC0VuZ2lu
ZWVyaW5nMRAwDgYDVQQDDAdSb290IENBMB4XDTE4MDgxNDE2MTYxMFoXDTI4MDgx
MTE2MTYxMFowgYIxCzAJBgNVBAYTAkNaMRowGAYDVQQIDBFKaWhvbW9yYXZza3kg
a3JhajEjMCEGA1UECgwaT3BlblN0YWNrIENvbW1vbiBMaWJyYXJpZXMxFDASBgNV
BAsMC0VuZ2luZWVyaW5nMRwwGgYDVQQDDBNJbnRlcm1lZGlhdGUgQ0EgMDAxMIIC
IjANBgkqhkiG9w0BAQEFAAOCAg8AMIICCgKCAgEA4eAUYM5C7+UkhaMXuvEJ0hWH
ujrjsy0fFfw6yvmj+DOs0oKK2rcruREm2Zmba+H96CXWHOuMP8BIK7qLUpewXLsG
kzl5wScSTw1U+8WudNEoKFX4bS/bN4dR8pwkK4CHDBlxejOVJXEJtJa4jaXy9ouo
BU5KLxeQUTqaFIo6OFDiv7nYqwg/O9NT90ofvGw9cmP6mq7QWrd/rf9Mbx7wkp2w
+Km/n9Rqx+xCpajqgSUSaiMVyhjBs8wOd2fWUgm08YHtJR6AkrouFyENpAG21x/y
0y21qOHEW7N4Y3xzziuyrtOoKPNPUv9NUIr6MPcT+nrySe4cTVXOox2F8JquQh1A
vWFHRLjpNlarITcQA99LD17trfGaWa/EnOq4fGB4/dqrlu2z+trYmV136ctNRbwC
zLl5ux2+NvA1VkaCeKKue7VKzmnlXgqYBfm6R7GsY3vbBfpX2qBkPOOWMHDOgKHA
cDr0YiP3Nl2+RNH8L4i+LZ6AQRCiCjjSOvGPoJmK2t1odVxM6B48QV7JPPZ8qUd+
tJS3u6O9Kk6iWfZlpX9ck+d3uHVuDqZHRkr8qI9urbnCvMU9SF2jcdUzyLXb7rn2
6BxANYJ2r2XI+7eIo1N1xFXbvUhyrBTxsK53DdrkIEP20L3+sLE6nm8tRQ3PO8A3
AzgpO7xEud5AKWxlABkCAwEAAaNmMGQwHQYDVR0OBBYEFFIU9Il4prz7FEKcdZOz
j22Hh09tMB8GA1UdIwQYMBaAFJODSJIjtsPapxWFCEF1MGeXpdScMBIGA1UdEwEB
/wQIMAYBAf8CAQAwDgYDVR0PAQH/BAQDAgGGMA0GCSqGSIb3DQEBCwUAA4ICAQAW
XC/zNEespgsvFoI+AqDuN6lURqqbOTSll9l7Z5KTkb+eDnwxM3lHslKWDzPP5RxF
OJY5lLa2ANl+1EIfOB+wt1KdK2udy3hl72UNv589gepjosRjWNofyWCcF1gpFdmB
iKD8YH5lgkjCLJWW3f+dkUeAlkboCozvGMCnhZj21tLGI5/vy11RyQ0mXz/g+/Ui
vc4UohG4KhOfKaAzCuM+Y/k3eYR6HWCzvOi1b/Bwyf1KDqUUecD/omdau6SHp3+D
/AATivutQ3Lfz0Dxy4oWMbiAp78Zq6Ei+HKyKC/o22C7DaURG82fCqKBmxyUnFYc
HmZUY717P4O+ePzwrydGKtjg8IZHX4MUFCv0JHiJeL4HnXIQ0kdDKUAZhfzrMXXw
Q6suyCGAqt6FzTtpCZBx5jrcTuTF7LzvaiZFLMW6C1PDILbIQKf2/9Np4ljznKHy
pE+G+t1WO+tKxIGbDBwnCA3PsA4tDlWDHyM5qEMErAEgVSHvjTbyt+1bxWAXGv1K
ZyYx0AmucaTEHDji8c7KVO4XxrmSZO4ZL8o+w24/DuYicW6P8SvnJVB3xTS/7m77
qdWL7Yd4mky/2tAe8iwJUonJtVHHRVk0J8Z7RpJZH6E5rOQ+4sQK3Tln5SrQ42Nk
qmx/3SHe4YM6E2uIzFYUXo+fE0JimjhBvbAwyzrN8Q==
-----END CERTIFICATE-----
