Certificate:
    Data:
        Version: 3 (0x2)
        Serial Number: 4098 (0x1002)
    Signature Algorithm: sha256WithRSAEncryption
        Issuer: C=CZ, ST=Jihomoravsky kraj, O=OpenStack Common Libraries, OU=Engineering, CN=Intermediate CA 001
        Validity
            Not Before: Aug 14 16:16:13 2018 GMT
            Not After : Sep  4 16:16:13 2018 GMT
        Subject: C=CZ, ST=Jihomoravsky kraj, L=Brno, O=OpenStack Common Libraries, OU=Engineering, CN=Node 001003
        Subject Public Key Info:
            Public Key Algorithm: rsaEncryption
                Public-Key: (2048 bit)
                Modulus:
                    00:bf:a7:44:26:de:ec:d9:81:c2:12:cf:94:9c:16:
                    0c:51:29:88:aa:e1:bf:a6:dc:f7:a7:e9:2b:de:7c:
                    22:9c:48:1c:83:df:6a:1b:4e:28:a5:2e:d9:3f:39:
                    05:bf:41:30:a2:cc:34:52:9e:87:b6:cc:c3:d9:b7:
                    84:35:ec:09:20:05:59:0b:76:a9:6e:66:58:ad:76:
                    56:40:a4:05:e8:1f:9e:dd:3f:19:c5:e6:43:bc:f3:
                    93:f0:33:ea:0a:98:3d:21:e4:3b:e6:af:d9:01:ed:
                    9f:50:68:e2:d4:49:5f:bf:d9:20:5e:70:9e:8f:47:
                    6e:df:c7:52:db:d3:05:40:0d:7d:4b:a4:15:4f:e0:
                    69:b5:77:e7:6d:79:66:9f:32:20:0e:83:d5:89:de:
                    a2:82:2e:b2:fa:05:59:fa:37:0b:1b:05:fe:3d:31:
                    8c:60:a3:3a:94:0b:5b:0b:a8:88:b1:e8:9e:ff:29:
                    08:6f:0a:4b:24:e0:91:2a:c7:c5:8a:05:7c:98:ad:
                    06:28:f8:74:8b:dc:e7:9d:a9:4e:a8:7d:11:70:9e:
                    4b:60:2c:f6:e5:22:58:e6:92:be:b0:7d:d3:39:a6:
                    32:0d:2f:31:7f:ad:fe:e0:22:a2:ab:65:0f:f1:80:
                    54:73:a1:20:85:63:24:66:76:e3:c5:7b:f2:67:4a:
                    fa:41
                Exponent: 65537 (0x10001)
        X509v3 extensions:
            X509v3 Basic Constraints: 
                CA:FALSE
            Netscape Cert Type: 
                SSL Client, S/MIME
            Netscape Comment: 
                OpenSSL Generated Client Certificate
            X509v3 Subject Key Identifier: 
                B4:26:80:8F:4F:F5:C1:EC:4E:BE:7A:6F:BB:1B:44:D3:0A:90:7C:5E
            X509v3 Authority Key Identifier: 
                keyid:52:14:F4:89:78:A6:BC:FB:14:42:9C:75:93:B3:8F:6D:87:87:4F:6D

            X509v3 Key Usage: critical
                Digital Signature, Non Repudiation, Key Encipherment
            X509v3 Extended Key Usage: 
                TLS Web Client Authentication, E-mail Protection
    Signature Algorithm: sha256WithRSAEncryption
         51:99:17:99:cb:62:b1:11:c2:e8:eb:2a:cc:d7:be:4d:85:b5:
         ae:c6:fb:1f:32:32:c5:bc:df:d4:5c:6c:2c:70:a2:28:de:70:
         86:17:d0:14:29:7f:d9:75:a3:f3:0f:28:92:b9:3c:12:5d:2a:
         6c:ee:72:10:0d:4f:27:c1:7f:f0:a6:9b:4a:25:a2:62:f3:98:
         5a:4a:06:7c:5f:b5:01:ab:38:6d:d1:79:3c:04:a6:83:04:b7:
         ee:3e:72:48:f3:85:14:5d:05:73:a6:06:8c:72:6d:fe:34:13:
         70:2a:ac:dd:b2:54:dc:75:b9:de:6d:45:42:92:7f:5c:ad:a5:
         53:e1:44:ff:c1:0f:47:9c:d1:c5:e1:12:28:bc:65:7a:18:f1:
         ba:23:e2:71:8f:49:98:8d:da:a0:af:78:24:fd:0f:45:e9:91:
         cc:2b:22:45:06:2e:1c:83:6d:03:49:7c:dc:c5:51:75:d8:b4:
         3e:85:54:00:b9:f8:ea:e3:00:39:c8:d8:11:0a:eb:62:a3:90:
         67:53:9e:2f:ca:f1:40:bc:bb:36:e8:91:44:98:5e:16:a0:4e:
         5f:14:a1:b8:95:bb:af:9c:cc:68:a4:ba:da:a6:23:62:af:69:
         8c:2e:29:15:ba:19:16:10:15:81:e2:eb:da:6b:42:99:04:20:
         7f:00:af:c2:09:c0:67:b4:61:4f:62:ff:73:22:74:1a:d9:68:
         c7:57:52:3b:9d:74:8c:55:e6:02:bd:36:45:36:34:47:2a:41:
         0a:90:68:37:78:a7:17:90:f6:3e:da:00:d6:e4:fd:d3:a9:fc:
         27:5a:b6:1c:ac:67:23:53:d4:c0:b9:dd:24:7d:9e:1a:b5:e6:
         e6:3e:8c:6c:92:2d:2f:47:32:ed:36:2f:97:9c:35:7e:15:ff:
         01:6e:6a:3f:d2:1e:f4:63:f2:df:62:96:c7:ff:1e:96:48:de:
         78:6a:05:1b:d8:87:ec:d7:a7:30:ca:51:c5:d8:3b:4e:c6:a8:
         86:30:2a:3b:bf:4c:cd:c2:93:c6:c2:33:cf:99:45:38:a3:4a:
         f5:a6:7d:7c:85:0a:22:e8:c5:53:ea:9f:a9:81:65:44:ae:34:
         79:87:04:24:ff:cc:a5:77:03:5a:b6:1a:ab:63:11:c2:b2:28:
         66:de:77:42:9b:07:15:48:15:37:21:88:28:5c:06:56:2a:3b:
         52:88:d8:1d:d6:cd:0a:ac:8b:10:8d:a8:6b:9d:55:af:1b:ec:
         9b:c4:c9:ca:73:37:2e:64:b3:46:75:3e:24:81:b7:5f:5c:6f:
         02:c2:23:73:d1:6a:59:6c:df:ab:aa:e4:a9:a5:93:f5:27:a8:
         7b:c2:34:f4:cf:23:79:0a
-----BEGIN CERTIFICATE-----
MIIFTzCCAzegAwIBAgICEAIwDQYJKoZIhvcNAQELBQAwgYIxCzAJBgNVBAYTAkNa
MRowGAYDVQQIDBFKaWhvbW9yYXZza3kga3JhajEjMCEGA1UECgwaT3BlblN0YWNr
IENvbW1vbiBMaWJyYXJpZXMxFDASBgNVBAsMC0VuZ2luZWVyaW5nMRwwGgYDVQQD
DBNJbnRlcm1lZGlhdGUgQ0EgMDAxMB4XDTE4MDgxNDE2MTYxM1oXDTE4MDkwNDE2
MTYxM1owgYkxCzAJBgNVBAYTAkNaMRowGAYDVQQIDBFKaWhvbW9yYXZza3kga3Jh
ajENMAsGA1UEBwwEQnJubzEjMCEGA1UECgwaT3BlblN0YWNrIENvbW1vbiBMaWJy
YXJpZXMxFDASBgNVBAsMC0VuZ2luZWVyaW5nMRQwEgYDVQQDDAtOb2RlIDAwMTAw
MzCCASIwDQYJKoZIhvcNAQEBBQADggEPADCCAQoCggEBAL+nRCbe7NmBwhLPlJwW
DFEpiKrhv6bc96fpK958IpxIHIPfahtOKKUu2T85Bb9BMKLMNFKeh7bMw9m3hDXs
CSAFWQt2qW5mWK12VkCkBegfnt0/GcXmQ7zzk/Az6gqYPSHkO+av2QHtn1Bo4tRJ
X7/ZIF5wno9Hbt/HUtvTBUANfUukFU/gabV35215Zp8yIA6D1YneooIusvoFWfo3
CxsF/j0xjGCjOpQLWwuoiLHonv8pCG8KSyTgkSrHxYoFfJitBij4dIvc552pTqh9
EXCeS2As9uUiWOaSvrB90zmmMg0vMX+t/uAioqtlD/GAVHOhIIVjJGZ248V78mdK
+kECAwEAAaOBxTCBwjAJBgNVHRMEAjAAMBEGCWCGSAGG+EIBAQQEAwIFoDAzBglg
hkgBhvhCAQ0EJhYkT3BlblNTTCBHZW5lcmF0ZWQgQ2xpZW50IENlcnRpZmljYXRl
MB0GA1UdDgQWBBS0JoCPT/XB7E6+em+7G0TTCpB8XjAfBgNVHSMEGDAWgBRSFPSJ
eKa8+xRCnHWTs49th4dPbTAOBgNVHQ8BAf8EBAMCBeAwHQYDVR0lBBYwFAYIKwYB
BQUHAwIGCCsGAQUFBwMEMA0GCSqGSIb3DQEBCwUAA4ICAQBRmReZy2KxEcLo6yrM
175NhbWuxvsfMjLFvN/UXGwscKIo3nCGF9AUKX/ZdaPzDyiSuTwSXSps7nIQDU8n
wX/wpptKJaJi85haSgZ8X7UBqzht0Xk8BKaDBLfuPnJI84UUXQVzpgaMcm3+NBNw
KqzdslTcdbnebUVCkn9craVT4UT/wQ9HnNHF4RIovGV6GPG6I+Jxj0mYjdqgr3gk
/Q9F6ZHMKyJFBi4cg20DSXzcxVF12LQ+hVQAufjq4wA5yNgRCutio5BnU54vyvFA
vLs26JFEmF4WoE5fFKG4lbuvnMxopLrapiNir2mMLikVuhkWEBWB4uvaa0KZBCB/
AK/CCcBntGFPYv9zInQa2WjHV1I7nXSMVeYCvTZFNjRHKkEKkGg3eKcXkPY+2gDW
5P3TqfwnWrYcrGcjU9TAud0kfZ4atebmPoxski0vRzLtNi+XnDV+Ff8Bbmo/0h70
Y/LfYpbH/x6WSN54agUb2Ifs16cwylHF2DtOxqiGMCo7v0zNwpPGwjPPmUU4o0r1
pn18hQoi6MVT6p+pgWVErjR5hwQk/8yldwNathqrYxHCsihm3ndCmwcVSBU3IYgo
XAZWKjtSiNgd1s0KrIsQjahrnVWvG+ybxMnKczcuZLNGdT4kgbdfXG8CwiNz0WpZ
bN+rquSppZP1J6h7wjT0zyN5Cg==
-----END CERTIFICATE-----
Certificate:
    Data:
        Version: 3 (0x2)
        Serial Number: 4097 (0x1001)
    Signature Algorithm: sha256WithRSAEncryption
        Issuer: C=CZ, ST=Jihomoravsky kraj, L=Brno, O=OpenStack Common Libraries, OU=Engineering, CN=Root CA
        Validity
            Not Before: Aug 14 16:16:10 2018 GMT
            Not After : Aug 11 16:16:10 2028 GMT
        Subject: C=CZ, ST=Jihomoravsky kraj, O=OpenStack Common Libraries, OU=Engineering, CN=Intermediate CA 001
        Subject Public Key Info:
            Public Key Algorithm: rsaEncryption
                Public-Key: (4096 bit)
                Modulus:
                    00:e1:e0:14:60:ce:42:ef:e5:24:85:a3:17:ba:f1:
                    09:d2:15:87:ba:3a:e3:b3:2d:1f:15:fc:3a:ca:f9:
                    a3:f8:33:ac:d2:82:8a:da:b7:2b:b9:11:26:d9:99:
                    9b:6b:e1:fd:e8:25:d6:1c:eb:8c:3f:c0:48:2b:ba:
                    8b:52:97:b0:5c:bb:06:93:39:79:c1:27:12:4f:0d:
                    54:fb:c5:ae:74:d1:28:28:55:f8:6d:2f:db:37:87:
                    51:f2:9c:24:2b:80:87:0c:19:71:7a:33:95:25:71:
                    09:b4:96:b8:8d:a5:f2:f6:8b:a8:05:4e:4a:2f:17:
                    90:51:3a:9a:14:8a:3a:38:50:e2:bf:b9:d8:ab:08:
                    3f:3b:d3:53:f7:4a:1f:bc:6c:3d:72:63:fa:9a:ae:
                    d0:5a:b7:7f:ad:ff:4c:6f:1e:f0:92:9d:b0:f8:a9:
                    bf:9f:d4:6a:c7:ec:42:a5:a8:ea:81:25:12:6a:23:
                    15:ca:18:c1:b3:cc:0e:77:67:d6:52:09:b4:f1:81:
                    ed:25:1e:80:92:ba:2e:17:21:0d:a4:01:b6:d7:1f:
                    f2:d3:2d:b5:a8:e1:c4:5b:b3:78:63:7c:73:ce:2b:
                    b2:ae:d3:a8:28:f3:4f:52:ff:4d:50:8a:fa:30:f7:
                    13:fa:7a:f2:49:ee:1c:4d:55:ce:a3:1d:85:f0:9a:
                    ae:42:1d:40:bd:61:47:44:b8:e9:36:56:ab:21:37:
                    10:03:df:4b:0f:5e:ed:ad:f1:9a:59:af:c4:9c:ea:
                    b8:7c:60:78:fd:da:ab:96:ed:b3:fa:da:d8:99:5d:
                    77:e9:cb:4d:45:bc:02:cc:b9:79:bb:1d:be:36:f0:
                    35:56:46:82:78:a2:ae:7b:b5:4a:ce:69:e5:5e:0a:
                    98:05:f9:ba:47:b1:ac:63:7b:db:05:fa:57:da:a0:
                    64:3c:e3:96:30:70:ce:80:a1:c0:70:3a:f4:62:23:
                    f7:36:5d:be:44:d1:fc:2f:88:be:2d:9e:80:41:10:
                    a2:0a:38:d2:3a:f1:8f:a0:99:8a:da:dd:68:75:5c:
                    4c:e8:1e:3c:41:5e:c9:3c:f6:7c:a9:47:7e:b4:94:
                    b7:bb:a3:bd:2a:4e:a2:59:f6:65:a5:7f:5c:93:e7:
                    77:b8:75:6e:0e:a6:47:46:4a:fc:a8:8f:6e:ad:b9:
                    c2:bc:c5:3d:48:5d:a3:71:d5:33:c8:b5:db:ee:b9:
                    f6:e8:1c:40:35:82:76:af:65:c8:fb:b7:88:a3:53:
                    75:c4:55:db:bd:48:72:ac:14:f1:b0:ae:77:0d:da:
                    e4:20:43:f6:d0:bd:fe:b0:b1:3a:9e:6f:2d:45:0d:
                    cf:3b:c0:37:03:38:29:3b:bc:44:b9:de:40:29:6c:
                    65:00:19
                Exponent: 65537 (0x10001)
        X509v3 extensions:
            X509v3 Subject Key Identifier: 
                52:14:F4:89:78:A6:BC:FB:14:42:9C:75:93:B3:8F:6D:87:87:4F:6D
            X509v3 Authority Key Identifier: 
                keyid:93:83:48:92:23:B6:C3:DA:A7:15:85:08:41:75:30:67:97:A5:D4:9C

            X509v3 Basic Constraints: critical
                CA:TRUE, pathlen:0
            X509v3 Key Usage: critical
                Digital Signature, Certificate Sign, CRL Sign
    Signature Algorithm: sha256WithRSAEncryption
         16:5c:2f:f3:34:47:ac:a6:0b:2f:16:82:3e:02:a0:ee:37:a9:
         54:46:aa:9b:39:34:a5:97:d9:7b:67:92:93:91:bf:9e:0e:7c:
         31:33:79:47:b2:52:96:0f:33:cf:e5:1c:45:38:96:39:94:b6:
         b6:00:d9:7e:d4:42:1f:38:1f:b0:b7:52:9d:2b:6b:9d:cb:78:
         65:ef:65:0d:bf:9f:3d:81:ea:63:a2:c4:63:58:da:1f:c9:60:
         9c:17:58:29:15:d9:81:88:a0:fc:60:7e:65:82:48:c2:2c:95:
         96:dd:ff:9d:91:47:80:96:46:e8:0a:8c:ef:18:c0:a7:85:98:
         f6:d6:d2:c6:23:9f:ef:cb:5d:51:c9:0d:26:5f:3f:e0:fb:f5:
         22:bd:ce:14:a2:11:b8:2a:13:9f:29:a0:33:0a:e3:3e:63:f9:
         37:79:84:7a:1d:60:b3:bc:e8:b5:6f:f0:70:c9:fd:4a:0e:a5:
         14:79:c0:ff:a2:67:5a:bb:a4:87:a7:7f:83:fc:00:13:8a:fb:
         ad:43:72:df:cf:40:f1:cb:8a:16:31:b8:80:a7:bf:19:ab:a1:
         22:f8:72:b2:28:2f:e8:db:60:bb:0d:a5:11:1b:cd:9f:0a:a2:
         81:9b:1c:94:9c:56:1c:1e:66:54:63:bd:7b:3f:83:be:78:fc:
         f0:af:27:46:2a:d8:e0:f0:86:47:5f:83:14:14:2b:f4:24:78:
         89:78:be:07:9d:72:10:d2:47:43:29:40:19:85:fc:eb:31:75:
         f0:43:ab:2e:c8:21:80:aa:de:85:cd:3b:69:09:90:71:e6:3a:
         dc:4e:e4:c5:ec:bc:ef:6a:26:45:2c:c5:ba:0b:53:c3:20:b6:
         c8:40:a7:f6:ff:d3:69:e2:58:f3:9c:a1:f2:a4:4f:86:fa:dd:
         56:3b:eb:4a:c4:81:9b:0c:1c:27:08:0d:cf:b0:0e:2d:0e:55:
         83:1f:23:39:a8:43:04:ac:01:20:55:21:ef:8d:36:f2:b7:ed:
         5b:c5:60:17:1a:fd:4a:67:26:31:d0:09:ae:71:a4:c4:1c:38:
         e2:f1:ce:ca:54:ee:17:c6:b9:92:64:ee:19:2f:ca:3e:c3:6e:
         3f:0e:e6:22:71:6e:8f:f1:2b:e7:25:50:77:c5:34:bf:ee:6e:
         fb:a9:d5:8b:ed:87:78:9a:4c:bf:da:d0:1e:f2:2c:09:52:89:
         c9:b5:51:c7:45:59:34:27:c6:7b:46:92:59:1f:a1:39:ac:e4:
         3e:e2:c4:0a:dd:39:67:e5:2a:d0:e3:63:64:aa:6c:7f:dd:21:
         de:e1:83:3a:13:6b:88:cc:56:14:5e:8f:9f:13:42:62:9a:38:
         41:bd:b0:30:cb:3a:cd:f1
-----BEGIN CERTIFICATE-----
MIIF6zCCA9OgAwIBAgICEAEwDQYJKoZIhvcNAQELBQAwgYUxCzAJBgNVBAYTAkNa
MRowGAYDVQQIDBFKaWhvbW9yYXZza3kga3JhajENMAsGA1UEBwwEQnJubzEjMCEG
A1UECgwaT3BlblN0YWNrIENvbW1vbiBMaWJyYXJpZXMxFDASBgNVBAsMC0VuZ2lu
ZWVyaW5nMRAwDgYDVQQDDAdSb290IENBMB4XDTE4MDgxNDE2MTYxMFoXDTI4MDgx
MTE2MTYxMFowgYIxCzAJBgNVBAYTAkNaMRowGAYDVQQIDBFKaWhvbW9yYXZza3kg
a3JhajEjMCEGA1UECgwaT3BlblN0YWNrIENvbW1vbiBMaWJyYXJpZXMxFDASBgNV
BAsMC0VuZ2luZWVyaW5nMRwwGgYDVQQDDBNJbnRlcm1lZGlhdGUgQ0EgMDAxMIIC
IjANBgkqhkiG9w0BAQEFAAOCAg8AMIICCgKCAgEA4eAUYM5C7+UkhaMXuvEJ0hWH
ujrjsy0fFfw6yvmj+DOs0oKK2rcruREm2Zmba+H96CXWHOuMP8BIK7qLUpewXLsG
kzl5wScSTw1U+8WudNEoKFX4bS/bN4dR8pwkK4CHDBlxejOVJXEJtJa4jaXy9ouo
BU5KLxeQUTqaFIo6OFDiv7nYqwg/O9NT90ofvGw9cmP6mq7QWrd/rf9Mbx7wkp2w
+Km/n9Rqx+xCpajqgSUSaiMVyhjBs8wOd2fWUgm08YHtJR6AkrouFyENpAG21x/y
0y21qOHEW7N4Y3xzziuyrtOoKPNPUv9NUIr6MPcT+nrySe4cTVXOox2F8JquQh1A
vWFHRLjpNlarITcQA99LD17trfGaWa/EnOq4fGB4/dqrlu2z+trYmV136ctNRbwC
zLl5ux2+NvA1VkaCeKKue7VKzmnlXgqYBfm6R7GsY3vbBfpX2qBkPOOWMHDOgKHA
cDr0YiP3Nl2+RNH8L4i+LZ6AQRCiCjjSOvGPoJmK2t1odVxM6B48QV7JPPZ8qUd+
tJS3u6O9Kk6iWfZlpX9ck+d3uHVuDqZHRkr8qI9urbnCvMU9SF2jcdUzyLXb7rn2
6BxANYJ2r2XI+7eIo1N1xFXbvUhyrBTxsK53DdrkIEP20L3+sLE6nm8tRQ3PO8A3
AzgpO7xEud5AKWxlABkCAwEAAaNmMGQwHQYDVR0OBBYEFFIU9Il4prz7FEKcdZOz
j22Hh09tMB8GA1UdIwQYMBaAFJODSJIjtsPapxWFCEF1MGeXpdScMBIGA1UdEwEB
/wQIMAYBAf8CAQAwDgYDVR0PAQH/BAQDAgGGMA0GCSqGSIb3DQEBCwUAA4ICAQAW
XC/zNEespgsvFoI+AqDuN6lURqqbOTSll9l7Z5KTkb+eDnwxM3lHslKWDzPP5RxF
OJY5lLa2ANl+1EIfOB+wt1KdK2udy3hl72UNv589gepjosRjWNofyWCcF1gpFdmB
iKD8YH5lgkjCLJWW3f+dkUeAlkboCozvGMCnhZj21tLGI5/vy11RyQ0mXz/g+/Ui
vc4UohG4KhOfKaAzCuM+Y/k3eYR6HWCzvOi1b/Bwyf1KDqUUecD/omdau6SHp3+D
/AATivutQ3Lfz0Dxy4oWMbiAp78Zq6Ei+HKyKC/o22C7DaURG82fCqKBmxyUnFYc
HmZUY717P4O+ePzwrydGKtjg8IZHX4MUFCv0JHiJeL4HnXIQ0kdDKUAZhfzrMXXw
Q6suyCGAqt6FzTtpCZBx5jrcTuTF7LzvaiZFLMW6C1PDILbIQKf2/9Np4ljznKHy
pE+G+t1WO+tKxIGbDBwnCA3PsA4tDlWDHyM5qEMErAEgVSHvjTbyt+1bxWAXGv1K
ZyYx0AmucaTEHDji8c7KVO4XxrmSZO4ZL8o+w24/DuYicW6P8SvnJVB3xTS/7m77
qdWL7Yd4mky/2tAe8iwJUonJtVHHRVk0J8Z7RpJZH6E5rOQ+4sQK3Tln5SrQ42Nk
qmx/3SHe4YM6E2uIzFYUXo+fE0JimjhBvbAwyzrN8Q==
-----END CERTIFICATE-----
