Certificate:
    Data:
        Version: 3 (0x2)
        Serial Number: 4097 (0x1001)
    Signature Algorithm: sha256WithRSAEncryption
        Issuer: C=CZ, ST=Jihomoravsky kraj, O=OpenStack Common Libraries, OU=Engineering, CN=Intermediate CA 001
        Validity
            Not Before: Aug 14 16:16:13 2018 GMT
            Not After : Sep  4 16:16:13 2018 GMT
        Subject: C=CZ, ST=Jihomoravsky kraj, L=Brno, O=OpenStack Common Libraries, OU=Engineering, CN=Node 001002
        Subject Public Key Info:
            Public Key Algorithm: rsaEncryption
                Public-Key: (2048 bit)
                Modulus:
                    00:a3:f0:3d:54:01:62:82:b8:38:87:cc:bc:4f:e5:
                    1d:0f:64:a6:8e:a5:d2:05:4b:75:e1:84:cd:06:9c:
                    87:8d:56:e3:1b:70:f9:ca:8b:80:c6:b1:e1:9e:84:
                    22:02:a5:0c:93:09:10:f1:4e:d7:1b:eb:3b:dd:1d:
                    55:33:4b:0c:80:49:e7:78:22:19:56:f7:28:b9:4f:
                    bf:91:f1:4d:65:9d:d3:0b:2d:08:b3:80:a1:82:87:
                    9e:9e:f4:c5:77:bf:31:f5:54:d5:ce:e8:02:5f:2b:
                    20:9a:1d:ee:f4:2e:57:44:30:35:85:5a:0e:82:45:
                    2d:6e:b8:fe:fb:e6:1f:c4:62:9d:14:40:50:28:00:
                    c2:08:73:59:c8:01:37:7d:ab:79:f7:41:d5:c8:bd:
                    de:a6:11:5a:f8:21:a3:9c:e6:cf:a1:f1:b4:4b:97:
                    1a:a1:ae:1b:7e:9c:53:20:25:10:c9:a8:93:37:da:
                    b8:85:d2:0d:05:53:31:8f:18:8d:a3:63:3a:1f:41:
                    45:73:18:fa:69:af:2f:66:09:8b:c2:d4:58:5e:46:
                    d1:88:ad:34:ec:5b:9a:a5:d9:58:a4:58:90:e7:fc:
                    4f:74:2b:79:e7:44:fb:64:c3:9e:45:dc:28:e3:67:
                    11:bd:cb:81:5e:82:b1:6e:da:40:99:8d:83:bd:33:
                    39:af
                Exponent: 65537 (0x10001)
        X509v3 extensions:
            X509v3 Basic Constraints: 
                CA:FALSE
            Netscape Cert Type: 
                SSL Client, S/MIME
            Netscape Comment: 
                OpenSSL Generated Client Certificate
            X509v3 Subject Key Identifier: 
                D6:86:DE:25:59:B2:13:55:C3:7E:B1:3A:5D:10:D4:D9:6F:3A:19:94
            X509v3 Authority Key Identifier: 
                keyid:52:14:F4:89:78:A6:BC:FB:14:42:9C:75:93:B3:8F:6D:87:87:4F:6D

            X509v3 Key Usage: critical
                Digital Signature, Non Repudiation, Key Encipherment
            X509v3 Extended Key Usage: 
                TLS Web Client Authentication, E-mail Protection
    Signature Algorithm: sha256WithRSAEncryption
         0c:a4:22:84:94:4a:88:b5:bb:d9:ab:d3:7f:57:69:68:74:1f:
         89:cb:0a:04:a8:b4:82:22:a4:05:1f:09:2b:d1:81:55:8f:4c:
         a5:85:f2:37:1d:f7:c0:7d:7a:f9:49:3c:cd:41:8f:3e:3f:d3:
         34:19:85:c7:66:40:47:fd:9d:4c:03:dc:48:7b:07:b4:26:3f:
         29:d3:4e:03:52:f5:ce:7e:f1:8e:05:69:d7:5d:d7:57:5d:d3:
         f7:d8:64:37:2c:03:c5:99:04:f6:6c:86:8c:d7:32:b8:24:f1:
         b7:26:14:98:53:89:90:da:92:a5:0b:08:2b:80:85:b8:fc:ce:
         f0:23:94:27:fe:4f:b6:0d:e2:2b:92:2f:7f:07:0b:40:fe:6b:
         14:88:95:bc:12:f0:8c:be:ec:17:aa:9f:27:ac:a8:fa:5c:86:
         4b:28:65:21:71:6e:be:e1:e6:50:14:8b:0d:ee:75:44:9a:c5:
         dd:be:e1:50:25:11:bd:34:d1:a5:e5:89:31:80:80:8e:c2:ef:
         24:20:70:fa:63:12:85:02:4e:ff:51:98:4f:36:9f:26:f0:d1:
         48:4b:52:39:bc:59:6f:9c:09:ca:c6:e4:61:e2:87:65:0e:b0:
         9b:f8:1f:e4:54:82:00:c9:0e:ce:4d:e0:be:d6:17:14:d3:ad:
         53:8d:9e:5a:63:1e:60:58:17:8f:09:3a:b9:d8:31:47:c0:c7:
         16:93:be:39:6e:ef:1a:a6:ab:90:6f:d6:5a:f8:3d:e0:ae:1a:
         ea:cb:dd:09:6d:25:32:17:fb:8a:b5:a0:ef:95:a5:a8:df:33:
         13:fa:5c:19:2d:17:f6:e7:69:d9:ba:14:37:2c:a4:e8:f3:d6:
         9e:99:59:ac:d4:ef:14:45:89:02:0b:d8:72:b4:c9:ae:5b:c9:
         37:5b:bc:47:0b:c7:45:74:6d:7d:69:d5:2d:da:49:a3:4d:fc:
         e2:ba:d1:c4:08:1a:1a:cc:d9:df:de:08:08:a5:03:4d:e8:2b:
         cb:b4:fd:aa:49:27:d3:1c:e4:ab:bf:f8:af:94:4b:a2:f5:03:
         fe:33:1e:41:c1:ed:90:94:5f:e6:25:35:be:6b:ba:b6:6e:e4:
         e1:65:0b:59:f2:34:a6:36:ce:d4:cb:57:45:e4:15:58:3d:05:
         06:47:2a:9c:31:48:a0:3c:ed:49:25:e5:11:d7:6f:ee:3e:ed:
         f7:20:4d:50:aa:58:ba:46:81:23:6f:7a:5b:5e:d4:d3:1e:ec:
         8d:3e:6f:db:c4:64:5f:2a:e4:40:47:95:20:49:27:91:bb:cd:
         85:43:39:86:ff:e7:60:aa:be:0d:d7:4b:5e:42:c2:c8:1d:28:
         89:f8:4d:9e:5b:d9:ab:d0
-----BEGIN CERTIFICATE-----
MIIFTzCCAzegAwIBAgICEAEwDQYJKoZIhvcNAQELBQAwgYIxCzAJBgNVBAYTAkNa
MRowGAYDVQQIDBFKaWhvbW9yYXZza3kga3JhajEjMCEGA1UECgwaT3BlblN0YWNr
IENvbW1vbiBMaWJyYXJpZXMxFDASBgNVBAsMC0VuZ2luZWVyaW5nMRwwGgYDVQQD
DBNJbnRlcm1lZGlhdGUgQ0EgMDAxMB4XDTE4MDgxNDE2MTYxM1oXDTE4MDkwNDE2
MTYxM1owgYkxCzAJBgNVBAYTAkNaMRowGAYDVQQIDBFKaWhvbW9yYXZza3kga3Jh
ajENMAsGA1UEBwwEQnJubzEjMCEGA1UECgwaT3BlblN0YWNrIENvbW1vbiBMaWJy
YXJpZXMxFDASBgNVBAsMC0VuZ2luZWVyaW5nMRQwEgYDVQQDDAtOb2RlIDAwMTAw
MjCCASIwDQYJKoZIhvcNAQEBBQADggEPADCCAQoCggEBAKPwPVQBYoK4OIfMvE/l
HQ9kpo6l0gVLdeGEzQach41W4xtw+cqLgMax4Z6EIgKlDJMJEPFO1xvrO90dVTNL
DIBJ53giGVb3KLlPv5HxTWWd0wstCLOAoYKHnp70xXe/MfVU1c7oAl8rIJod7vQu
V0QwNYVaDoJFLW64/vvmH8RinRRAUCgAwghzWcgBN32refdB1ci93qYRWvgho5zm
z6HxtEuXGqGuG36cUyAlEMmokzfauIXSDQVTMY8YjaNjOh9BRXMY+mmvL2YJi8LU
WF5G0YitNOxbmqXZWKRYkOf8T3QreedE+2TDnkXcKONnEb3LgV6CsW7aQJmNg70z
Oa8CAwEAAaOBxTCBwjAJBgNVHRMEAjAAMBEGCWCGSAGG+EIBAQQEAwIFoDAzBglg
hkgBhvhCAQ0EJhYkT3BlblNTTCBHZW5lcmF0ZWQgQ2xpZW50IENlcnRpZmljYXRl
MB0GA1UdDgQWBBTWht4lWbITVcN+sTpdENTZbzoZlDAfBgNVHSMEGDAWgBRSFPSJ
eKa8+xRCnHWTs49th4dPbTAOBgNVHQ8BAf8EBAMCBeAwHQYDVR0lBBYwFAYIKwYB
BQUHAwIGCCsGAQUFBwMEMA0GCSqGSIb3DQEBCwUAA4ICAQAMpCKElEqItbvZq9N/
V2lodB+JywoEqLSCIqQFHwkr0YFVj0ylhfI3HffAfXr5STzNQY8+P9M0GYXHZkBH
/Z1MA9xIewe0Jj8p004DUvXOfvGOBWnXXddXXdP32GQ3LAPFmQT2bIaM1zK4JPG3
JhSYU4mQ2pKlCwgrgIW4/M7wI5Qn/k+2DeIrki9/BwtA/msUiJW8EvCMvuwXqp8n
rKj6XIZLKGUhcW6+4eZQFIsN7nVEmsXdvuFQJRG9NNGl5YkxgICOwu8kIHD6YxKF
Ak7/UZhPNp8m8NFIS1I5vFlvnAnKxuRh4odlDrCb+B/kVIIAyQ7OTeC+1hcU061T
jZ5aYx5gWBePCTq52DFHwMcWk745bu8apquQb9Za+D3grhrqy90JbSUyF/uKtaDv
laWo3zMT+lwZLRf252nZuhQ3LKTo89aemVms1O8URYkCC9hytMmuW8k3W7xHC8dF
dG19adUt2kmjTfziutHECBoazNnf3ggIpQNN6CvLtP2qSSfTHOSrv/ivlEui9QP+
Mx5Bwe2QlF/mJTW+a7q2buThZQtZ8jSmNs7Uy1dF5BVYPQUGRyqcMUigPO1JJeUR
12/uPu33IE1Qqli6RoEjb3pbXtTTHuyNPm/bxGRfKuRAR5UgSSeRu82FQzmG/+dg
qr4N10teQsLIHSiJ+E2eW9mr0A==
-----END CERTIFICATE-----
