Certificate:
    Data:
        Version: 3 (0x2)
        Serial Number: 4100 (0x1004)
    Signature Algorithm: sha256WithRSAEncryption
        Issuer: C=CZ, ST=Jihomoravsky kraj, O=OpenStack Common Libraries, OU=Engineering, CN=Intermediate CA 001
        Validity
            Not Before: Aug 14 16:16:13 2018 GMT
            Not After : Sep  4 16:16:13 2018 GMT
        Subject: C=CZ, ST=Jihomoravsky kraj, L=Brno, O=OpenStack Common Libraries, OU=Engineering, CN=Node 001005
        Subject Public Key Info:
            Public Key Algorithm: rsaEncryption
                Public-Key: (2048 bit)
                Modulus:
                    00:c2:7a:fc:ae:57:ec:96:f1:98:49:b7:50:75:f1:
                    a3:3d:cb:c8:91:29:d1:9f:fa:84:44:22:ae:43:7e:
                    18:0e:ea:a8:78:a1:55:ef:85:24:db:82:10:51:10:
                    fb:34:58:a3:80:f7:2d:d2:eb:dd:8f:e7:96:bd:c2:
                    17:19:c1:a6:c8:7d:c4:b1:7c:27:1d:0d:c2:6a:d3:
                    b8:cf:da:8a:4d:52:b3:bb:28:ad:9e:57:5e:74:14:
                    85:4b:e2:5f:8f:af:80:ee:36:27:9c:16:36:92:ab:
                    41:07:91:92:6d:f7:22:69:ae:08:a6:34:b8:9f:87:
                    68:68:08:de:9b:8e:6c:7d:e4:e8:48:e1:8e:4f:32:
                    76:a6:ec:11:27:a8:c2:28:a5:5c:7b:66:6e:ba:3d:
                    ec:a8:3b:71:93:56:ea:ea:23:ed:33:0a:d0:84:16:
                    a3:3d:75:02:b1:e5:27:c9:ed:b5:5d:be:21:3c:34:
                    64:0e:22:4a:96:33:02:2d:97:f3:88:f3:1a:9c:0f:
                    7d:41:c6:07:82:e1:93:10:c1:64:c0:87:06:e0:3c:
                    5b:8f:ec:74:4e:18:99:0e:5e:05:aa:e5:a9:e9:03:
                    21:58:07:90:08:15:cb:e6:f2:8f:28:aa:cd:11:52:
                    ce:c0:8e:44:9f:be:2d:14:cf:4f:13:74:1b:46:ba:
                    cd:f9
                Exponent: 65537 (0x10001)
        X509v3 extensions:
            X509v3 Basic Constraints: 
                CA:FALSE
            Netscape Cert Type: 
                SSL Client, S/MIME
            Netscape Comment: 
                OpenSSL Generated Client Certificate
            X509v3 Subject Key Identifier: 
                FC:C5:2E:D0:0E:78:2D:D3:C5:CF:71:C1:DD:B8:68:F0:FD:99:F9:B7
            X509v3 Authority Key Identifier: 
                keyid:52:14:F4:89:78:A6:BC:FB:14:42:9C:75:93:B3:8F:6D:87:87:4F:6D

            X509v3 Key Usage: critical
                Digital Signature, Non Repudiation, Key Encipherment
            X509v3 Extended Key Usage: 
                TLS Web Client Authentication, E-mail Protection
    Signature Algorithm: sha256WithRSAEncryption
         89:37:ea:59:ca:07:c3:b5:d8:3e:04:4c:50:4c:9a:ec:3e:88:
         88:34:7c:aa:6b:f5:6e:f3:76:56:2c:34:ed:a3:b0:d1:66:ea:
         0a:cc:f8:6c:fa:dc:ec:62:ee:3a:17:4c:e4:e0:3b:a4:02:35:
         4b:1f:35:53:fa:8a:9a:7a:89:06:5c:10:1a:b7:71:9e:2e:39:
         fe:7a:04:f2:17:e8:0a:03:be:8b:8a:d2:65:a0:40:59:9f:46:
         39:08:9d:70:30:5d:f1:67:34:e5:4d:08:16:ff:1d:66:78:41:
         91:35:9c:91:26:f8:ce:c8:26:b5:e6:83:54:6b:a8:2c:b9:53:
         e9:34:7f:4c:52:8e:b0:df:9a:5f:77:43:0b:55:6c:5d:ab:02:
         d0:b8:b2:74:1e:74:15:75:dc:4b:97:a5:b1:89:09:f3:9c:24:
         8f:de:f8:e0:a7:46:9e:48:90:14:eb:c5:42:99:e5:58:85:b8:
         65:5e:e2:2a:80:0c:22:cb:c3:a2:82:9e:b4:5f:21:8b:5d:ae:
         e9:60:5e:35:b7:86:96:79:0e:e8:fe:64:aa:f6:d2:91:d5:b7:
         08:43:0d:32:b2:67:82:99:62:b6:ca:ef:9e:79:ca:72:e2:a8:
         54:fc:0d:55:d4:01:1a:97:fa:48:1e:5f:d9:d6:28:51:88:fe:
         d8:48:b2:fe:82:6f:cc:d3:05:4c:3f:75:34:26:8d:4b:3f:ad:
         05:ab:49:60:37:9e:23:05:2d:a5:29:10:b3:12:35:e5:03:29:
         34:2e:47:33:97:57:a8:73:48:08:4c:4d:62:7b:c7:2f:b1:4a:
         a0:9a:47:b4:28:10:7f:4a:ef:01:4d:1a:c7:45:57:59:43:94:
         b8:7b:0d:bd:aa:ab:5e:c0:b0:87:8a:48:6c:e4:c4:5a:91:51:
         0d:f2:4d:4d:f8:2c:8c:b4:84:1a:41:c7:ce:e1:5b:b1:be:93:
         5d:d3:7f:c2:3c:66:af:e1:93:65:af:04:63:ad:60:82:5c:83:
         19:ad:4a:0b:ad:94:ee:57:b2:7c:35:72:db:27:85:7b:dc:88:
         aa:69:c4:f7:74:89:1a:47:9e:0c:6f:26:30:50:31:34:b7:c4:
         24:48:f8:65:27:52:43:d5:a5:1c:0b:2c:0d:1c:16:e9:2c:b3:
         f8:db:2b:f0:01:51:e4:86:bc:7a:3a:a1:2a:d0:b7:61:f0:9f:
         ea:17:c6:fa:ad:1e:3b:a7:42:f5:61:b2:13:db:56:a6:78:8f:
         d5:5a:b2:b7:c1:6e:55:fe:45:5a:0d:93:4a:ef:5d:2f:91:21:
         55:e4:47:73:94:dc:b8:a3:0f:2f:b7:cd:bf:e0:e1:4c:74:7e:
         eb:bb:73:d7:9c:47:89:1b
-----BEGIN CERTIFICATE-----
MIIFTzCCAzegAwIBAgICEAQwDQYJKoZIhvcNAQELBQAwgYIxCzAJBgNVBAYTAkNa
MRowGAYDVQQIDBFKaWhvbW9yYXZza3kga3JhajEjMCEGA1UECgwaT3BlblN0YWNr
IENvbW1vbiBMaWJyYXJpZXMxFDASBgNVBAsMC0VuZ2luZWVyaW5nMRwwGgYDVQQD
DBNJbnRlcm1lZGlhdGUgQ0EgMDAxMB4XDTE4MDgxNDE2MTYxM1oXDTE4MDkwNDE2
MTYxM1owgYkxCzAJBgNVBAYTAkNaMRowGAYDVQQIDBFKaWhvbW9yYXZza3kga3Jh
ajENMAsGA1UEBwwEQnJubzEjMCEGA1UECgwaT3BlblN0YWNrIENvbW1vbiBMaWJy
YXJpZXMxFDASBgNVBAsMC0VuZ2luZWVyaW5nMRQwEgYDVQQDDAtOb2RlIDAwMTAw
NTCCASIwDQYJKoZIhvcNAQEBBQADggEPADCCAQoCggEBAMJ6/K5X7JbxmEm3UHXx
oz3LyJEp0Z/6hEQirkN+GA7qqHihVe+FJNuCEFEQ+zRYo4D3LdLr3Y/nlr3CFxnB
psh9xLF8Jx0NwmrTuM/aik1Ss7sorZ5XXnQUhUviX4+vgO42J5wWNpKrQQeRkm33
ImmuCKY0uJ+HaGgI3puObH3k6Ejhjk8ydqbsESeowiilXHtmbro97Kg7cZNW6uoj
7TMK0IQWoz11ArHlJ8nttV2+ITw0ZA4iSpYzAi2X84jzGpwPfUHGB4LhkxDBZMCH
BuA8W4/sdE4YmQ5eBarlqekDIVgHkAgVy+byjyiqzRFSzsCORJ++LRTPTxN0G0a6
zfkCAwEAAaOBxTCBwjAJBgNVHRMEAjAAMBEGCWCGSAGG+EIBAQQEAwIFoDAzBglg
hkgBhvhCAQ0EJhYkT3BlblNTTCBHZW5lcmF0ZWQgQ2xpZW50IENlcnRpZmljYXRl
MB0GA1UdDgQWBBT8xS7QDngt08XPccHduGjw/Zn5tzAfBgNVHSMEGDAWgBRSFPSJ
eKa8+xRCnHWTs49th4dPbTAOBgNVHQ8BAf8EBAMCBeAwHQYDVR0lBBYwFAYIKwYB
BQUHAwIGCCsGAQUFBwMEMA0GCSqGSIb3DQEBCwUAA4ICAQCJN+pZygfDtdg+BExQ
TJrsPoiINHyqa/Vu83ZWLDTto7DRZuoKzPhs+tzsYu46F0zk4DukAjVLHzVT+oqa
eokGXBAat3GeLjn+egTyF+gKA76LitJloEBZn0Y5CJ1wMF3xZzTlTQgW/x1meEGR
NZyRJvjOyCa15oNUa6gsuVPpNH9MUo6w35pfd0MLVWxdqwLQuLJ0HnQVddxLl6Wx
iQnznCSP3vjgp0aeSJAU68VCmeVYhbhlXuIqgAwiy8Oigp60XyGLXa7pYF41t4aW
eQ7o/mSq9tKR1bcIQw0ysmeCmWK2yu+eecpy4qhU/A1V1AEal/pIHl/Z1ihRiP7Y
SLL+gm/M0wVMP3U0Jo1LP60Fq0lgN54jBS2lKRCzEjXlAyk0Lkczl1eoc0gITE1i
e8cvsUqgmke0KBB/Su8BTRrHRVdZQ5S4ew29qqtewLCHikhs5MRakVEN8k1N+CyM
tIQaQcfO4VuxvpNd03/CPGav4ZNlrwRjrWCCXIMZrUoLrZTuV7J8NXLbJ4V73Iiq
acT3dIkaR54MbyYwUDE0t8QkSPhlJ1JD1aUcCywNHBbpLLP42yvwAVHkhrx6OqEq
0Ldh8J/qF8b6rR47p0L1YbIT21ameI/VWrK3wW5V/kVaDZNK710vkSFV5EdzlNy4
ow8vt82/4OFMdH7ru3PXnEeJGw==
-----END CERTIFICATE-----
