Certificate:
    Data:
        Version: 3 (0x2)
        Serial Number: 4099 (0x1003)
    Signature Algorithm: sha256WithRSAEncryption
        Issuer: C=CZ, ST=Jihomoravsky kraj, O=OpenStack Common Libraries, OU=Engineering, CN=Intermediate CA 001
        Validity
            Not Before: Aug 14 16:16:13 2018 GMT
            Not After : Sep  4 16:16:13 2018 GMT
        Subject: C=CZ, ST=Jihomoravsky kraj, L=Brno, O=OpenStack Common Libraries, OU=Engineering, CN=Node 001004
        Subject Public Key Info:
            Public Key Algorithm: rsaEncryption
                Public-Key: (2048 bit)
                Modulus:
                    00:bf:b8:fa:d1:ff:5f:bc:04:14:e0:98:5d:ed:b3:
                    6d:56:18:8f:76:4d:32:cb:ea:5e:2d:11:9c:59:77:
                    e9:fb:5b:9c:aa:d4:6f:c9:53:2c:34:9c:a4:24:56:
                    db:4e:b3:96:c0:f0:dd:9b:18:dd:87:af:01:e2:d0:
                    8e:ca:8d:cc:f0:89:0c:cb:6e:13:b7:b5:44:f0:59:
                    fa:ec:05:f1:a2:1d:61:b1:0d:3f:be:e1:e3:09:71:
                    fe:90:d8:9d:dd:77:14:11:3c:df:7a:44:44:d3:77:
                    0f:e3:26:61:23:da:88:c7:78:c2:ec:48:69:32:57:
                    9f:27:6f:da:3b:6b:28:b8:a6:8a:24:d7:ee:53:4f:
                    6d:83:e7:ca:fa:93:e8:f5:ef:71:aa:4e:f4:a7:0e:
                    a5:a9:12:cd:c1:b3:33:45:21:49:bc:0e:eb:c0:56:
                    3c:16:0b:c5:04:16:57:6c:17:f3:a7:bd:1d:06:8c:
                    a5:f0:4d:bf:2e:66:da:30:37:0c:0b:d2:04:f4:99:
                    44:6d:1d:1e:90:c4:13:3a:36:42:b4:4a:96:b7:2f:
                    a9:ab:ff:f4:ba:dd:f1:35:f5:92:9f:46:a4:dd:b2:
                    af:61:76:5f:d3:4c:ff:bf:fe:f5:79:2b:87:7c:5c:
                    ce:00:f8:6a:4c:8c:27:10:c2:1b:11:d9:1e:61:44:
                    16:93
                Exponent: 65537 (0x10001)
        X509v3 extensions:
            X509v3 Basic Constraints: 
                CA:FALSE
            Netscape Cert Type: 
                SSL Client, S/MIME
            Netscape Comment: 
                OpenSSL Generated Client Certificate
            X509v3 Subject Key Identifier: 
                8D:C2:E3:C7:5D:DF:F8:6C:10:92:4B:84:C5:8B:07:18:97:2C:53:0D
            X509v3 Authority Key Identifier: 
                keyid:52:14:F4:89:78:A6:BC:FB:14:42:9C:75:93:B3:8F:6D:87:87:4F:6D

            X509v3 Key Usage: critical
                Digital Signature, Non Repudiation, Key Encipherment
            X509v3 Extended Key Usage: 
                TLS Web Client Authentication, E-mail Protection
    Signature Algorithm: sha256WithRSAEncryption
         be:4d:63:a7:76:9d:0b:f0:9c:20:6b:4b:1c:66:b0:b7:d2:49:
         72:fe:d7:62:98:e7:be:61:ab:fe:57:c1:fc:71:d1:f9:33:a4:
         79:e4:41:2a:e6:9d:aa:95:06:01:b0:d3:7e:11:23:fc:b3:14:
         75:41:39:5a:03:38:ac:d6:6d:40:97:7b:19:14:e9:0f:a2:7e:
         17:c4:9c:8a:c0:70:40:05:5a:c6:48:24:54:71:9a:05:6f:28:
         cc:b4:63:73:33:44:68:4e:9b:21:88:36:8a:75:21:9b:8d:91:
         9a:0a:d0:bd:0a:67:da:0b:d5:39:2b:dc:5a:ca:ec:52:7c:db:
         7c:d6:f3:5e:e4:10:9b:70:e5:ba:d8:1a:12:e5:f1:de:c7:79:
         ad:b9:5c:ae:28:c5:12:50:f0:d2:ae:22:44:e9:a1:fc:c9:95:
         6d:03:85:02:3d:4b:b9:64:1d:07:45:92:59:d4:25:cb:ea:58:
         04:5c:84:e2:06:64:54:99:3d:e1:a4:34:a9:5b:39:f3:d2:6c:
         14:de:d1:f1:7f:73:07:3b:dc:19:b2:8a:b1:54:d5:c8:f3:25:
         71:99:5c:ac:09:e8:ad:7a:95:9f:76:ab:03:af:3e:dd:a8:37:
         5d:0d:b4:bc:f9:c6:a5:3d:7e:b8:11:33:4e:dd:6d:79:77:59:
         f9:7f:02:6d:95:a6:76:a6:74:12:3b:26:ee:a4:18:9f:a1:07:
         91:e2:e2:1c:dd:bb:4e:61:74:a0:a4:c3:74:6b:0c:d2:7f:0e:
         91:ec:ea:14:a0:83:e6:62:49:9a:1c:93:49:01:20:66:e2:5c:
         8a:b0:04:24:7f:a4:46:3c:b5:47:0d:2b:32:96:dd:b1:93:c8:
         b3:c8:1a:52:33:05:5b:d5:a9:c0:d3:f5:28:70:53:10:80:d5:
         37:77:7f:89:57:7a:ed:ae:36:18:4e:b7:01:f9:08:0c:b9:d6:
         1c:57:83:1a:d4:c4:68:56:12:cb:d4:0c:0b:c1:cf:09:bf:9a:
         cc:40:27:2f:da:dd:b4:44:bd:8b:a8:fd:74:6d:90:71:42:9f:
         64:e1:be:cd:d2:92:97:50:69:f3:42:2e:a7:82:3b:ed:ff:18:
         cc:54:3f:f8:77:f2:ad:63:dc:19:41:6d:65:f5:cd:f7:42:e7:
         06:bc:fe:39:15:c9:f0:6f:f4:1e:bd:b0:ac:13:5c:07:61:2e:
         c2:43:12:9a:48:ec:b9:66:6f:7d:82:1e:bf:db:cd:a1:d5:ed:
         79:f2:1d:3d:79:e0:0c:0d:7e:0a:f9:64:f1:f1:15:ff:d6:34:
         01:02:39:d2:47:09:6a:10:b8:fa:cb:52:c6:33:46:88:c6:e6:
         20:67:4c:34:2e:7f:09:52
-----BEGIN CERTIFICATE-----
MIIFTzCCAzegAwIBAgICEAMwDQYJKoZIhvcNAQELBQAwgYIxCzAJBgNVBAYTAkNa
MRowGAYDVQQIDBFKaWhvbW9yYXZza3kga3JhajEjMCEGA1UECgwaT3BlblN0YWNr
IENvbW1vbiBMaWJyYXJpZXMxFDASBgNVBAsMC0VuZ2luZWVyaW5nMRwwGgYDVQQD
DBNJbnRlcm1lZGlhdGUgQ0EgMDAxMB4XDTE4MDgxNDE2MTYxM1oXDTE4MDkwNDE2
MTYxM1owgYkxCzAJBgNVBAYTAkNaMRowGAYDVQQIDBFKaWhvbW9yYXZza3kga3Jh
ajENMAsGA1UEBwwEQnJubzEjMCEGA1UECgwaT3BlblN0YWNrIENvbW1vbiBMaWJy
YXJpZXMxFDASBgNVBAsMC0VuZ2luZWVyaW5nMRQwEgYDVQQDDAtOb2RlIDAwMTAw
NDCCASIwDQYJKoZIhvcNAQEBBQADggEPADCCAQoCggEBAL+4+tH/X7wEFOCYXe2z
bVYYj3ZNMsvqXi0RnFl36ftbnKrUb8lTLDScpCRW206zlsDw3ZsY3YevAeLQjsqN
zPCJDMtuE7e1RPBZ+uwF8aIdYbENP77h4wlx/pDYnd13FBE833pERNN3D+MmYSPa
iMd4wuxIaTJXnydv2jtrKLimiiTX7lNPbYPnyvqT6PXvcapO9KcOpakSzcGzM0Uh
SbwO68BWPBYLxQQWV2wX86e9HQaMpfBNvy5m2jA3DAvSBPSZRG0dHpDEEzo2QrRK
lrcvqav/9Lrd8TX1kp9GpN2yr2F2X9NM/7/+9Xkrh3xczgD4akyMJxDCGxHZHmFE
FpMCAwEAAaOBxTCBwjAJBgNVHRMEAjAAMBEGCWCGSAGG+EIBAQQEAwIFoDAzBglg
hkgBhvhCAQ0EJhYkT3BlblNTTCBHZW5lcmF0ZWQgQ2xpZW50IENlcnRpZmljYXRl
MB0GA1UdDgQWBBSNwuPHXd/4bBCSS4TFiwcYlyxTDTAfBgNVHSMEGDAWgBRSFPSJ
eKa8+xRCnHWTs49th4dPbTAOBgNVHQ8BAf8EBAMCBeAwHQYDVR0lBBYwFAYIKwYB
BQUHAwIGCCsGAQUFBwMEMA0GCSqGSIb3DQEBCwUAA4ICAQC+TWOndp0L8Jwga0sc
ZrC30kly/tdimOe+Yav+V8H8cdH5M6R55EEq5p2qlQYBsNN+ESP8sxR1QTlaAzis
1m1Al3sZFOkPon4XxJyKwHBABVrGSCRUcZoFbyjMtGNzM0RoTpshiDaKdSGbjZGa
CtC9CmfaC9U5K9xayuxSfNt81vNe5BCbcOW62BoS5fHex3mtuVyuKMUSUPDSriJE
6aH8yZVtA4UCPUu5ZB0HRZJZ1CXL6lgEXITiBmRUmT3hpDSpWznz0mwU3tHxf3MH
O9wZsoqxVNXI8yVxmVysCeitepWfdqsDrz7dqDddDbS8+calPX64ETNO3W15d1n5
fwJtlaZ2pnQSOybupBifoQeR4uIc3btOYXSgpMN0awzSfw6R7OoUoIPmYkmaHJNJ
ASBm4lyKsAQkf6RGPLVHDSsylt2xk8izyBpSMwVb1anA0/UocFMQgNU3d3+JV3rt
rjYYTrcB+QgMudYcV4Ma1MRoVhLL1AwLwc8Jv5rMQCcv2t20RL2LqP10bZBxQp9k
4b7N0pKXUGnzQi6ngjvt/xjMVD/4d/KtY9wZQW1l9c33QucGvP45Fcnwb/QevbCs
E1wHYS7CQxKaSOy5Zm99gh6/282h1e158h09eeAMDX4K+WTx8RX/1jQBAjnSRwlq
ELj6y1LGM0aIxuYgZ0w0Ln8JUg==
-----END CERTIFICATE-----
