Certificate:
    Data:
        Version: 3 (0x2)
        Serial Number: 4096 (0x1000)
    Signature Algorithm: sha256WithRSAEncryption
        Issuer: C=CZ, ST=Jihomoravsky kraj, O=OpenStack Common Libraries, OU=Engineering, CN=Intermediate CA 001
        Validity
            Not Before: Aug 14 16:16:13 2018 GMT
            Not After : Sep  4 16:16:13 2018 GMT
        Subject: C=CZ, ST=Jihomoravsky kraj, L=Brno, O=OpenStack Common Libraries, OU=Engineering, CN=Node 001001
        Subject Public Key Info:
            Public Key Algorithm: rsaEncryption
                Public-Key: (2048 bit)
                Modulus:
                    00:9e:58:5d:b4:b2:2f:67:9d:ba:34:21:0d:ce:4c:
                    69:4c:42:16:94:46:60:36:0a:5b:35:1e:8d:a7:60:
                    4c:d0:51:4a:7c:4f:10:ad:48:9c:dd:ad:ea:e0:e5:
                    66:76:05:fd:5c:b0:24:02:12:8a:05:f0:38:ee:ec:
                    fb:ad:30:74:68:1c:be:6c:46:66:dc:e9:8c:b7:a0:
                    55:46:6d:7c:b6:6d:8d:0b:70:cd:ea:50:da:1f:61:
                    8a:59:aa:72:93:d4:56:15:f0:ac:b2:b4:66:e8:42:
                    3c:b4:51:60:92:5b:d7:12:68:e9:0e:12:92:64:69:
                    a5:b6:37:31:e2:9b:7e:c3:e5:82:0d:d9:21:98:0c:
                    8c:0c:55:76:8f:34:c3:e6:ed:fd:04:81:b5:a4:b3:
                    88:ae:54:10:9d:d3:64:9e:f5:f1:51:92:ce:fa:a9:
                    3d:12:d3:0f:c3:e9:59:ef:cc:f6:86:8a:c4:66:c9:
                    6b:47:4e:b4:9b:60:65:ee:37:09:94:12:df:6d:33:
                    21:ba:f9:86:eb:ef:20:e6:3b:9e:fa:1c:f9:3f:33:
                    0d:fb:d2:e1:c7:7e:af:61:8a:d3:4f:05:35:b7:f3:
                    a7:93:77:ad:b4:06:a9:54:18:07:10:e4:b4:17:4b:
                    94:6c:b0:27:1d:6c:f5:ae:dc:14:63:95:3c:42:26:
                    de:d1
                Exponent: 65537 (0x10001)
        X509v3 extensions:
            X509v3 Basic Constraints: 
                CA:FALSE
            Netscape Cert Type: 
                SSL Client, S/MIME
            Netscape Comment: 
                OpenSSL Generated Client Certificate
            X509v3 Subject Key Identifier: 
                91:44:AD:7D:C6:60:29:83:25:2E:D2:1D:86:C7:71:5C:8C:D7:56:45
            X509v3 Authority Key Identifier: 
                keyid:52:14:F4:89:78:A6:BC:FB:14:42:9C:75:93:B3:8F:6D:87:87:4F:6D

            X509v3 Key Usage: critical
                Digital Signature, Non Repudiation, Key Encipherment
            X509v3 Extended Key Usage: 
                TLS Web Client Authentication, E-mail Protection
    Signature Algorithm: sha256WithRSAEncryption
         3a:05:c3:0f:a1:cb:c1:c2:c0:29:9b:4c:61:6b:28:a7:b9:7e:
         8a:f6:ca:2b:53:cb:8d:a7:37:d6:3d:52:75:ee:c6:70:c5:d0:
         15:ee:e7:0c:2c:55:66:f7:e8:c9:f7:0e:b5:b4:1e:fc:b4:d9:
         c1:fa:18:32:5d:06:ed:01:ba:3a:79:93:4e:d7:5c:b4:9b:46:
         9d:73:ef:04:58:91:e7:22:73:b0:a8:63:2f:e7:12:25:96:13:
         77:3e:ef:a6:12:b2:1f:04:47:76:8e:b4:ce:d9:13:69:3e:25:
         3f:6e:97:f9:8f:88:aa:40:cf:9b:6f:3e:8c:f5:0a:68:0a:59:
         55:2c:c5:4c:5e:78:56:a5:b5:01:be:4c:84:7d:ed:3f:3e:73:
         67:c9:93:c1:bb:55:6f:44:4b:06:79:6b:af:ce:ed:d3:8d:b3:
         0c:48:d8:55:05:97:49:1d:9d:50:9f:fb:df:f3:b5:e3:de:2e:
         87:26:7c:ed:3a:16:2f:df:63:68:1b:69:ea:37:31:9b:4e:ff:
         3d:40:ea:73:d6:ea:2a:f5:84:a9:53:59:c7:c9:f4:ab:66:e2:
         7b:d0:3e:3d:23:a0:70:16:b7:76:6b:e7:4b:1b:e4:d8:ec:d4:
         b6:f8:c1:5f:38:da:e2:c2:c8:ea:83:d5:46:35:45:2e:fa:38:
         f4:5f:45:ba:68:e9:91:aa:03:bb:94:6a:e3:83:42:44:1a:36:
         83:7e:cd:4c:ac:b9:18:90:8c:91:fa:03:c6:4b:35:34:8a:ec:
         90:a3:0e:70:92:9b:6a:6b:fc:29:fe:6f:0a:01:b8:71:ab:03:
         49:73:4e:01:8d:54:4d:24:a6:42:df:15:af:2a:7a:33:36:25:
         ab:e7:8d:cc:58:fd:cb:84:74:45:c3:26:d9:78:0f:48:f6:24:
         77:d9:bb:2e:c5:55:69:5d:fe:fd:e4:96:c9:9e:a4:88:d9:bf:
         31:3e:1e:97:44:0b:d4:a9:03:35:39:a7:66:a2:a2:6b:4e:21:
         c0:b8:e0:eb:75:af:9b:fd:94:6c:74:1c:8c:dd:16:1a:7c:a2:
         0e:4d:bc:1b:48:67:ab:e3:f2:01:49:40:c3:ea:e6:f8:5d:2c:
         c4:2b:39:7b:b4:8f:83:47:29:3b:6d:5b:1c:ec:cc:a1:fd:44:
         48:69:a4:a8:b9:68:85:12:0c:e2:20:41:7f:38:9c:71:9e:d8:
         ee:6b:92:c4:05:4d:07:7c:70:99:d2:f9:c0:ed:33:ea:02:5a:
         ef:94:f0:50:a2:ce:b7:0e:0e:0c:31:6c:0b:8c:eb:c9:ca:64:
         4e:1a:aa:71:74:34:d9:b9:57:1a:a8:26:b4:58:dd:65:45:7b:
         0a:5e:7a:00:30:71:41:e4
-----BEGIN CERTIFICATE-----
MIIFTzCCAzegAwIBAgICEAAwDQYJKoZIhvcNAQELBQAwgYIxCzAJBgNVBAYTAkNa
MRowGAYDVQQIDBFKaWhvbW9yYXZza3kga3JhajEjMCEGA1UECgwaT3BlblN0YWNr
IENvbW1vbiBMaWJyYXJpZXMxFDASBgNVBAsMC0VuZ2luZWVyaW5nMRwwGgYDVQQD
DBNJbnRlcm1lZGlhdGUgQ0EgMDAxMB4XDTE4MDgxNDE2MTYxM1oXDTE4MDkwNDE2
MTYxM1owgYkxCzAJBgNVBAYTAkNaMRowGAYDVQQIDBFKaWhvbW9yYXZza3kga3Jh
ajENMAsGA1UEBwwEQnJubzEjMCEGA1UECgwaT3BlblN0YWNrIENvbW1vbiBMaWJy
YXJpZXMxFDASBgNVBAsMC0VuZ2luZWVyaW5nMRQwEgYDVQQDDAtOb2RlIDAwMTAw
MTCCASIwDQYJKoZIhvcNAQEBBQADggEPADCCAQoCggEBAJ5YXbSyL2edujQhDc5M
aUxCFpRGYDYKWzUejadgTNBRSnxPEK1InN2t6uDlZnYF/VywJAISigXwOO7s+60w
dGgcvmxGZtzpjLegVUZtfLZtjQtwzepQ2h9hilmqcpPUVhXwrLK0ZuhCPLRRYJJb
1xJo6Q4SkmRppbY3MeKbfsPlgg3ZIZgMjAxVdo80w+bt/QSBtaSziK5UEJ3TZJ71
8VGSzvqpPRLTD8PpWe/M9oaKxGbJa0dOtJtgZe43CZQS320zIbr5huvvIOY7nvoc
+T8zDfvS4cd+r2GK008FNbfzp5N3rbQGqVQYBxDktBdLlGywJx1s9a7cFGOVPEIm
3tECAwEAAaOBxTCBwjAJBgNVHRMEAjAAMBEGCWCGSAGG+EIBAQQEAwIFoDAzBglg
hkgBhvhCAQ0EJhYkT3BlblNTTCBHZW5lcmF0ZWQgQ2xpZW50IENlcnRpZmljYXRl
MB0GA1UdDgQWBBSRRK19xmApgyUu0h2Gx3FcjNdWRTAfBgNVHSMEGDAWgBRSFPSJ
eKa8+xRCnHWTs49th4dPbTAOBgNVHQ8BAf8EBAMCBeAwHQYDVR0lBBYwFAYIKwYB
BQUHAwIGCCsGAQUFBwMEMA0GCSqGSIb3DQEBCwUAA4ICAQA6BcMPocvBwsApm0xh
ayinuX6K9sorU8uNpzfWPVJ17sZwxdAV7ucMLFVm9+jJ9w61tB78tNnB+hgyXQbt
Abo6eZNO11y0m0adc+8EWJHnInOwqGMv5xIllhN3Pu+mErIfBEd2jrTO2RNpPiU/
bpf5j4iqQM+bbz6M9QpoCllVLMVMXnhWpbUBvkyEfe0/PnNnyZPBu1VvREsGeWuv
zu3TjbMMSNhVBZdJHZ1Qn/vf87Xj3i6HJnztOhYv32NoG2nqNzGbTv89QOpz1uoq
9YSpU1nHyfSrZuJ70D49I6BwFrd2a+dLG+TY7NS2+MFfONriwsjqg9VGNUUu+jj0
X0W6aOmRqgO7lGrjg0JEGjaDfs1MrLkYkIyR+gPGSzU0iuyQow5wkptqa/wp/m8K
AbhxqwNJc04BjVRNJKZC3xWvKnozNiWr543MWP3LhHRFwybZeA9I9iR32bsuxVVp
Xf795JbJnqSI2b8xPh6XRAvUqQM1OadmoqJrTiHAuODrda+b/ZRsdByM3RYafKIO
TbwbSGer4/IBSUDD6ub4XSzEKzl7tI+DRyk7bVsc7Myh/URIaaSouWiFEgziIEF/
OJxxntjua5LEBU0HfHCZ0vnA7TPqAlrvlPBQos63Dg4MMWwLjOvJymROGqpxdDTZ
uVcaqCa0WN1lRXsKXnoAMHFB5A==
-----END CERTIFICATE-----
