Certificate:
    Data:
        Version: 3 (0x2)
        Serial Number: 4097 (0x1001)
    Signature Algorithm: sha256WithRSAEncryption
        Issuer: C=CZ, ST=Jihomoravsky kraj, O=OpenStack Common Libraries, OU=Engineering, CN=Intermediate CA 001
        Validity
            Not Before: Aug 10 16:28:12 2018 GMT
            Not After : Aug 31 16:28:12 2018 GMT
        Subject: C=CZ, ST=Jihomoravsky kraj, L=Brno, O=OpenStack Common Libraries, OU=Engineering, CN=Node 001002
        Subject Public Key Info:
            Public Key Algorithm: rsaEncryption
                Public-Key: (2048 bit)
                Modulus:
                    00:b4:f6:8b:58:7c:d5:6d:20:02:06:fd:e1:56:79:
                    84:aa:b7:5c:82:49:9b:fd:e7:84:da:70:84:62:48:
                    ef:63:49:41:df:33:86:d3:a1:b6:3d:57:49:8f:89:
                    a1:40:5a:e7:6f:43:f3:77:fd:ab:7e:a6:ca:8f:c6:
                    de:db:e9:12:22:c2:68:fe:10:38:cb:26:34:3e:f4:
                    13:c0:1b:82:9c:1f:a8:60:64:20:36:13:f9:92:43:
                    77:48:03:c8:6c:ee:32:a2:27:e5:f4:aa:9d:70:99:
                    fc:41:0e:86:c2:6b:a7:60:18:05:e7:ef:31:12:2e:
                    61:2a:d1:2e:63:fe:e4:0d:9f:3e:ce:40:d5:0e:9b:
                    36:34:85:5a:0a:31:a4:37:c5:d5:20:5a:a9:31:53:
                    60:ca:83:4b:06:50:a0:d0:4d:0d:07:78:77:b3:ce:
                    35:3d:22:b7:50:7c:a7:a9:7d:90:2f:74:cc:bf:c4:
                    d4:f3:98:ec:e8:a8:5c:28:5a:99:b8:01:c7:d1:62:
                    9d:db:a1:e3:3e:18:84:ff:f3:fb:91:07:31:44:24:
                    ed:f3:36:7e:16:9a:51:c4:1a:88:b2:b3:e0:b7:46:
                    96:e0:ec:17:b2:5b:bf:24:a1:08:47:b5:72:21:82:
                    10:a5:f0:bb:35:a2:25:9c:00:9c:c9:76:c8:44:02:
                    32:93
                Exponent: 65537 (0x10001)
        X509v3 extensions:
            X509v3 Basic Constraints: 
                CA:FALSE
            Netscape Cert Type: 
                SSL Client, S/MIME
            Netscape Comment: 
                OpenSSL Generated Client Certificate
            X509v3 Subject Key Identifier: 
                F1:96:B4:63:87:A2:5D:ED:04:92:BF:96:4C:99:BF:3E:85:0A:C7:63
            X509v3 Authority Key Identifier: 
                keyid:A2:59:AB:45:0D:FE:EA:9D:4E:75:93:DB:A4:F5:0A:34:DE:EC:00:4E

            X509v3 Key Usage: critical
                Digital Signature, Non Repudiation, Key Encipherment
            X509v3 Extended Key Usage: 
                TLS Web Client Authentication, E-mail Protection
    Signature Algorithm: sha256WithRSAEncryption
         26:c7:c9:21:24:b0:23:09:c3:92:34:48:70:39:66:ec:6f:cd:
         02:7f:50:f7:66:fd:d1:88:bd:f6:8e:b0:6c:25:bc:5d:53:df:
         4d:1e:63:7a:e5:96:ec:00:cb:d3:d0:e5:4b:0d:1b:67:bc:e8:
         a3:89:2c:79:33:af:6a:cb:37:7c:45:e9:63:b6:bd:70:cb:f1:
         59:64:61:d0:55:41:a0:86:43:c2:ec:e8:23:80:03:a3:eb:f7:
         8d:99:fc:b0:c1:60:cc:c6:1b:33:1f:cb:a1:9f:e1:75:38:6a:
         10:b1:61:37:d1:de:66:81:4e:29:71:66:90:a8:eb:2f:2d:09:
         a6:46:2a:ab:dc:33:61:bd:27:f1:4c:1c:5e:58:86:c5:4e:15:
         9a:b8:38:1c:fa:80:e7:4b:29:5a:74:7a:3d:60:97:41:17:39:
         fe:c1:3e:d3:25:b6:52:53:3e:97:ae:92:6b:ad:d6:36:65:10:
         a7:a7:75:6c:51:df:d4:14:d2:7e:dd:d3:43:73:e0:a0:4d:a0:
         54:70:36:c6:df:c6:4e:84:ef:6a:6a:33:cf:25:06:d5:91:92:
         1e:ec:d0:fe:a3:16:1b:99:94:a2:66:dd:21:b6:80:3b:a0:60:
         79:00:84:2f:12:83:95:e7:5b:a3:ff:a6:5f:84:7b:1f:a1:29:
         39:7f:36:68
-----BEGIN CERTIFICATE-----
MIIETzCCAzegAwIBAgICEAEwDQYJKoZIhvcNAQELBQAwgYIxCzAJBgNVBAYTAkNa
MRowGAYDVQQIDBFKaWhvbW9yYXZza3kga3JhajEjMCEGA1UECgwaT3BlblN0YWNr
IENvbW1vbiBMaWJyYXJpZXMxFDASBgNVBAsMC0VuZ2luZWVyaW5nMRwwGgYDVQQD
DBNJbnRlcm1lZGlhdGUgQ0EgMDAxMB4XDTE4MDgxMDE2MjgxMloXDTE4MDgzMTE2
MjgxMlowgYkxCzAJBgNVBAYTAkNaMRowGAYDVQQIDBFKaWhvbW9yYXZza3kga3Jh
ajENMAsGA1UEBwwEQnJubzEjMCEGA1UECgwaT3BlblN0YWNrIENvbW1vbiBMaWJy
YXJpZXMxFDASBgNVBAsMC0VuZ2luZWVyaW5nMRQwEgYDVQQDDAtOb2RlIDAwMTAw
MjCCASIwDQYJKoZIhvcNAQEBBQADggEPADCCAQoCggEBALT2i1h81W0gAgb94VZ5
hKq3XIJJm/3nhNpwhGJI72NJQd8zhtOhtj1XSY+JoUBa529D83f9q36myo/G3tvp
EiLCaP4QOMsmND70E8AbgpwfqGBkIDYT+ZJDd0gDyGzuMqIn5fSqnXCZ/EEOhsJr
p2AYBefvMRIuYSrRLmP+5A2fPs5A1Q6bNjSFWgoxpDfF1SBaqTFTYMqDSwZQoNBN
DQd4d7PONT0it1B8p6l9kC90zL/E1POY7OioXChambgBx9Finduh4z4YhP/z+5EH
MUQk7fM2fhaaUcQaiLKz4LdGluDsF7JbvyShCEe1ciGCEKXwuzWiJZwAnMl2yEQC
MpMCAwEAAaOBxTCBwjAJBgNVHRMEAjAAMBEGCWCGSAGG+EIBAQQEAwIFoDAzBglg
hkgBhvhCAQ0EJhYkT3BlblNTTCBHZW5lcmF0ZWQgQ2xpZW50IENlcnRpZmljYXRl
MB0GA1UdDgQWBBTxlrRjh6Jd7QSSv5ZMmb8+hQrHYzAfBgNVHSMEGDAWgBSiWatF
Df7qnU51k9uk9Qo03uwATjAOBgNVHQ8BAf8EBAMCBeAwHQYDVR0lBBYwFAYIKwYB
BQUHAwIGCCsGAQUFBwMEMA0GCSqGSIb3DQEBCwUAA4IBAQAmx8khJLAjCcOSNEhw
OWbsb80Cf1D3Zv3RiL32jrBsJbxdU99NHmN65ZbsAMvT0OVLDRtnvOijiSx5M69q
yzd8Reljtr1wy/FZZGHQVUGghkPC7OgjgAOj6/eNmfywwWDMxhszH8uhn+F1OGoQ
sWE30d5mgU4pcWaQqOsvLQmmRiqr3DNhvSfxTBxeWIbFThWauDgc+oDnSyladHo9
YJdBFzn+wT7TJbZSUz6XrpJrrdY2ZRCnp3VsUd/UFNJ+3dNDc+CgTaBUcDbG38ZO
hO9qajPPJQbVkZIe7ND+oxYbmZSiZt0htoA7oGB5AIQvEoOV51uj/6ZfhHsfoSk5
fzZo
-----END CERTIFICATE-----
