Certificate:
    Data:
        Version: 3 (0x2)
        Serial Number: 4100 (0x1004)
    Signature Algorithm: sha256WithRSAEncryption
        Issuer: C=CZ, ST=Jihomoravsky kraj, O=OpenStack Common Libraries, OU=Engineering, CN=Intermediate CA 001
        Validity
            Not Before: Aug 10 16:28:14 2018 GMT
            Not After : Aug 31 16:28:14 2018 GMT
        Subject: C=CZ, ST=Jihomoravsky kraj, L=Brno, O=OpenStack Common Libraries, OU=Engineering, CN=Node 001005
        Subject Public Key Info:
            Public Key Algorithm: rsaEncryption
                Public-Key: (2048 bit)
                Modulus:
                    00:e5:f6:b9:ba:d5:ff:03:d3:0c:41:1c:45:8f:fa:
                    26:cb:55:6c:24:7b:9d:a9:4b:92:28:14:0a:57:9a:
                    6b:70:64:9b:39:7c:71:39:53:24:b9:da:34:d6:43:
                    2b:1d:ee:fb:63:78:cb:f1:32:56:71:5d:84:90:77:
                    c4:2f:36:d0:d4:2e:29:c9:7a:71:b6:89:2c:7a:2c:
                    bf:e0:a8:48:5d:c2:a8:87:b8:15:37:82:49:ce:0f:
                    a7:3a:3b:e1:cc:a3:ce:9a:86:74:45:66:ae:33:42:
                    7f:36:9a:c1:d5:bf:60:15:56:64:6c:6c:ea:b4:40:
                    d3:69:e6:fb:e8:b9:05:21:8e:56:d3:48:58:5a:ea:
                    6d:3e:0f:d9:36:1d:47:5c:a0:15:76:47:57:fb:a5:
                    46:f1:9b:a6:82:f0:27:82:ca:d0:cb:fa:2b:45:83:
                    6b:eb:28:f1:2e:16:b7:20:cd:f5:4f:e2:47:a1:94:
                    8d:3c:b1:b7:e3:d3:b1:f3:be:9b:c7:12:ec:d5:3f:
                    55:c6:38:1e:9c:94:60:c5:92:32:4e:1d:f6:04:3b:
                    b8:ee:31:58:a5:9f:12:6e:82:45:cd:f4:7f:e7:6d:
                    61:9e:5f:fb:fa:d1:21:73:93:7b:9d:e0:c3:18:92:
                    44:b1:ca:d2:1b:70:28:5d:64:4c:e9:df:16:95:16:
                    cb:b3
                Exponent: 65537 (0x10001)
        X509v3 extensions:
            X509v3 Basic Constraints: 
                CA:FALSE
            Netscape Cert Type: 
                SSL Client, S/MIME
            Netscape Comment: 
                OpenSSL Generated Client Certificate
            X509v3 Subject Key Identifier: 
                9D:CB:59:9E:1F:15:42:92:41:87:A7:A2:14:9C:86:32:85:5E:22:AE
            X509v3 Authority Key Identifier: 
                keyid:A2:59:AB:45:0D:FE:EA:9D:4E:75:93:DB:A4:F5:0A:34:DE:EC:00:4E

            X509v3 Key Usage: critical
                Digital Signature, Non Repudiation, Key Encipherment
            X509v3 Extended Key Usage: 
                TLS Web Client Authentication, E-mail Protection
    Signature Algorithm: sha256WithRSAEncryption
         6f:31:29:3e:4a:e3:c7:ab:47:8a:58:17:e3:36:b2:b1:d4:71:
         35:ba:3f:da:0e:5b:af:bb:74:bc:c9:cb:85:08:a1:6a:6b:e3:
         68:52:a9:56:ef:9d:98:37:36:0b:04:c8:00:3d:56:2c:1e:e7:
         63:d4:0c:ef:d7:7f:05:03:b6:92:54:14:95:61:e8:6a:41:3b:
         d2:3c:1b:22:c2:7e:85:16:f9:9e:0b:ed:ae:b4:73:dc:d5:38:
         0c:fd:48:82:b9:73:eb:5a:eb:22:7e:db:83:7d:1f:3d:79:a5:
         32:9d:f9:1a:29:6c:95:4b:c8:39:c9:fa:b9:e4:ee:ca:83:7c:
         7e:fe:aa:db:0a:41:f7:87:52:13:46:e8:8f:3b:30:55:9b:d0:
         38:15:02:b5:c0:79:82:ed:87:50:4e:4a:1a:c6:07:0c:1c:32:
         e7:7d:09:96:f2:d7:26:7d:7c:3e:57:31:ea:bb:90:ad:7f:5c:
         9b:2b:98:18:a3:39:39:91:c3:dc:04:d8:14:87:b9:ce:13:e8:
         31:aa:6f:dc:90:78:6f:03:8a:bc:85:3c:3f:b4:c8:37:90:c3:
         6c:5a:47:3f:db:ec:4e:fa:bd:da:a5:fe:2c:de:42:7f:a8:c1:
         29:bf:54:46:4e:3f:b5:0c:83:29:4a:7e:4c:72:65:71:7c:96:
         ac:2d:1a:9a
-----BEGIN CERTIFICATE-----
MIIETzCCAzegAwIBAgICEAQwDQYJKoZIhvcNAQELBQAwgYIxCzAJBgNVBAYTAkNa
MRowGAYDVQQIDBFKaWhvbW9yYXZza3kga3JhajEjMCEGA1UECgwaT3BlblN0YWNr
IENvbW1vbiBMaWJyYXJpZXMxFDASBgNVBAsMC0VuZ2luZWVyaW5nMRwwGgYDVQQD
DBNJbnRlcm1lZGlhdGUgQ0EgMDAxMB4XDTE4MDgxMDE2MjgxNFoXDTE4MDgzMTE2
MjgxNFowgYkxCzAJBgNVBAYTAkNaMRowGAYDVQQIDBFKaWhvbW9yYXZza3kga3Jh
ajENMAsGA1UEBwwEQnJubzEjMCEGA1UECgwaT3BlblN0YWNrIENvbW1vbiBMaWJy
YXJpZXMxFDASBgNVBAsMC0VuZ2luZWVyaW5nMRQwEgYDVQQDDAtOb2RlIDAwMTAw
NTCCASIwDQYJKoZIhvcNAQEBBQADggEPADCCAQoCggEBAOX2ubrV/wPTDEEcRY/6
JstVbCR7nalLkigUCleaa3Bkmzl8cTlTJLnaNNZDKx3u+2N4y/EyVnFdhJB3xC82
0NQuKcl6cbaJLHosv+CoSF3CqIe4FTeCSc4Ppzo74cyjzpqGdEVmrjNCfzaawdW/
YBVWZGxs6rRA02nm++i5BSGOVtNIWFrqbT4P2TYdR1ygFXZHV/ulRvGbpoLwJ4LK
0Mv6K0WDa+so8S4WtyDN9U/iR6GUjTyxt+PTsfO+m8cS7NU/VcY4HpyUYMWSMk4d
9gQ7uO4xWKWfEm6CRc30f+dtYZ5f+/rRIXOTe53gwxiSRLHK0htwKF1kTOnfFpUW
y7MCAwEAAaOBxTCBwjAJBgNVHRMEAjAAMBEGCWCGSAGG+EIBAQQEAwIFoDAzBglg
hkgBhvhCAQ0EJhYkT3BlblNTTCBHZW5lcmF0ZWQgQ2xpZW50IENlcnRpZmljYXRl
MB0GA1UdDgQWBBSdy1meHxVCkkGHp6IUnIYyhV4irjAfBgNVHSMEGDAWgBSiWatF
Df7qnU51k9uk9Qo03uwATjAOBgNVHQ8BAf8EBAMCBeAwHQYDVR0lBBYwFAYIKwYB
BQUHAwIGCCsGAQUFBwMEMA0GCSqGSIb3DQEBCwUAA4IBAQBvMSk+SuPHq0eKWBfj
NrKx1HE1uj/aDluvu3S8ycuFCKFqa+NoUqlW752YNzYLBMgAPVYsHudj1Azv138F
A7aSVBSVYehqQTvSPBsiwn6FFvmeC+2utHPc1TgM/UiCuXPrWusiftuDfR89eaUy
nfkaKWyVS8g5yfq55O7Kg3x+/qrbCkH3h1ITRuiPOzBVm9A4FQK1wHmC7YdQTkoa
xgcMHDLnfQmW8tcmfXw+VzHqu5Ctf1ybK5gYozk5kcPcBNgUh7nOE+gxqm/ckHhv
A4q8hTw/tMg3kMNsWkc/2+xO+r3apf4s3kJ/qMEpv1RGTj+1DIMpSn5McmVxfJas
LRqa
-----END CERTIFICATE-----
