Certificate:
    Data:
        Version: 3 (0x2)
        Serial Number: 4097 (0x1001)
    Signature Algorithm: sha256WithRSAEncryption
        Issuer: C=CZ, ST=Jihomoravsky kraj, O=OpenStack Common Libraries, OU=Engineering, CN=Intermediate CA 001
        Validity
            Not Before: Aug 14 16:16:13 2018 GMT
            Not After : Sep  4 16:16:13 2018 GMT
        Subject: C=CZ, ST=Jihomoravsky kraj, L=Brno, O=OpenStack Common Libraries, OU=Engineering, CN=Node 001002
        Subject Public Key Info:
            Public Key Algorithm: rsaEncryption
                Public-Key: (2048 bit)
                Modulus:
                    00:a3:f0:3d:54:01:62:82:b8:38:87:cc:bc:4f:e5:
                    1d:0f:64:a6:8e:a5:d2:05:4b:75:e1:84:cd:06:9c:
                    87:8d:56:e3:1b:70:f9:ca:8b:80:c6:b1:e1:9e:84:
                    22:02:a5:0c:93:09:10:f1:4e:d7:1b:eb:3b:dd:1d:
                    55:33:4b:0c:80:49:e7:78:22:19:56:f7:28:b9:4f:
                    bf:91:f1:4d:65:9d:d3:0b:2d:08:b3:80:a1:82:87:
                    9e:9e:f4:c5:77:bf:31:f5:54:d5:ce:e8:02:5f:2b:
                    20:9a:1d:ee:f4:2e:57:44:30:35:85:5a:0e:82:45:
                    2d:6e:b8:fe:fb:e6:1f:c4:62:9d:14:40:50:28:00:
                    c2:08:73:59:c8:01:37:7d:ab:79:f7:41:d5:c8:bd:
                    de:a6:11:5a:f8:21:a3:9c:e6:cf:a1:f1:b4:4b:97:
                    1a:a1:ae:1b:7e:9c:53:20:25:10:c9:a8:93:37:da:
                    b8:85:d2:0d:05:53:31:8f:18:8d:a3:63:3a:1f:41:
                    45:73:18:fa:69:af:2f:66:09:8b:c2:d4:58:5e:46:
                    d1:88:ad:34:ec:5b:9a:a5:d9:58:a4:58:90:e7:fc:
                    4f:74:2b:79:e7:44:fb:64:c3:9e:45:dc:28:e3:67:
                    11:bd:cb:81:5e:82:b1:6e:da:40:99:8d:83:bd:33:
                    39:af
                Exponent: 65537 (0x10001)
        X509v3 extensions:
            X509v3 Basic Constraints: 
                CA:FALSE
            Netscape Cert Type: 
                SSL Client, S/MIME
            Netscape Comment: 
                OpenSSL Generated Client Certificate
            X509v3 Subject Key Identifier: 
                D6:86:DE:25:59:B2:13:55:C3:7E:B1:3A:5D:10:D4:D9:6F:3A:19:94
            X509v3 Authority Key Identifier: 
                keyid:52:14:F4:89:78:A6:BC:FB:14:42:9C:75:93:B3:8F:6D:87:87:4F:6D

            X509v3 Key Usage: critical
                Digital Signature, Non Repudiation, Key Encipherment
            X509v3 Extended Key Usage: 
                TLS Web Client Authentication, E-mail Protection
    Signature Algorithm: sha256WithRSAEncryption
         0c:a4:22:84:94:4a:88:b5:bb:d9:ab:d3:7f:57:69:68:74:1f:
         89:cb:0a:04:a8:b4:82:22:a4:05:1f:09:2b:d1:81:55:8f:4c:
         a5:85:f2:37:1d:f7:c0:7d:7a:f9:49:3c:cd:41:8f:3e:3f:d3:
         34:19:85:c7:66:40:47:fd:9d:4c:03:dc:48:7b:07:b4:26:3f:
         29:d3:4e:03:52:f5:ce:7e:f1:8e:05:69:d7:5d:d7:57:5d:d3:
         f7:d8:64:37:2c:03:c5:99:04:f6:6c:86:8c:d7:32:b8:24:f1:
         b7:26:14:98:53:89:90:da:92:a5:0b:08:2b:80:85:b8:fc:ce:
         f0:23:94:27:fe:4f:b6:0d:e2:2b:92:2f:7f:07:0b:40:fe:6b:
         14:88:95:bc:12:f0:8c:be:ec:17:aa:9f:27:ac:a8:fa:5c:86:
         4b:28:65:21:71:6e:be:e1:e6:50:14:8b:0d:ee:75:44:9a:c5:
         dd:be:e1:50:25:11:bd:34:d1:a5:e5:89:31:80:80:8e:c2:ef:
         24:20:70:fa:63:12:85:02:4e:ff:51:98:4f:36:9f:26:f0:d1:
         48:4b:52:39:bc:59:6f:9c:09:ca:c6:e4:61:e2:87:65:0e:b0:
         9b:f8:1f:e4:54:82:00:c9:0e:ce:4d:e0:be:d6:17:14:d3:ad:
         53:8d:9e:5a:63:1e:60:58:17:8f:09:3a:b9:d8:31:47:c0:c7:
         16:93:be:39:6e:ef:1a:a6:ab:90:6f:d6:5a:f8:3d:e0:ae:1a:
         ea:cb:dd:09:6d:25:32:17:fb:8a:b5:a0:ef:95:a5:a8:df:33:
         13:fa:5c:19:2d:17:f6:e7:69:d9:ba:14:37:2c:a4:e8:f3:d6:
         9e:99:59:ac:d4:ef:14:45:89:02:0b:d8:72:b4:c9:ae:5b:c9:
         37:5b:bc:47:0b:c7:45:74:6d:7d:69:d5:2d:da:49:a3:4d:fc:
         e2:ba:d1:c4:08:1a:1a:cc:d9:df:de:08:08:a5:03:4d:e8:2b:
         cb:b4:fd:aa:49:27:d3:1c:e4:ab:bf:f8:af:94:4b:a2:f5:03:
         fe:33:1e:41:c1:ed:90:94:5f:e6:25:35:be:6b:ba:b6:6e:e4:
         e1:65:0b:59:f2:34:a6:36:ce:d4:cb:57:45:e4:15:58:3d:05:
         06:47:2a:9c:31:48:a0:3c:ed:49:25:e5:11:d7:6f:ee:3e:ed:
         f7:20:4d:50:aa:58:ba:46:81:23:6f:7a:5b:5e:d4:d3:1e:ec:
         8d:3e:6f:db:c4:64:5f:2a:e4:40:47:95:20:49:27:91:bb:cd:
         85:43:39:86:ff:e7:60:aa:be:0d:d7:4b:5e:42:c2:c8:1d:28:
         89:f8:4d:9e:5b:d9:ab:d0
-----BEGIN CERTIFICATE-----
MIIFTzCCAzegAwIBAgICEAEwDQYJKoZIhvcNAQELBQAwgYIxCzAJBgNVBAYTAkNa
MRowGAYDVQQIDBFKaWhvbW9yYXZza3kga3JhajEjMCEGA1UECgwaT3BlblN0YWNr
IENvbW1vbiBMaWJyYXJpZXMxFDASBgNVBAsMC0VuZ2luZWVyaW5nMRwwGgYDVQQD
DBNJbnRlcm1lZGlhdGUgQ0EgMDAxMB4XDTE4MDgxNDE2MTYxM1oXDTE4MDkwNDE2
MTYxM1owgYkxCzAJBgNVBAYTAkNaMRowGAYDVQQIDBFKaWhvbW9yYXZza3kga3Jh
ajENMAsGA1UEBwwEQnJubzEjMCEGA1UECgwaT3BlblN0YWNrIENvbW1vbiBMaWJy
YXJpZXMxFDASBgNVBAsMC0VuZ2luZWVyaW5nMRQwEgYDVQQDDAtOb2RlIDAwMTAw
MjCCASIwDQYJKoZIhvcNAQEBBQADggEPADCCAQoCggEBAKPwPVQBYoK4OIfMvE/l
HQ9kpo6l0gVLdeGEzQach41W4xtw+cqLgMax4Z6EIgKlDJMJEPFO1xvrO90dVTNL
DIBJ53giGVb3KLlPv5HxTWWd0wstCLOAoYKHnp70xXe/MfVU1c7oAl8rIJod7vQu
V0QwNYVaDoJFLW64/vvmH8RinRRAUCgAwghzWcgBN32refdB1ci93qYRWvgho5zm
z6HxtEuXGqGuG36cUyAlEMmokzfauIXSDQVTMY8YjaNjOh9BRXMY+mmvL2YJi8LU
WF5G0YitNOxbmqXZWKRYkOf8T3QreedE+2TDnkXcKONnEb3LgV6CsW7aQJmNg70z
Oa8CAwEAAaOBxTCBwjAJBgNVHRMEAjAAMBEGCWCGSAGG+EIBAQQEAwIFoDAzBglg
hkgBhvhCAQ0EJhYkT3BlblNTTCBHZW5lcmF0ZWQgQ2xpZW50IENlcnRpZmljYXRl
MB0GA1UdDgQWBBTWht4lWbITVcN+sTpdENTZbzoZlDAfBgNVHSMEGDAWgBRSFPSJ
eKa8+xRCnHWTs49th4dPbTAOBgNVHQ8BAf8EBAMCBeAwHQYDVR0lBBYwFAYIKwYB
BQUHAwIGCCsGAQUFBwMEMA0GCSqGSIb3DQEBCwUAA4ICAQAMpCKElEqItbvZq9N/
V2lodB+JywoEqLSCIqQFHwkr0YFVj0ylhfI3HffAfXr5STzNQY8+P9M0GYXHZkBH
/Z1MA9xIewe0Jj8p004DUvXOfvGOBWnXXddXXdP32GQ3LAPFmQT2bIaM1zK4JPG3
JhSYU4mQ2pKlCwgrgIW4/M7wI5Qn/k+2DeIrki9/BwtA/msUiJW8EvCMvuwXqp8n
rKj6XIZLKGUhcW6+4eZQFIsN7nVEmsXdvuFQJRG9NNGl5YkxgICOwu8kIHD6YxKF
Ak7/UZhPNp8m8NFIS1I5vFlvnAnKxuRh4odlDrCb+B/kVIIAyQ7OTeC+1hcU061T
jZ5aYx5gWBePCTq52DFHwMcWk745bu8apquQb9Za+D3grhrqy90JbSUyF/uKtaDv
laWo3zMT+lwZLRf252nZuhQ3LKTo89aemVms1O8URYkCC9hytMmuW8k3W7xHC8dF
dG19adUt2kmjTfziutHECBoazNnf3ggIpQNN6CvLtP2qSSfTHOSrv/ivlEui9QP+
Mx5Bwe2QlF/mJTW+a7q2buThZQtZ8jSmNs7Uy1dF5BVYPQUGRyqcMUigPO1JJeUR
12/uPu33IE1Qqli6RoEjb3pbXtTTHuyNPm/bxGRfKuRAR5UgSSeRu82FQzmG/+dg
qr4N10teQsLIHSiJ+E2eW9mr0A==
-----END CERTIFICATE-----
Certificate:
    Data:
        Version: 3 (0x2)
        Serial Number: 4097 (0x1001)
    Signature Algorithm: sha256WithRSAEncryption
        Issuer: C=CZ, ST=Jihomoravsky kraj, L=Brno, O=OpenStack Common Libraries, OU=Engineering, CN=Root CA
        Validity
            Not Before: Aug 14 16:16:10 2018 GMT
            Not After : Aug 11 16:16:10 2028 GMT
        Subject: C=CZ, ST=Jihomoravsky kraj, O=OpenStack Common Libraries, OU=Engineering, CN=Intermediate CA 001
        Subject Public Key Info:
            Public Key Algorithm: rsaEncryption
                Public-Key: (4096 bit)
                Modulus:
                    00:e1:e0:14:60:ce:42:ef:e5:24:85:a3:17:ba:f1:
                    09:d2:15:87:ba:3a:e3:b3:2d:1f:15:fc:3a:ca:f9:
                    a3:f8:33:ac:d2:82:8a:da:b7:2b:b9:11:26:d9:99:
                    9b:6b:e1:fd:e8:25:d6:1c:eb:8c:3f:c0:48:2b:ba:
                    8b:52:97:b0:5c:bb:06:93:39:79:c1:27:12:4f:0d:
                    54:fb:c5:ae:74:d1:28:28:55:f8:6d:2f:db:37:87:
                    51:f2:9c:24:2b:80:87:0c:19:71:7a:33:95:25:71:
                    09:b4:96:b8:8d:a5:f2:f6:8b:a8:05:4e:4a:2f:17:
                    90:51:3a:9a:14:8a:3a:38:50:e2:bf:b9:d8:ab:08:
                    3f:3b:d3:53:f7:4a:1f:bc:6c:3d:72:63:fa:9a:ae:
                    d0:5a:b7:7f:ad:ff:4c:6f:1e:f0:92:9d:b0:f8:a9:
                    bf:9f:d4:6a:c7:ec:42:a5:a8:ea:81:25:12:6a:23:
                    15:ca:18:c1:b3:cc:0e:77:67:d6:52:09:b4:f1:81:
                    ed:25:1e:80:92:ba:2e:17:21:0d:a4:01:b6:d7:1f:
                    f2:d3:2d:b5:a8:e1:c4:5b:b3:78:63:7c:73:ce:2b:
                    b2:ae:d3:a8:28:f3:4f:52:ff:4d:50:8a:fa:30:f7:
                    13:fa:7a:f2:49:ee:1c:4d:55:ce:a3:1d:85:f0:9a:
                    ae:42:1d:40:bd:61:47:44:b8:e9:36:56:ab:21:37:
                    10:03:df:4b:0f:5e:ed:ad:f1:9a:59:af:c4:9c:ea:
                    b8:7c:60:78:fd:da:ab:96:ed:b3:fa:da:d8:99:5d:
                    77:e9:cb:4d:45:bc:02:cc:b9:79:bb:1d:be:36:f0:
                    35:56:46:82:78:a2:ae:7b:b5:4a:ce:69:e5:5e:0a:
                    98:05:f9:ba:47:b1:ac:63:7b:db:05:fa:57:da:a0:
                    64:3c:e3:96:30:70:ce:80:a1:c0:70:3a:f4:62:23:
                    f7:36:5d:be:44:d1:fc:2f:88:be:2d:9e:80:41:10:
                    a2:0a:38:d2:3a:f1:8f:a0:99:8a:da:dd:68:75:5c:
                    4c:e8:1e:3c:41:5e:c9:3c:f6:7c:a9:47:7e:b4:94:
                    b7:bb:a3:bd:2a:4e:a2:59:f6:65:a5:7f:5c:93:e7:
                    77:b8:75:6e:0e:a6:47:46:4a:fc:a8:8f:6e:ad:b9:
                    c2:bc:c5:3d:48:5d:a3:71:d5:33:c8:b5:db:ee:b9:
                    f6:e8:1c:40:35:82:76:af:65:c8:fb:b7:88:a3:53:
                    75:c4:55:db:bd:48:72:ac:14:f1:b0:ae:77:0d:da:
                    e4:20:43:f6:d0:bd:fe:b0:b1:3a:9e:6f:2d:45:0d:
                    cf:3b:c0:37:03:38:29:3b:bc:44:b9:de:40:29:6c:
                    65:00:19
                Exponent: 65537 (0x10001)
        X509v3 extensions:
            X509v3 Subject Key Identifier: 
                52:14:F4:89:78:A6:BC:FB:14:42:9C:75:93:B3:8F:6D:87:87:4F:6D
            X509v3 Authority Key Identifier: 
                keyid:93:83:48:92:23:B6:C3:DA:A7:15:85:08:41:75:30:67:97:A5:D4:9C

            X509v3 Basic Constraints: critical
                CA:TRUE, pathlen:0
            X509v3 Key Usage: critical
                Digital Signature, Certificate Sign, CRL Sign
    Signature Algorithm: sha256WithRSAEncryption
         16:5c:2f:f3:34:47:ac:a6:0b:2f:16:82:3e:02:a0:ee:37:a9:
         54:46:aa:9b:39:34:a5:97:d9:7b:67:92:93:91:bf:9e:0e:7c:
         31:33:79:47:b2:52:96:0f:33:cf:e5:1c:45:38:96:39:94:b6:
         b6:00:d9:7e:d4:42:1f:38:1f:b0:b7:52:9d:2b:6b:9d:cb:78:
         65:ef:65:0d:bf:9f:3d:81:ea:63:a2:c4:63:58:da:1f:c9:60:
         9c:17:58:29:15:d9:81:88:a0:fc:60:7e:65:82:48:c2:2c:95:
         96:dd:ff:9d:91:47:80:96:46:e8:0a:8c:ef:18:c0:a7:85:98:
         f6:d6:d2:c6:23:9f:ef:cb:5d:51:c9:0d:26:5f:3f:e0:fb:f5:
         22:bd:ce:14:a2:11:b8:2a:13:9f:29:a0:33:0a:e3:3e:63:f9:
         37:79:84:7a:1d:60:b3:bc:e8:b5:6f:f0:70:c9:fd:4a:0e:a5:
         14:79:c0:ff:a2:67:5a:bb:a4:87:a7:7f:83:fc:00:13:8a:fb:
         ad:43:72:df:cf:40:f1:cb:8a:16:31:b8:80:a7:bf:19:ab:a1:
         22:f8:72:b2:28:2f:e8:db:60:bb:0d:a5:11:1b:cd:9f:0a:a2:
         81:9b:1c:94:9c:56:1c:1e:66:54:63:bd:7b:3f:83:be:78:fc:
         f0:af:27:46:2a:d8:e0:f0:86:47:5f:83:14:14:2b:f4:24:78:
         89:78:be:07:9d:72:10:d2:47:43:29:40:19:85:fc:eb:31:75:
         f0:43:ab:2e:c8:21:80:aa:de:85:cd:3b:69:09:90:71:e6:3a:
         dc:4e:e4:c5:ec:bc:ef:6a:26:45:2c:c5:ba:0b:53:c3:20:b6:
         c8:40:a7:f6:ff:d3:69:e2:58:f3:9c:a1:f2:a4:4f:86:fa:dd:
         56:3b:eb:4a:c4:81:9b:0c:1c:27:08:0d:cf:b0:0e:2d:0e:55:
         83:1f:23:39:a8:43:04:ac:01:20:55:21:ef:8d:36:f2:b7:ed:
         5b:c5:60:17:1a:fd:4a:67:26:31:d0:09:ae:71:a4:c4:1c:38:
         e2:f1:ce:ca:54:ee:17:c6:b9:92:64:ee:19:2f:ca:3e:c3:6e:
         3f:0e:e6:22:71:6e:8f:f1:2b:e7:25:50:77:c5:34:bf:ee:6e:
         fb:a9:d5:8b:ed:87:78:9a:4c:bf:da:d0:1e:f2:2c:09:52:89:
         c9:b5:51:c7:45:59:34:27:c6:7b:46:92:59:1f:a1:39:ac:e4:
         3e:e2:c4:0a:dd:39:67:e5:2a:d0:e3:63:64:aa:6c:7f:dd:21:
         de:e1:83:3a:13:6b:88:cc:56:14:5e:8f:9f:13:42:62:9a:38:
         41:bd:b0:30:cb:3a:cd:f1
-----BEGIN CERTIFICATE-----
MIIF6zCCA9OgAwIBAgICEAEwDQYJKoZIhvcNAQELBQAwgYUxCzAJBgNVBAYTAkNa
MRowGAYDVQQIDBFKaWhvbW9yYXZza3kga3JhajENMAsGA1UEBwwEQnJubzEjMCEG
A1UECgwaT3BlblN0YWNrIENvbW1vbiBMaWJyYXJpZXMxFDASBgNVBAsMC0VuZ2lu
ZWVyaW5nMRAwDgYDVQQDDAdSb290IENBMB4XDTE4MDgxNDE2MTYxMFoXDTI4MDgx
MTE2MTYxMFowgYIxCzAJBgNVBAYTAkNaMRowGAYDVQQIDBFKaWhvbW9yYXZza3kg
a3JhajEjMCEGA1UECgwaT3BlblN0YWNrIENvbW1vbiBMaWJyYXJpZXMxFDASBgNV
BAsMC0VuZ2luZWVyaW5nMRwwGgYDVQQDDBNJbnRlcm1lZGlhdGUgQ0EgMDAxMIIC
IjANBgkqhkiG9w0BAQEFAAOCAg8AMIICCgKCAgEA4eAUYM5C7+UkhaMXuvEJ0hWH
ujrjsy0fFfw6yvmj+DOs0oKK2rcruREm2Zmba+H96CXWHOuMP8BIK7qLUpewXLsG
kzl5wScSTw1U+8WudNEoKFX4bS/bN4dR8pwkK4CHDBlxejOVJXEJtJa4jaXy9ouo
BU5KLxeQUTqaFIo6OFDiv7nYqwg/O9NT90ofvGw9cmP6mq7QWrd/rf9Mbx7wkp2w
+Km/n9Rqx+xCpajqgSUSaiMVyhjBs8wOd2fWUgm08YHtJR6AkrouFyENpAG21x/y
0y21qOHEW7N4Y3xzziuyrtOoKPNPUv9NUIr6MPcT+nrySe4cTVXOox2F8JquQh1A
vWFHRLjpNlarITcQA99LD17trfGaWa/EnOq4fGB4/dqrlu2z+trYmV136ctNRbwC
zLl5ux2+NvA1VkaCeKKue7VKzmnlXgqYBfm6R7GsY3vbBfpX2qBkPOOWMHDOgKHA
cDr0YiP3Nl2+RNH8L4i+LZ6AQRCiCjjSOvGPoJmK2t1odVxM6B48QV7JPPZ8qUd+
tJS3u6O9Kk6iWfZlpX9ck+d3uHVuDqZHRkr8qI9urbnCvMU9SF2jcdUzyLXb7rn2
6BxANYJ2r2XI+7eIo1N1xFXbvUhyrBTxsK53DdrkIEP20L3+sLE6nm8tRQ3PO8A3
AzgpO7xEud5AKWxlABkCAwEAAaNmMGQwHQYDVR0OBBYEFFIU9Il4prz7FEKcdZOz
j22Hh09tMB8GA1UdIwQYMBaAFJODSJIjtsPapxWFCEF1MGeXpdScMBIGA1UdEwEB
/wQIMAYBAf8CAQAwDgYDVR0PAQH/BAQDAgGGMA0GCSqGSIb3DQEBCwUAA4ICAQAW
XC/zNEespgsvFoI+AqDuN6lURqqbOTSll9l7Z5KTkb+eDnwxM3lHslKWDzPP5RxF
OJY5lLa2ANl+1EIfOB+wt1KdK2udy3hl72UNv589gepjosRjWNofyWCcF1gpFdmB
iKD8YH5lgkjCLJWW3f+dkUeAlkboCozvGMCnhZj21tLGI5/vy11RyQ0mXz/g+/Ui
vc4UohG4KhOfKaAzCuM+Y/k3eYR6HWCzvOi1b/Bwyf1KDqUUecD/omdau6SHp3+D
/AATivutQ3Lfz0Dxy4oWMbiAp78Zq6Ei+HKyKC/o22C7DaURG82fCqKBmxyUnFYc
HmZUY717P4O+ePzwrydGKtjg8IZHX4MUFCv0JHiJeL4HnXIQ0kdDKUAZhfzrMXXw
Q6suyCGAqt6FzTtpCZBx5jrcTuTF7LzvaiZFLMW6C1PDILbIQKf2/9Np4ljznKHy
pE+G+t1WO+tKxIGbDBwnCA3PsA4tDlWDHyM5qEMErAEgVSHvjTbyt+1bxWAXGv1K
ZyYx0AmucaTEHDji8c7KVO4XxrmSZO4ZL8o+w24/DuYicW6P8SvnJVB3xTS/7m77
qdWL7Yd4mky/2tAe8iwJUonJtVHHRVk0J8Z7RpJZH6E5rOQ+4sQK3Tln5SrQ42Nk
qmx/3SHe4YM6E2uIzFYUXo+fE0JimjhBvbAwyzrN8Q==
-----END CERTIFICATE-----
