Certificate:
    Data:
        Version: 3 (0x2)
        Serial Number: 4098 (0x1002)
    Signature Algorithm: sha256WithRSAEncryption
        Issuer: C=CZ, ST=Jihomoravsky kraj, O=OpenStack Common Libraries, OU=Engineering, CN=Intermediate CA 001
        Validity
            Not Before: Aug 14 16:16:13 2018 GMT
            Not After : Sep  4 16:16:13 2018 GMT
        Subject: C=CZ, ST=Jihomoravsky kraj, L=Brno, O=OpenStack Common Libraries, OU=Engineering, CN=Node 001003
        Subject Public Key Info:
            Public Key Algorithm: rsaEncryption
                Public-Key: (2048 bit)
                Modulus:
                    00:bf:a7:44:26:de:ec:d9:81:c2:12:cf:94:9c:16:
                    0c:51:29:88:aa:e1:bf:a6:dc:f7:a7:e9:2b:de:7c:
                    22:9c:48:1c:83:df:6a:1b:4e:28:a5:2e:d9:3f:39:
                    05:bf:41:30:a2:cc:34:52:9e:87:b6:cc:c3:d9:b7:
                    84:35:ec:09:20:05:59:0b:76:a9:6e:66:58:ad:76:
                    56:40:a4:05:e8:1f:9e:dd:3f:19:c5:e6:43:bc:f3:
                    93:f0:33:ea:0a:98:3d:21:e4:3b:e6:af:d9:01:ed:
                    9f:50:68:e2:d4:49:5f:bf:d9:20:5e:70:9e:8f:47:
                    6e:df:c7:52:db:d3:05:40:0d:7d:4b:a4:15:4f:e0:
                    69:b5:77:e7:6d:79:66:9f:32:20:0e:83:d5:89:de:
                    a2:82:2e:b2:fa:05:59:fa:37:0b:1b:05:fe:3d:31:
                    8c:60:a3:3a:94:0b:5b:0b:a8:88:b1:e8:9e:ff:29:
                    08:6f:0a:4b:24:e0:91:2a:c7:c5:8a:05:7c:98:ad:
                    06:28:f8:74:8b:dc:e7:9d:a9:4e:a8:7d:11:70:9e:
                    4b:60:2c:f6:e5:22:58:e6:92:be:b0:7d:d3:39:a6:
                    32:0d:2f:31:7f:ad:fe:e0:22:a2:ab:65:0f:f1:80:
                    54:73:a1:20:85:63:24:66:76:e3:c5:7b:f2:67:4a:
                    fa:41
                Exponent: 65537 (0x10001)
        X509v3 extensions:
            X509v3 Basic Constraints: 
                CA:FALSE
            Netscape Cert Type: 
                SSL Client, S/MIME
            Netscape Comment: 
                OpenSSL Generated Client Certificate
            X509v3 Subject Key Identifier: 
                B4:26:80:8F:4F:F5:C1:EC:4E:BE:7A:6F:BB:1B:44:D3:0A:90:7C:5E
            X509v3 Authority Key Identifier: 
                keyid:52:14:F4:89:78:A6:BC:FB:14:42:9C:75:93:B3:8F:6D:87:87:4F:6D

            X509v3 Key Usage: critical
                Digital Signature, Non Repudiation, Key Encipherment
            X509v3 Extended Key Usage: 
                TLS Web Client Authentication, E-mail Protection
    Signature Algorithm: sha256WithRSAEncryption
         51:99:17:99:cb:62:b1:11:c2:e8:eb:2a:cc:d7:be:4d:85:b5:
         ae:c6:fb:1f:32:32:c5:bc:df:d4:5c:6c:2c:70:a2:28:de:70:
         86:17:d0:14:29:7f:d9:75:a3:f3:0f:28:92:b9:3c:12:5d:2a:
         6c:ee:72:10:0d:4f:27:c1:7f:f0:a6:9b:4a:25:a2:62:f3:98:
         5a:4a:06:7c:5f:b5:01:ab:38:6d:d1:79:3c:04:a6:83:04:b7:
         ee:3e:72:48:f3:85:14:5d:05:73:a6:06:8c:72:6d:fe:34:13:
         70:2a:ac:dd:b2:54:dc:75:b9:de:6d:45:42:92:7f:5c:ad:a5:
         53:e1:44:ff:c1:0f:47:9c:d1:c5:e1:12:28:bc:65:7a:18:f1:
         ba:23:e2:71:8f:49:98:8d:da:a0:af:78:24:fd:0f:45:e9:91:
         cc:2b:22:45:06:2e:1c:83:6d:03:49:7c:dc:c5:51:75:d8:b4:
         3e:85:54:00:b9:f8:ea:e3:00:39:c8:d8:11:0a:eb:62:a3:90:
         67:53:9e:2f:ca:f1:40:bc:bb:36:e8:91:44:98:5e:16:a0:4e:
         5f:14:a1:b8:95:bb:af:9c:cc:68:a4:ba:da:a6:23:62:af:69:
         8c:2e:29:15:ba:19:16:10:15:81:e2:eb:da:6b:42:99:04:20:
         7f:00:af:c2:09:c0:67:b4:61:4f:62:ff:73:22:74:1a:d9:68:
         c7:57:52:3b:9d:74:8c:55:e6:02:bd:36:45:36:34:47:2a:41:
         0a:90:68:37:78:a7:17:90:f6:3e:da:00:d6:e4:fd:d3:a9:fc:
         27:5a:b6:1c:ac:67:23:53:d4:c0:b9:dd:24:7d:9e:1a:b5:e6:
         e6:3e:8c:6c:92:2d:2f:47:32:ed:36:2f:97:9c:35:7e:15:ff:
         01:6e:6a:3f:d2:1e:f4:63:f2:df:62:96:c7:ff:1e:96:48:de:
         78:6a:05:1b:d8:87:ec:d7:a7:30:ca:51:c5:d8:3b:4e:c6:a8:
         86:30:2a:3b:bf:4c:cd:c2:93:c6:c2:33:cf:99:45:38:a3:4a:
         f5:a6:7d:7c:85:0a:22:e8:c5:53:ea:9f:a9:81:65:44:ae:34:
         79:87:04:24:ff:cc:a5:77:03:5a:b6:1a:ab:63:11:c2:b2:28:
         66:de:77:42:9b:07:15:48:15:37:21:88:28:5c:06:56:2a:3b:
         52:88:d8:1d:d6:cd:0a:ac:8b:10:8d:a8:6b:9d:55:af:1b:ec:
         9b:c4:c9:ca:73:37:2e:64:b3:46:75:3e:24:81:b7:5f:5c:6f:
         02:c2:23:73:d1:6a:59:6c:df:ab:aa:e4:a9:a5:93:f5:27:a8:
         7b:c2:34:f4:cf:23:79:0a
-----BEGIN CERTIFICATE-----
MIIFTzCCAzegAwIBAgICEAIwDQYJKoZIhvcNAQELBQAwgYIxCzAJBgNVBAYTAkNa
MRowGAYDVQQIDBFKaWhvbW9yYXZza3kga3JhajEjMCEGA1UECgwaT3BlblN0YWNr
IENvbW1vbiBMaWJyYXJpZXMxFDASBgNVBAsMC0VuZ2luZWVyaW5nMRwwGgYDVQQD
DBNJbnRlcm1lZGlhdGUgQ0EgMDAxMB4XDTE4MDgxNDE2MTYxM1oXDTE4MDkwNDE2
MTYxM1owgYkxCzAJBgNVBAYTAkNaMRowGAYDVQQIDBFKaWhvbW9yYXZza3kga3Jh
ajENMAsGA1UEBwwEQnJubzEjMCEGA1UECgwaT3BlblN0YWNrIENvbW1vbiBMaWJy
YXJpZXMxFDASBgNVBAsMC0VuZ2luZWVyaW5nMRQwEgYDVQQDDAtOb2RlIDAwMTAw
MzCCASIwDQYJKoZIhvcNAQEBBQADggEPADCCAQoCggEBAL+nRCbe7NmBwhLPlJwW
DFEpiKrhv6bc96fpK958IpxIHIPfahtOKKUu2T85Bb9BMKLMNFKeh7bMw9m3hDXs
CSAFWQt2qW5mWK12VkCkBegfnt0/GcXmQ7zzk/Az6gqYPSHkO+av2QHtn1Bo4tRJ
X7/ZIF5wno9Hbt/HUtvTBUANfUukFU/gabV35215Zp8yIA6D1YneooIusvoFWfo3
CxsF/j0xjGCjOpQLWwuoiLHonv8pCG8KSyTgkSrHxYoFfJitBij4dIvc552pTqh9
EXCeS2As9uUiWOaSvrB90zmmMg0vMX+t/uAioqtlD/GAVHOhIIVjJGZ248V78mdK
+kECAwEAAaOBxTCBwjAJBgNVHRMEAjAAMBEGCWCGSAGG+EIBAQQEAwIFoDAzBglg
hkgBhvhCAQ0EJhYkT3BlblNTTCBHZW5lcmF0ZWQgQ2xpZW50IENlcnRpZmljYXRl
MB0GA1UdDgQWBBS0JoCPT/XB7E6+em+7G0TTCpB8XjAfBgNVHSMEGDAWgBRSFPSJ
eKa8+xRCnHWTs49th4dPbTAOBgNVHQ8BAf8EBAMCBeAwHQYDVR0lBBYwFAYIKwYB
BQUHAwIGCCsGAQUFBwMEMA0GCSqGSIb3DQEBCwUAA4ICAQBRmReZy2KxEcLo6yrM
175NhbWuxvsfMjLFvN/UXGwscKIo3nCGF9AUKX/ZdaPzDyiSuTwSXSps7nIQDU8n
wX/wpptKJaJi85haSgZ8X7UBqzht0Xk8BKaDBLfuPnJI84UUXQVzpgaMcm3+NBNw
KqzdslTcdbnebUVCkn9craVT4UT/wQ9HnNHF4RIovGV6GPG6I+Jxj0mYjdqgr3gk
/Q9F6ZHMKyJFBi4cg20DSXzcxVF12LQ+hVQAufjq4wA5yNgRCutio5BnU54vyvFA
vLs26JFEmF4WoE5fFKG4lbuvnMxopLrapiNir2mMLikVuhkWEBWB4uvaa0KZBCB/
AK/CCcBntGFPYv9zInQa2WjHV1I7nXSMVeYCvTZFNjRHKkEKkGg3eKcXkPY+2gDW
5P3TqfwnWrYcrGcjU9TAud0kfZ4atebmPoxski0vRzLtNi+XnDV+Ff8Bbmo/0h70
Y/LfYpbH/x6WSN54agUb2Ifs16cwylHF2DtOxqiGMCo7v0zNwpPGwjPPmUU4o0r1
pn18hQoi6MVT6p+pgWVErjR5hwQk/8yldwNathqrYxHCsihm3ndCmwcVSBU3IYgo
XAZWKjtSiNgd1s0KrIsQjahrnVWvG+ybxMnKczcuZLNGdT4kgbdfXG8CwiNz0WpZ
bN+rquSppZP1J6h7wjT0zyN5Cg==
-----END CERTIFICATE-----
