Certificate:
    Data:
        Version: 3 (0x2)
        Serial Number: 4099 (0x1003)
    Signature Algorithm: sha256WithRSAEncryption
        Issuer: C=CZ, ST=Jihomoravsky kraj, O=OpenStack Common Libraries, OU=Engineering, CN=Intermediate CA 001
        Validity
            Not Before: Aug 10 16:28:13 2018 GMT
            Not After : Aug 31 16:28:13 2018 GMT
        Subject: C=CZ, ST=Jihomoravsky kraj, L=Brno, O=OpenStack Common Libraries, OU=Engineering, CN=Node 001004
        Subject Public Key Info:
            Public Key Algorithm: rsaEncryption
                Public-Key: (2048 bit)
                Modulus:
                    00:bf:b1:89:5b:3a:19:d8:02:1e:c1:e7:18:5b:b9:
                    55:c4:b8:12:1c:bd:40:f9:15:41:c1:fc:9e:73:9b:
                    6f:64:a7:9f:69:21:f6:6e:6c:b2:25:10:98:8e:6a:
                    aa:a6:da:00:24:9f:3c:db:33:fe:0b:fe:2c:e3:04:
                    f2:8f:04:ea:f5:70:12:25:0a:c3:98:34:c9:86:ab:
                    72:57:9a:b8:1d:b2:a0:14:50:cd:b2:cf:31:9a:7d:
                    b5:23:88:98:6a:b3:bb:aa:4b:e8:d9:ce:fc:60:46:
                    07:50:0d:b1:c1:b1:a1:36:d1:26:fb:a9:ec:45:29:
                    ba:f2:48:77:bf:82:e1:06:7c:aa:7b:68:b8:02:fd:
                    58:fb:02:68:a3:40:7a:0d:f9:d7:47:09:40:82:e3:
                    6a:2e:7f:fd:88:56:68:6a:87:47:1e:22:93:f0:bf:
                    4d:29:6d:ff:ba:41:4f:18:ac:57:dd:5c:0b:9d:a5:
                    47:2e:18:ff:f0:f9:c5:69:17:e7:a8:6d:1d:87:2d:
                    d3:68:6e:c8:01:e4:0b:d6:47:22:1f:84:86:39:5b:
                    ed:e6:ac:8c:8d:89:8c:8a:68:4d:95:89:40:4a:41:
                    ee:cd:02:77:4b:22:30:7d:97:db:70:6c:83:13:df:
                    1d:11:c1:f3:15:3e:76:f4:1e:99:ba:d5:f7:ac:d7:
                    f7:4d
                Exponent: 65537 (0x10001)
        X509v3 extensions:
            X509v3 Basic Constraints: 
                CA:FALSE
            Netscape Cert Type: 
                SSL Client, S/MIME
            Netscape Comment: 
                OpenSSL Generated Client Certificate
            X509v3 Subject Key Identifier: 
                EC:3C:31:23:88:1E:78:EA:2B:CD:F5:25:99:3B:FB:6C:E0:B3:61:41
            X509v3 Authority Key Identifier: 
                keyid:A2:59:AB:45:0D:FE:EA:9D:4E:75:93:DB:A4:F5:0A:34:DE:EC:00:4E

            X509v3 Key Usage: critical
                Digital Signature, Non Repudiation, Key Encipherment
            X509v3 Extended Key Usage: 
                TLS Web Client Authentication, E-mail Protection
    Signature Algorithm: sha256WithRSAEncryption
         98:eb:12:95:ff:7c:89:d9:d3:1e:45:20:31:06:22:ff:fa:10:
         b7:54:f9:7d:d4:cc:21:4c:62:e6:d3:cc:6e:83:4f:3e:c9:19:
         a2:5b:3d:4d:15:bf:c1:0b:65:75:df:a1:5a:d8:41:e5:89:65:
         d9:07:65:7a:22:13:06:8d:2d:19:dc:c0:a7:3c:e0:e0:d1:88:
         61:a6:78:01:98:7d:5b:a8:80:fe:b9:4d:62:34:2a:57:95:97:
         56:40:31:26:7a:d8:57:7d:d8:ad:5b:fe:c8:a6:ba:2c:1d:cc:
         47:57:d0:85:73:59:9b:a9:5f:84:af:b3:53:7e:10:cf:63:62:
         8a:4e:cc:99:36:7e:5f:c0:b3:54:b9:27:69:b2:48:7c:c7:a5:
         7c:a4:21:9f:91:9f:f3:45:82:ea:7a:32:03:cb:12:e3:e5:ee:
         80:be:db:fc:7c:76:2f:6e:f3:d7:98:b8:a2:f5:15:0b:bd:34:
         bc:2f:38:24:43:8d:62:e4:45:af:26:ea:1e:0d:d5:33:07:fe:
         bf:1c:ff:4c:4f:32:86:19:92:32:50:7e:91:a9:32:a5:76:15:
         59:25:e6:a2:21:43:e2:d4:5b:ed:01:08:97:5b:9b:06:9a:2b:
         ca:8b:f3:f0:4d:91:1f:00:90:6a:cf:fc:af:da:64:cf:c4:24:
         1b:af:ca:5f
-----BEGIN CERTIFICATE-----
MIIETzCCAzegAwIBAgICEAMwDQYJKoZIhvcNAQELBQAwgYIxCzAJBgNVBAYTAkNa
MRowGAYDVQQIDBFKaWhvbW9yYXZza3kga3JhajEjMCEGA1UECgwaT3BlblN0YWNr
IENvbW1vbiBMaWJyYXJpZXMxFDASBgNVBAsMC0VuZ2luZWVyaW5nMRwwGgYDVQQD
DBNJbnRlcm1lZGlhdGUgQ0EgMDAxMB4XDTE4MDgxMDE2MjgxM1oXDTE4MDgzMTE2
MjgxM1owgYkxCzAJBgNVBAYTAkNaMRowGAYDVQQIDBFKaWhvbW9yYXZza3kga3Jh
ajENMAsGA1UEBwwEQnJubzEjMCEGA1UECgwaT3BlblN0YWNrIENvbW1vbiBMaWJy
YXJpZXMxFDASBgNVBAsMC0VuZ2luZWVyaW5nMRQwEgYDVQQDDAtOb2RlIDAwMTAw
NDCCASIwDQYJKoZIhvcNAQEBBQADggEPADCCAQoCggEBAL+xiVs6GdgCHsHnGFu5
VcS4Ehy9QPkVQcH8nnObb2Snn2kh9m5ssiUQmI5qqqbaACSfPNsz/gv+LOME8o8E
6vVwEiUKw5g0yYarcleauB2yoBRQzbLPMZp9tSOImGqzu6pL6NnO/GBGB1ANscGx
oTbRJvup7EUpuvJId7+C4QZ8qntouAL9WPsCaKNAeg3510cJQILjai5//YhWaGqH
Rx4ik/C/TSlt/7pBTxisV91cC52lRy4Y//D5xWkX56htHYct02huyAHkC9ZHIh+E
hjlb7easjI2JjIpoTZWJQEpB7s0Cd0siMH2X23BsgxPfHRHB8xU+dvQembrV96zX
900CAwEAAaOBxTCBwjAJBgNVHRMEAjAAMBEGCWCGSAGG+EIBAQQEAwIFoDAzBglg
hkgBhvhCAQ0EJhYkT3BlblNTTCBHZW5lcmF0ZWQgQ2xpZW50IENlcnRpZmljYXRl
MB0GA1UdDgQWBBTsPDEjiB546ivN9SWZO/ts4LNhQTAfBgNVHSMEGDAWgBSiWatF
Df7qnU51k9uk9Qo03uwATjAOBgNVHQ8BAf8EBAMCBeAwHQYDVR0lBBYwFAYIKwYB
BQUHAwIGCCsGAQUFBwMEMA0GCSqGSIb3DQEBCwUAA4IBAQCY6xKV/3yJ2dMeRSAx
BiL/+hC3VPl91MwhTGLm08xug08+yRmiWz1NFb/BC2V136Fa2EHliWXZB2V6IhMG
jS0Z3MCnPODg0YhhpngBmH1bqID+uU1iNCpXlZdWQDEmethXfditW/7IprosHcxH
V9CFc1mbqV+Er7NTfhDPY2KKTsyZNn5fwLNUuSdpskh8x6V8pCGfkZ/zRYLqejID
yxLj5e6Avtv8fHYvbvPXmLii9RULvTS8LzgkQ41i5EWvJuoeDdUzB/6/HP9MTzKG
GZIyUH6RqTKldhVZJeaiIUPi1FvtAQiXW5sGmivKi/PwTZEfAJBqz/yv2mTPxCQb
r8pf
-----END CERTIFICATE-----
