Certificate:
    Data:
        Version: 3 (0x2)
        Serial Number: 4097 (0x1001)
    Signature Algorithm: sha256WithRSAEncryption
        Issuer: C=CZ, ST=Jihomoravsky kraj, L=Brno, O=OpenStack Common Libraries, OU=Engineering, CN=Root CA
        Validity
            Not Before: Aug 10 16:28:06 2018 GMT
            Not After : Aug  7 16:28:06 2028 GMT
        Subject: C=CZ, ST=Jihomoravsky kraj, O=OpenStack Common Libraries, OU=Engineering, CN=Intermediate CA 002
        Subject Public Key Info:
            Public Key Algorithm: rsaEncryption
                Public-Key: (2048 bit)
                Modulus:
                    00:e3:b8:2b:4f:01:25:43:f5:4b:28:df:42:01:d1:
                    84:96:26:24:45:95:40:2b:e6:95:72:e4:76:f6:b3:
                    8c:2d:99:ca:08:58:5a:11:92:67:86:7c:5d:d6:64:
                    d6:16:60:72:a9:04:c7:2f:81:ae:da:5a:86:6c:63:
                    fd:9d:ad:3a:43:16:9e:cb:92:29:5d:a2:c0:36:ca:
                    00:89:cb:9c:53:0f:3b:a3:40:7c:7f:b7:24:12:b8:
                    f6:f8:1e:bf:63:b3:b2:32:85:eb:09:ce:38:16:0a:
                    27:5c:84:90:f5:66:e1:2a:af:b3:d0:34:34:a5:de:
                    fa:8e:54:40:2e:82:9c:0a:e6:e1:19:f5:3a:d2:ff:
                    f8:e9:a8:38:91:a4:1f:45:99:73:31:67:6a:d5:ac:
                    3f:57:a5:36:d4:df:3a:07:51:0e:f0:87:9b:51:22:
                    39:bb:58:86:d0:ad:68:5f:4b:d5:c3:d7:bc:13:06:
                    a4:0d:0f:db:86:be:3f:d7:25:16:99:6d:7d:2b:22:
                    b2:e8:8a:49:13:6f:89:76:6b:b9:65:45:ab:7a:87:
                    a0:54:5f:c6:39:b5:c8:a6:16:a8:c4:ee:55:10:bd:
                    7c:f7:8b:b4:cc:55:3d:12:15:f8:d1:75:2a:36:05:
                    98:9c:89:54:b1:d3:3e:2f:e2:a7:f5:d7:cc:83:6a:
                    98:93
                Exponent: 65537 (0x10001)
        X509v3 extensions:
            X509v3 Subject Key Identifier: 
                B9:E4:F8:9F:A3:6E:3A:7D:13:BE:FB:0A:92:2C:80:8B:A0:99:5E:B9
            X509v3 Authority Key Identifier: 
                keyid:FF:EE:5D:6F:A5:B1:66:52:28:CC:10:71:3F:41:50:11:96:97:E7:F9

            X509v3 Basic Constraints: critical
                CA:TRUE, pathlen:0
            X509v3 Key Usage: critical
                Digital Signature, Certificate Sign, CRL Sign
    Signature Algorithm: sha256WithRSAEncryption
         ca:9f:64:42:da:9b:c4:1e:db:3d:59:ce:5d:ca:f2:d2:3b:d0:
         e7:3f:f3:52:86:72:c6:7e:d1:80:71:31:e7:ff:f8:2d:8e:77:
         d7:f4:5c:38:36:5e:33:a0:cf:11:0b:af:36:64:b2:ed:45:7b:
         20:6b:aa:23:6c:5f:be:b4:60:22:df:c2:2f:23:64:b2:78:38:
         d0:4f:84:a7:c0:a2:01:ce:74:be:2c:19:0e:32:41:d7:bb:e0:
         79:6c:1e:11:df:e3:3b:66:8e:a5:d8:5d:38:7d:ab:6e:89:d8:
         5c:fa:ca:78:27:06:51:61:b9:1a:30:27:2b:24:94:96:c8:0e:
         ef:08:d7:15:7b:a6:7a:8d:d4:03:82:d5:3e:5a:1a:42:40:4d:
         71:15:17:cd:9e:c8:53:cd:10:5c:bf:21:08:fe:48:6b:ec:25:
         ee:fc:10:12:11:fc:a4:16:fa:6f:3d:50:5a:92:b5:50:56:47:
         87:bd:ca:f4:57:5d:5b:47:9d:e8:f3:e1:f0:50:4e:b6:e7:f2:
         65:2f:40:35:d8:b3:6d:95:ea:a9:c3:ab:d1:80:83:f9:4f:22:
         03:94:a3:be:fa:f1:a2:68:6d:7c:5b:00:ee:40:48:ab:4b:1c:
         60:55:16:4c:10:8e:d7:7a:27:f8:ff:c5:75:a7:bd:77:0e:2f:
         ff:ca:19:e3
-----BEGIN CERTIFICATE-----
MIID6zCCAtOgAwIBAgICEAEwDQYJKoZIhvcNAQELBQAwgYUxCzAJBgNVBAYTAkNa
MRowGAYDVQQIDBFKaWhvbW9yYXZza3kga3JhajENMAsGA1UEBwwEQnJubzEjMCEG
A1UECgwaT3BlblN0YWNrIENvbW1vbiBMaWJyYXJpZXMxFDASBgNVBAsMC0VuZ2lu
ZWVyaW5nMRAwDgYDVQQDDAdSb290IENBMB4XDTE4MDgxMDE2MjgwNloXDTI4MDgw
NzE2MjgwNlowgYIxCzAJBgNVBAYTAkNaMRowGAYDVQQIDBFKaWhvbW9yYXZza3kg
a3JhajEjMCEGA1UECgwaT3BlblN0YWNrIENvbW1vbiBMaWJyYXJpZXMxFDASBgNV
BAsMC0VuZ2luZWVyaW5nMRwwGgYDVQQDDBNJbnRlcm1lZGlhdGUgQ0EgMDAyMIIB
IjANBgkqhkiG9w0BAQEFAAOCAQ8AMIIBCgKCAQEA47grTwElQ/VLKN9CAdGEliYk
RZVAK+aVcuR29rOMLZnKCFhaEZJnhnxd1mTWFmByqQTHL4Gu2lqGbGP9na06Qxae
y5IpXaLANsoAicucUw87o0B8f7ckErj2+B6/Y7OyMoXrCc44FgonXISQ9WbhKq+z
0DQ0pd76jlRALoKcCubhGfU60v/46ag4kaQfRZlzMWdq1aw/V6U21N86B1EO8Ieb
USI5u1iG0K1oX0vVw9e8EwakDQ/bhr4/1yUWmW19KyKy6IpJE2+Jdmu5ZUWreoeg
VF/GObXIphaoxO5VEL1894u0zFU9EhX40XUqNgWYnIlUsdM+L+Kn9dfMg2qYkwID
AQABo2YwZDAdBgNVHQ4EFgQUueT4n6NuOn0TvvsKkiyAi6CZXrkwHwYDVR0jBBgw
FoAU/+5db6WxZlIozBBxP0FQEZaX5/kwEgYDVR0TAQH/BAgwBgEB/wIBADAOBgNV
HQ8BAf8EBAMCAYYwDQYJKoZIhvcNAQELBQADggEBAMqfZELam8Qe2z1Zzl3K8tI7
0Oc/81KGcsZ+0YBxMef/+C2Od9f0XDg2XjOgzxELrzZksu1FeyBrqiNsX760YCLf
wi8jZLJ4ONBPhKfAogHOdL4sGQ4yQde74HlsHhHf4ztmjqXYXTh9q26J2Fz6yngn
BlFhuRowJysklJbIDu8I1xV7pnqN1AOC1T5aGkJATXEVF82eyFPNEFy/IQj+SGvs
Je78EBIR/KQW+m89UFqStVBWR4e9yvRXXVtHnejz4fBQTrbn8mUvQDXYs22V6qnD
q9GAg/lPIgOUo7768aJobXxbAO5ASKtLHGBVFkwQjtd6J/j/xXWnvXcOL//KGeM=
-----END CERTIFICATE-----
