Certificate:
    Data:
        Version: 3 (0x2)
        Serial Number: 4100 (0x1004)
    Signature Algorithm: sha256WithRSAEncryption
        Issuer: C=CZ, ST=Jihomoravsky kraj, O=OpenStack Common Libraries, OU=Engineering, CN=Intermediate CA 002
        Validity
            Not Before: Aug 14 16:16:14 2018 GMT
            Not After : Sep  4 16:16:14 2018 GMT
        Subject: C=CZ, ST=Jihomoravsky kraj, L=Brno, O=OpenStack Common Libraries, OU=Engineering, CN=Node 002005
        Subject Public Key Info:
            Public Key Algorithm: rsaEncryption
                Public-Key: (2048 bit)
                Modulus:
                    00:d5:cd:72:05:74:19:39:c8:aa:7b:7f:a0:87:1d:
                    3e:72:f5:27:90:d7:51:88:85:fc:8f:49:d3:ce:4a:
                    5f:cb:ae:37:51:03:9f:d6:93:6a:db:63:e5:b6:66:
                    8c:44:8d:67:29:a4:f4:c2:64:0f:a0:ea:1d:57:fd:
                    03:33:aa:80:27:d2:be:9f:8f:39:28:ed:b4:41:ea:
                    68:31:d5:61:db:1e:5f:a1:7b:f7:99:c3:5e:9c:17:
                    c2:b1:dc:bb:c1:75:47:b5:4c:3d:29:f1:95:75:28:
                    36:96:34:b4:fb:c8:c2:99:b4:d3:4d:b3:d9:d7:55:
                    28:97:4e:68:96:bf:30:0d:4c:bf:20:1b:9f:15:e0:
                    06:53:40:41:c1:6f:ed:82:73:f3:cc:2e:97:60:d8:
                    1f:13:c7:d7:25:aa:59:8a:87:82:d5:4f:c4:3f:ed:
                    21:fb:0f:6c:79:06:05:67:78:97:04:21:90:86:1e:
                    20:a3:78:38:d3:b1:2f:9f:64:10:81:b8:1e:04:19:
                    4f:96:99:56:02:a4:81:c5:22:f6:5e:e6:2f:0c:69:
                    f3:25:47:1f:ed:6c:9b:c0:9c:6f:50:3c:2c:b5:87:
                    45:35:89:91:90:33:49:bc:07:ce:cd:cd:97:9a:b5:
                    d3:45:e9:15:fe:17:8f:9e:e2:b1:36:ee:e7:fe:5b:
                    67:b9
                Exponent: 65537 (0x10001)
        X509v3 extensions:
            X509v3 Basic Constraints: 
                CA:FALSE
            Netscape Cert Type: 
                SSL Client, S/MIME
            Netscape Comment: 
                OpenSSL Generated Client Certificate
            X509v3 Subject Key Identifier: 
                7A:2A:96:41:54:E5:70:46:C6:82:D2:D8:67:9C:35:E0:2F:71:2B:0E
            X509v3 Authority Key Identifier: 
                keyid:BC:A2:F9:8A:E9:02:F7:FC:43:B7:9A:1D:E8:0F:DC:C7:73:24:2D:20

            X509v3 Key Usage: critical
                Digital Signature, Non Repudiation, Key Encipherment
            X509v3 Extended Key Usage: 
                TLS Web Client Authentication, E-mail Protection
    Signature Algorithm: sha256WithRSAEncryption
         0f:4d:f1:6e:54:3f:8c:24:13:29:c3:b0:a2:ef:2d:b0:9c:a1:
         20:cf:dd:37:9b:b6:32:80:87:27:38:0f:8d:23:aa:91:92:15:
         ab:eb:97:a3:c1:42:9c:34:1d:34:1d:d4:b6:90:eb:c3:0d:15:
         a5:6a:32:fb:19:85:a6:7b:85:b6:eb:07:26:49:e1:df:b6:9d:
         0b:44:4b:19:0e:08:0f:c4:c8:08:50:01:21:f1:10:be:3d:df:
         5e:99:f0:3c:a3:3e:e9:73:ac:5f:65:19:0c:df:44:84:b0:75:
         43:e8:5c:64:14:5f:86:71:28:1c:cc:3c:09:71:30:7e:e2:54:
         3d:8e:57:0a:b6:18:a2:8d:41:e3:76:b6:3c:08:f7:06:eb:69:
         d1:0e:b0:f8:c4:02:76:d2:65:18:7e:17:aa:90:1a:b5:b1:06:
         b7:5f:2a:de:0a:6e:06:c6:2b:8d:8e:37:94:b2:e9:88:e4:36:
         70:b4:e9:75:0a:44:25:41:b1:71:d3:5c:0b:11:ff:04:df:4b:
         a0:4a:c0:b2:70:3b:9e:77:e0:88:53:6d:9d:ab:a1:65:45:64:
         d5:c0:01:01:e6:e5:83:8a:b3:13:2b:4e:38:7c:22:4d:51:4a:
         25:ef:66:d2:20:5a:4c:0b:75:f1:0e:c7:c2:d3:af:50:b1:31:
         ce:07:aa:94:77:31:e0:67:53:5b:5e:2b:dd:38:32:b1:0f:c9:
         0b:17:fa:0d:a8:9d:1f:81:b8:1e:8c:52:b9:95:3c:10:95:f6:
         ef:4d:46:81:b5:5c:8c:21:91:41:aa:14:78:27:86:97:08:ed:
         dc:90:30:bf:ea:c8:d8:7a:d3:96:03:37:f7:8b:bf:e6:dc:7e:
         e6:22:74:bf:8c:5c:48:d1:62:71:26:f6:e9:53:1d:b8:67:44:
         3d:20:55:8c:e8:f8:23:b6:ca:d9:52:ee:9a:e9:ab:35:1c:0f:
         66:d8:6b:38:85:fe:24:c8:a1:ee:de:53:bc:3a:ee:cf:5c:75:
         ce:6e:85:2c:ea:23:3c:ef:d3:29:e4:b8:02:ca:17:4e:29:f0:
         3e:8e:a7:ff:79:a2:80:bb:b2:32:6f:85:46:54:31:15:ab:4a:
         b8:b9:dd:82:ec:46:22:4f:46:3d:b6:dc:74:26:25:a8:97:7c:
         37:32:13:18:e0:33:0f:42:fc:d0:3e:90:df:82:cf:80:0c:20:
         5b:f1:5f:d9:3f:3b:24:62:41:d6:b9:a3:39:85:74:9b:c9:21:
         86:a9:3e:41:f7:da:ce:20:4c:ed:54:5b:e4:7b:d8:1f:61:30:
         b0:78:0f:6f:2d:32:5c:18:33:2b:07:96:d8:37:85:73:5f:e2:
         c0:f9:c7:78:7e:e6:c7:84
-----BEGIN CERTIFICATE-----
MIIFTzCCAzegAwIBAgICEAQwDQYJKoZIhvcNAQELBQAwgYIxCzAJBgNVBAYTAkNa
MRowGAYDVQQIDBFKaWhvbW9yYXZza3kga3JhajEjMCEGA1UECgwaT3BlblN0YWNr
IENvbW1vbiBMaWJyYXJpZXMxFDASBgNVBAsMC0VuZ2luZWVyaW5nMRwwGgYDVQQD
DBNJbnRlcm1lZGlhdGUgQ0EgMDAyMB4XDTE4MDgxNDE2MTYxNFoXDTE4MDkwNDE2
MTYxNFowgYkxCzAJBgNVBAYTAkNaMRowGAYDVQQIDBFKaWhvbW9yYXZza3kga3Jh
ajENMAsGA1UEBwwEQnJubzEjMCEGA1UECgwaT3BlblN0YWNrIENvbW1vbiBMaWJy
YXJpZXMxFDASBgNVBAsMC0VuZ2luZWVyaW5nMRQwEgYDVQQDDAtOb2RlIDAwMjAw
NTCCASIwDQYJKoZIhvcNAQEBBQADggEPADCCAQoCggEBANXNcgV0GTnIqnt/oIcd
PnL1J5DXUYiF/I9J085KX8uuN1EDn9aTattj5bZmjESNZymk9MJkD6DqHVf9AzOq
gCfSvp+POSjttEHqaDHVYdseX6F795nDXpwXwrHcu8F1R7VMPSnxlXUoNpY0tPvI
wpm0002z2ddVKJdOaJa/MA1MvyAbnxXgBlNAQcFv7YJz88wul2DYHxPH1yWqWYqH
gtVPxD/tIfsPbHkGBWd4lwQhkIYeIKN4ONOxL59kEIG4HgQZT5aZVgKkgcUi9l7m
Lwxp8yVHH+1sm8Ccb1A8LLWHRTWJkZAzSbwHzs3Nl5q100XpFf4Xj57isTbu5/5b
Z7kCAwEAAaOBxTCBwjAJBgNVHRMEAjAAMBEGCWCGSAGG+EIBAQQEAwIFoDAzBglg
hkgBhvhCAQ0EJhYkT3BlblNTTCBHZW5lcmF0ZWQgQ2xpZW50IENlcnRpZmljYXRl
MB0GA1UdDgQWBBR6KpZBVOVwRsaC0thnnDXgL3ErDjAfBgNVHSMEGDAWgBS8ovmK
6QL3/EO3mh3oD9zHcyQtIDAOBgNVHQ8BAf8EBAMCBeAwHQYDVR0lBBYwFAYIKwYB
BQUHAwIGCCsGAQUFBwMEMA0GCSqGSIb3DQEBCwUAA4ICAQAPTfFuVD+MJBMpw7Ci
7y2wnKEgz903m7YygIcnOA+NI6qRkhWr65ejwUKcNB00HdS2kOvDDRWlajL7GYWm
e4W26wcmSeHftp0LREsZDggPxMgIUAEh8RC+Pd9emfA8oz7pc6xfZRkM30SEsHVD
6FxkFF+GcSgczDwJcTB+4lQ9jlcKthiijUHjdrY8CPcG62nRDrD4xAJ20mUYfheq
kBq1sQa3XyreCm4GxiuNjjeUsumI5DZwtOl1CkQlQbFx01wLEf8E30ugSsCycDue
d+CIU22dq6FlRWTVwAEB5uWDirMTK044fCJNUUol72bSIFpMC3XxDsfC069QsTHO
B6qUdzHgZ1NbXivdODKxD8kLF/oNqJ0fgbgejFK5lTwQlfbvTUaBtVyMIZFBqhR4
J4aXCO3ckDC/6sjYetOWAzf3i7/m3H7mInS/jFxI0WJxJvbpUx24Z0Q9IFWM6Pgj
tsrZUu6a6as1HA9m2Gs4hf4kyKHu3lO8Ou7PXHXOboUs6iM879Mp5LgCyhdOKfA+
jqf/eaKAu7Iyb4VGVDEVq0q4ud2C7EYiT0Y9ttx0JiWol3w3MhMY4DMPQvzQPpDf
gs+ADCBb8V/ZPzskYkHWuaM5hXSbySGGqT5B99rOIEztVFvke9gfYTCweA9vLTJc
GDMrB5bYN4VzX+LA+cd4fubHhA==
-----END CERTIFICATE-----
Certificate:
    Data:
        Version: 3 (0x2)
        Serial Number: 4098 (0x1002)
    Signature Algorithm: sha256WithRSAEncryption
        Issuer: C=CZ, ST=Jihomoravsky kraj, L=Brno, O=OpenStack Common Libraries, OU=Engineering, CN=Root CA
        Validity
            Not Before: Aug 14 16:16:11 2018 GMT
            Not After : Aug 11 16:16:11 2028 GMT
        Subject: C=CZ, ST=Jihomoravsky kraj, O=OpenStack Common Libraries, OU=Engineering, CN=Intermediate CA 002
        Subject Public Key Info:
            Public Key Algorithm: rsaEncryption
                Public-Key: (4096 bit)
                Modulus:
                    00:c2:a1:f1:49:ce:c7:4e:08:ce:d1:4f:d1:50:1c:
                    f6:7b:0c:a3:ca:d1:c4:6a:d3:8d:04:84:51:f5:82:
                    26:8e:10:de:f8:f6:a2:22:02:23:fa:b0:61:2e:62:
                    7b:b8:aa:84:66:19:d0:dc:d3:42:50:33:17:5f:d8:
                    8d:c1:72:e6:84:26:82:39:67:2d:c1:21:12:e7:f4:
                    ac:5c:90:c6:a7:ff:68:1a:d3:f0:66:8c:2f:2b:df:
                    33:3f:ea:d5:59:9b:ec:0c:29:dc:d8:97:62:42:6b:
                    ae:48:e8:72:7b:5d:a9:80:89:50:5a:f9:19:e1:b2:
                    45:1e:96:cf:4e:38:1f:ac:cb:53:d2:c4:e6:80:ca:
                    a6:2a:52:73:7e:f8:f2:66:ec:b8:8d:29:46:9e:aa:
                    81:91:7c:ff:71:47:af:aa:f9:c3:13:65:57:61:67:
                    ee:31:42:01:3d:17:a1:a3:37:02:35:0e:73:1f:7b:
                    7f:1e:85:c4:37:9d:1f:51:b6:94:95:27:cb:9d:5d:
                    1e:5c:b8:4b:83:6c:ab:84:ec:6c:0c:ae:a7:23:9e:
                    c3:4f:41:1e:5d:2e:ed:7f:37:8f:42:fd:e3:fe:6d:
                    5d:77:cd:c9:b3:82:ce:4c:e5:47:3d:29:22:ba:84:
                    d3:af:f6:34:b8:f3:68:84:1b:e2:51:3e:bf:17:25:
                    72:50:8a:42:36:70:72:0e:15:2e:c8:9b:05:14:3b:
                    48:43:53:0f:c1:eb:59:5d:1a:f7:3e:53:b2:f2:21:
                    c7:e8:52:62:4b:53:fe:b9:f8:d0:8f:6a:2e:02:b5:
                    33:27:ff:09:ac:7b:7f:31:6c:ce:ba:c2:b5:d6:26:
                    ad:df:dd:8d:9f:29:af:fd:39:3a:62:5f:5d:6f:50:
                    3a:35:ee:01:16:76:f6:9b:c6:0a:ef:3a:e2:50:ba:
                    81:13:fd:9e:c8:41:f2:c7:60:54:d1:d9:1e:e6:b7:
                    01:a3:4f:98:a4:a7:82:88:65:80:1e:ae:d5:26:2f:
                    88:89:a9:00:8e:80:86:92:d5:2a:07:54:28:04:4e:
                    e5:fc:c3:6a:43:95:71:78:a2:b7:1b:c6:db:b6:38:
                    33:c4:e2:af:49:1d:a7:e7:89:3c:cc:6f:7a:1d:8f:
                    3a:b4:47:12:f5:f4:6e:b8:f7:94:cf:7d:90:7a:01:
                    3e:b8:83:95:46:3d:20:25:17:57:6a:91:b1:35:a2:
                    39:94:49:19:9f:a2:ff:6b:0d:3f:f9:5e:fe:a9:01:
                    fd:88:9d:28:28:75:4c:2d:5f:73:bc:36:cc:af:df:
                    b8:f5:25:a4:e2:95:89:56:7b:f2:c6:69:fd:67:40:
                    f2:07:c7:d6:c8:c0:a5:3c:e8:57:49:be:27:39:67:
                    bb:1d:95
                Exponent: 65537 (0x10001)
        X509v3 extensions:
            X509v3 Subject Key Identifier: 
                BC:A2:F9:8A:E9:02:F7:FC:43:B7:9A:1D:E8:0F:DC:C7:73:24:2D:20
            X509v3 Authority Key Identifier: 
                keyid:93:83:48:92:23:B6:C3:DA:A7:15:85:08:41:75:30:67:97:A5:D4:9C

            X509v3 Basic Constraints: critical
                CA:TRUE, pathlen:0
            X509v3 Key Usage: critical
                Digital Signature, Certificate Sign, CRL Sign
    Signature Algorithm: sha256WithRSAEncryption
         39:42:77:89:e6:9c:97:af:ce:a4:4f:d9:2a:f6:ed:db:b4:7d:
         62:de:51:3c:9f:7b:28:f0:87:fe:d1:e8:ff:c0:02:09:dd:78:
         ed:e7:f8:5d:29:92:26:a3:92:7c:82:f3:dd:cf:10:b9:f2:d6:
         89:dd:90:bc:9c:ef:a0:e1:7c:62:9b:f0:21:79:77:c8:ce:09:
         2a:57:c5:4b:96:fc:73:5a:ec:f2:64:f9:6d:96:2b:4b:ad:44:
         04:cd:5c:6b:04:06:a8:c7:32:80:b5:5b:50:0c:6c:07:c3:70:
         a7:5b:5f:67:23:8b:5a:c5:54:52:63:67:19:19:f4:2b:eb:42:
         c1:53:03:96:a6:2a:86:01:0c:96:9d:ad:c2:04:f2:ad:6c:dc:
         b9:47:06:12:6b:13:8d:cd:5f:1e:99:95:25:8b:c1:bb:1b:73:
         82:4a:17:82:4c:2c:26:74:a5:47:a3:e0:c6:fc:b8:18:4a:44:
         c3:d9:ac:b1:7a:0c:92:6f:10:dd:5a:19:46:5a:d1:48:77:56:
         ee:5c:20:1a:29:fe:fb:6f:2f:c1:e6:4b:f1:4b:aa:74:01:fe:
         75:b0:7a:06:30:ab:7d:ee:9c:9e:ee:a3:a5:73:a7:f3:2b:72:
         18:75:48:29:ae:b5:c0:f3:7d:c1:87:f7:49:96:b2:c7:dc:27:
         56:00:c6:e0:d1:84:52:ff:89:d7:09:19:77:af:5a:0f:39:7c:
         49:04:02:35:b8:1d:e6:67:74:27:d6:84:f4:74:65:81:0f:bb:
         79:1b:b6:75:87:ee:c5:0a:5a:33:81:3b:53:8a:7d:f8:63:0a:
         c7:4e:ca:a0:34:22:23:f6:eb:52:c4:24:fb:96:29:51:ab:61:
         8b:3c:b3:5b:75:2a:d5:0a:4a:6b:68:de:81:f7:a2:d5:07:a1:
         19:24:3a:d4:90:80:86:6f:eb:02:01:32:70:4a:a0:56:eb:1f:
         bc:c4:ab:cb:00:22:85:34:0a:f6:d2:bd:d5:76:10:6c:f9:73:
         ec:15:cf:81:46:50:32:0e:03:fe:11:b7:21:dc:e0:c2:65:b7:
         f0:52:60:98:7a:76:24:b0:20:af:64:3e:b1:66:53:9f:e8:25:
         6c:c3:28:8c:ac:44:88:d2:1d:17:85:94:9c:b8:c2:80:6a:24:
         a8:ca:2b:cb:55:ad:02:3b:9d:be:f5:66:d9:85:bb:ef:75:f2:
         8d:f1:93:3a:51:b6:50:0a:81:07:77:a9:e3:c0:f6:ca:ca:77:
         a9:b9:de:56:bd:73:d9:78:d6:73:e0:ff:7a:47:74:2e:5c:17:
         60:60:68:bd:36:c7:d6:8a:b5:8f:58:6e:31:19:86:96:a0:1d:
         56:83:6a:43:28:56:9f:5a
-----BEGIN CERTIFICATE-----
MIIF6zCCA9OgAwIBAgICEAIwDQYJKoZIhvcNAQELBQAwgYUxCzAJBgNVBAYTAkNa
MRowGAYDVQQIDBFKaWhvbW9yYXZza3kga3JhajENMAsGA1UEBwwEQnJubzEjMCEG
A1UECgwaT3BlblN0YWNrIENvbW1vbiBMaWJyYXJpZXMxFDASBgNVBAsMC0VuZ2lu
ZWVyaW5nMRAwDgYDVQQDDAdSb290IENBMB4XDTE4MDgxNDE2MTYxMVoXDTI4MDgx
MTE2MTYxMVowgYIxCzAJBgNVBAYTAkNaMRowGAYDVQQIDBFKaWhvbW9yYXZza3kg
a3JhajEjMCEGA1UECgwaT3BlblN0YWNrIENvbW1vbiBMaWJyYXJpZXMxFDASBgNV
BAsMC0VuZ2luZWVyaW5nMRwwGgYDVQQDDBNJbnRlcm1lZGlhdGUgQ0EgMDAyMIIC
IjANBgkqhkiG9w0BAQEFAAOCAg8AMIICCgKCAgEAwqHxSc7HTgjO0U/RUBz2ewyj
ytHEatONBIRR9YImjhDe+PaiIgIj+rBhLmJ7uKqEZhnQ3NNCUDMXX9iNwXLmhCaC
OWctwSES5/SsXJDGp/9oGtPwZowvK98zP+rVWZvsDCnc2JdiQmuuSOhye12pgIlQ
WvkZ4bJFHpbPTjgfrMtT0sTmgMqmKlJzfvjyZuy4jSlGnqqBkXz/cUevqvnDE2VX
YWfuMUIBPRehozcCNQ5zH3t/HoXEN50fUbaUlSfLnV0eXLhLg2yrhOxsDK6nI57D
T0EeXS7tfzePQv3j/m1dd83Js4LOTOVHPSkiuoTTr/Y0uPNohBviUT6/FyVyUIpC
NnByDhUuyJsFFDtIQ1MPwetZXRr3PlOy8iHH6FJiS1P+ufjQj2ouArUzJ/8JrHt/
MWzOusK11iat392Nnymv/Tk6Yl9db1A6Ne4BFnb2m8YK7zriULqBE/2eyEHyx2BU
0dke5rcBo0+YpKeCiGWAHq7VJi+IiakAjoCGktUqB1QoBE7l/MNqQ5VxeKK3G8bb
tjgzxOKvSR2n54k8zG96HY86tEcS9fRuuPeUz32QegE+uIOVRj0gJRdXapGxNaI5
lEkZn6L/aw0/+V7+qQH9iJ0oKHVMLV9zvDbMr9+49SWk4pWJVnvyxmn9Z0DyB8fW
yMClPOhXSb4nOWe7HZUCAwEAAaNmMGQwHQYDVR0OBBYEFLyi+YrpAvf8Q7eaHegP
3MdzJC0gMB8GA1UdIwQYMBaAFJODSJIjtsPapxWFCEF1MGeXpdScMBIGA1UdEwEB
/wQIMAYBAf8CAQAwDgYDVR0PAQH/BAQDAgGGMA0GCSqGSIb3DQEBCwUAA4ICAQA5
QneJ5pyXr86kT9kq9u3btH1i3lE8n3so8If+0ej/wAIJ3Xjt5/hdKZImo5J8gvPd
zxC58taJ3ZC8nO+g4Xxim/AheXfIzgkqV8VLlvxzWuzyZPltlitLrUQEzVxrBAao
xzKAtVtQDGwHw3CnW19nI4taxVRSY2cZGfQr60LBUwOWpiqGAQyWna3CBPKtbNy5
RwYSaxONzV8emZUli8G7G3OCSheCTCwmdKVHo+DG/LgYSkTD2ayxegySbxDdWhlG
WtFId1buXCAaKf77by/B5kvxS6p0Af51sHoGMKt97pye7qOlc6fzK3IYdUgprrXA
833Bh/dJlrLH3CdWAMbg0YRS/4nXCRl3r1oPOXxJBAI1uB3mZ3Qn1oT0dGWBD7t5
G7Z1h+7FClozgTtTin34YwrHTsqgNCIj9utSxCT7lilRq2GLPLNbdSrVCkpraN6B
96LVB6EZJDrUkICGb+sCATJwSqBW6x+8xKvLACKFNAr20r3VdhBs+XPsFc+BRlAy
DgP+Ebch3ODCZbfwUmCYenYksCCvZD6xZlOf6CVswyiMrESI0h0XhZScuMKAaiSo
yivLVa0CO52+9WbZhbvvdfKN8ZM6UbZQCoEHd6njwPbKynepud5WvXPZeNZz4P96
R3QuXBdgYGi9NsfWirWPWG4xGYaWoB1Wg2pDKFafWg==
-----END CERTIFICATE-----
