Certificate:
    Data:
        Version: 3 (0x2)
        Serial Number: 4096 (0x1000)
    Signature Algorithm: sha256WithRSAEncryption
        Issuer: C=CZ, ST=Jihomoravsky kraj, O=OpenStack Common Libraries, OU=Engineering, CN=Intermediate CA 002
        Validity
            Not Before: Aug 14 16:16:14 2018 GMT
            Not After : Sep  4 16:16:14 2018 GMT
        Subject: C=CZ, ST=Jihomoravsky kraj, L=Brno, O=OpenStack Common Libraries, OU=Engineering, CN=Node 002001
        Subject Public Key Info:
            Public Key Algorithm: rsaEncryption
                Public-Key: (2048 bit)
                Modulus:
                    00:c2:92:da:97:d9:11:a7:5e:83:47:29:e6:4a:98:
                    00:05:23:51:09:6c:ae:5c:9d:80:cc:fb:77:55:aa:
                    f0:90:e9:3b:d1:9c:57:51:40:cb:af:0c:e8:b6:59:
                    d4:08:6f:47:dd:48:68:bb:98:ae:db:40:a2:89:5c:
                    e8:47:c6:91:15:92:2f:ca:f9:e9:79:05:d1:b1:27:
                    dc:ab:f2:8b:0a:d8:5a:fc:dc:f7:a8:6d:08:7c:ba:
                    91:a8:db:74:6e:3e:b3:a5:72:78:74:91:a2:dd:c5:
                    db:77:1f:39:90:f2:ad:c7:5c:b8:aa:fa:c0:48:7b:
                    b8:a6:5b:7d:c5:f0:22:f0:5e:e7:5c:4a:ad:b5:85:
                    11:eb:0c:63:ef:d1:d7:4b:c3:aa:ac:28:57:31:1c:
                    8f:fd:72:eb:d2:5d:f7:fd:0d:bc:71:a0:89:16:27:
                    01:18:0f:f9:4e:25:7d:46:20:09:6e:ca:3d:be:0f:
                    07:e3:ea:e8:b9:34:a1:da:ef:17:92:03:68:70:65:
                    71:fe:cd:61:80:b3:d8:67:62:94:0e:b6:41:5c:12:
                    e9:a5:d2:65:dd:0b:0e:31:b9:3d:f7:e3:08:06:b4:
                    db:72:2b:42:fd:b4:21:bd:3b:d0:c0:a6:f0:f2:14:
                    6f:06:85:b7:6e:1c:a2:e3:6c:41:38:bb:1c:6a:7d:
                    2e:2b
                Exponent: 65537 (0x10001)
        X509v3 extensions:
            X509v3 Basic Constraints: 
                CA:FALSE
            Netscape Cert Type: 
                SSL Client, S/MIME
            Netscape Comment: 
                OpenSSL Generated Client Certificate
            X509v3 Subject Key Identifier: 
                B3:F5:35:A5:F9:36:76:08:9D:D0:B0:81:C6:A0:60:D9:5B:28:2B:4C
            X509v3 Authority Key Identifier: 
                keyid:BC:A2:F9:8A:E9:02:F7:FC:43:B7:9A:1D:E8:0F:DC:C7:73:24:2D:20

            X509v3 Key Usage: critical
                Digital Signature, Non Repudiation, Key Encipherment
            X509v3 Extended Key Usage: 
                TLS Web Client Authentication, E-mail Protection
    Signature Algorithm: sha256WithRSAEncryption
         61:8d:68:9c:c3:ae:5f:36:8f:f5:03:9d:7a:63:09:89:31:be:
         2b:16:7e:43:41:ab:9e:16:58:92:a0:1a:f6:a0:56:8e:ec:b6:
         94:56:b8:86:7e:7e:fb:b7:b3:43:09:96:f1:0c:d3:b1:6e:30:
         91:28:d6:09:30:ce:b8:2e:e5:a2:17:e2:9c:ba:de:39:40:c5:
         e4:82:15:30:75:d7:51:fe:36:73:81:5d:3c:72:42:82:c0:75:
         b0:df:85:84:6f:e9:97:1d:97:df:f2:d0:f1:33:39:f7:ad:fa:
         cd:18:99:a6:3c:ec:aa:b6:6c:02:5e:63:5b:83:31:dd:cc:cb:
         43:7d:7f:32:fe:f6:ba:43:f0:b8:82:da:29:8f:07:d5:47:16:
         c3:31:91:60:d4:d7:68:53:df:ef:be:bf:51:15:15:eb:fd:30:
         7e:2d:c2:30:29:1f:62:40:14:ec:fa:18:4b:95:2f:ad:55:2b:
         af:6b:7e:65:58:87:03:8b:01:4f:d5:02:bd:21:0f:09:97:0e:
         bd:47:13:62:8b:c6:8a:06:99:5d:5f:8a:58:93:5e:6b:3f:f6:
         93:dd:7f:7b:6c:44:88:bb:d3:12:07:66:30:c0:db:1f:2f:91:
         70:1c:82:66:fb:f9:5d:49:cb:0f:c2:34:24:7d:38:f0:2d:48:
         98:db:07:0f:c7:be:fb:1c:ad:34:92:7d:7a:71:d6:d6:c3:e1:
         72:83:10:3d:03:4e:4f:25:82:23:8f:d7:13:21:64:90:a2:78:
         65:b9:36:d7:a0:04:ca:a0:0b:40:4d:77:68:15:48:43:e0:f9:
         61:18:8a:d2:06:06:99:e1:d8:02:19:49:e5:3d:6a:4e:aa:9d:
         7e:ac:c8:c3:0b:18:e4:2a:b0:ac:3d:93:d1:80:a5:34:aa:c9:
         e1:0e:45:9d:52:26:a1:aa:81:5a:01:04:b8:55:fe:3b:af:c6:
         c3:1c:ec:e0:45:4a:eb:e4:0e:16:fe:88:96:37:17:a4:82:d4:
         8b:6f:df:b3:c0:28:f4:d8:dd:d2:cc:22:2b:67:d0:63:92:e3:
         de:c0:4a:fc:15:45:d0:9f:81:e3:1e:8a:de:00:d0:d1:33:5c:
         ef:e1:80:03:1c:4e:0f:e5:9c:54:ee:9f:a6:5f:74:19:e3:ae:
         0e:5b:7e:6d:46:61:46:5b:e8:f4:d3:65:25:e2:d4:f0:3f:92:
         d8:52:36:bc:59:5f:2c:a7:4f:8c:99:e5:03:95:41:09:36:07:
         fc:4a:1b:7a:b4:9f:48:da:4a:5c:82:ed:a1:cc:27:5f:aa:6d:
         48:bd:37:cf:5d:31:25:aa:9c:bb:7b:e0:f2:4e:f7:79:ec:2a:
         8c:9c:ce:23:26:2f:4f:72
-----BEGIN CERTIFICATE-----
MIIFTzCCAzegAwIBAgICEAAwDQYJKoZIhvcNAQELBQAwgYIxCzAJBgNVBAYTAkNa
MRowGAYDVQQIDBFKaWhvbW9yYXZza3kga3JhajEjMCEGA1UECgwaT3BlblN0YWNr
IENvbW1vbiBMaWJyYXJpZXMxFDASBgNVBAsMC0VuZ2luZWVyaW5nMRwwGgYDVQQD
DBNJbnRlcm1lZGlhdGUgQ0EgMDAyMB4XDTE4MDgxNDE2MTYxNFoXDTE4MDkwNDE2
MTYxNFowgYkxCzAJBgNVBAYTAkNaMRowGAYDVQQIDBFKaWhvbW9yYXZza3kga3Jh
ajENMAsGA1UEBwwEQnJubzEjMCEGA1UECgwaT3BlblN0YWNrIENvbW1vbiBMaWJy
YXJpZXMxFDASBgNVBAsMC0VuZ2luZWVyaW5nMRQwEgYDVQQDDAtOb2RlIDAwMjAw
MTCCASIwDQYJKoZIhvcNAQEBBQADggEPADCCAQoCggEBAMKS2pfZEadeg0cp5kqY
AAUjUQlsrlydgMz7d1Wq8JDpO9GcV1FAy68M6LZZ1AhvR91IaLuYrttAoolc6EfG
kRWSL8r56XkF0bEn3KvyiwrYWvzc96htCHy6kajbdG4+s6VyeHSRot3F23cfOZDy
rcdcuKr6wEh7uKZbfcXwIvBe51xKrbWFEesMY+/R10vDqqwoVzEcj/1y69Jd9/0N
vHGgiRYnARgP+U4lfUYgCW7KPb4PB+Pq6Lk0odrvF5IDaHBlcf7NYYCz2GdilA62
QVwS6aXSZd0LDjG5PffjCAa023IrQv20Ib070MCm8PIUbwaFt24couNsQTi7HGp9
LisCAwEAAaOBxTCBwjAJBgNVHRMEAjAAMBEGCWCGSAGG+EIBAQQEAwIFoDAzBglg
hkgBhvhCAQ0EJhYkT3BlblNTTCBHZW5lcmF0ZWQgQ2xpZW50IENlcnRpZmljYXRl
MB0GA1UdDgQWBBSz9TWl+TZ2CJ3QsIHGoGDZWygrTDAfBgNVHSMEGDAWgBS8ovmK
6QL3/EO3mh3oD9zHcyQtIDAOBgNVHQ8BAf8EBAMCBeAwHQYDVR0lBBYwFAYIKwYB
BQUHAwIGCCsGAQUFBwMEMA0GCSqGSIb3DQEBCwUAA4ICAQBhjWicw65fNo/1A516
YwmJMb4rFn5DQaueFliSoBr2oFaO7LaUVriGfn77t7NDCZbxDNOxbjCRKNYJMM64
LuWiF+Kcut45QMXkghUwdddR/jZzgV08ckKCwHWw34WEb+mXHZff8tDxMzn3rfrN
GJmmPOyqtmwCXmNbgzHdzMtDfX8y/va6Q/C4gtopjwfVRxbDMZFg1NdoU9/vvr9R
FRXr/TB+LcIwKR9iQBTs+hhLlS+tVSuva35lWIcDiwFP1QK9IQ8Jlw69RxNii8aK
BpldX4pYk15rP/aT3X97bESIu9MSB2YwwNsfL5FwHIJm+/ldScsPwjQkfTjwLUiY
2wcPx777HK00kn16cdbWw+FygxA9A05PJYIjj9cTIWSQonhluTbXoATKoAtATXdo
FUhD4PlhGIrSBgaZ4dgCGUnlPWpOqp1+rMjDCxjkKrCsPZPRgKU0qsnhDkWdUiah
qoFaAQS4Vf47r8bDHOzgRUrr5A4W/oiWNxekgtSLb9+zwCj02N3SzCIrZ9BjkuPe
wEr8FUXQn4HjHoreANDRM1zv4YADHE4P5ZxU7p+mX3QZ464OW35tRmFGW+j002Ul
4tTwP5LYUja8WV8sp0+MmeUDlUEJNgf8Sht6tJ9I2kpcgu2hzCdfqm1IvTfPXTEl
qpy7e+DyTvd57CqMnM4jJi9Pcg==
-----END CERTIFICATE-----
Certificate:
    Data:
        Version: 3 (0x2)
        Serial Number: 4098 (0x1002)
    Signature Algorithm: sha256WithRSAEncryption
        Issuer: C=CZ, ST=Jihomoravsky kraj, L=Brno, O=OpenStack Common Libraries, OU=Engineering, CN=Root CA
        Validity
            Not Before: Aug 14 16:16:11 2018 GMT
            Not After : Aug 11 16:16:11 2028 GMT
        Subject: C=CZ, ST=Jihomoravsky kraj, O=OpenStack Common Libraries, OU=Engineering, CN=Intermediate CA 002
        Subject Public Key Info:
            Public Key Algorithm: rsaEncryption
                Public-Key: (4096 bit)
                Modulus:
                    00:c2:a1:f1:49:ce:c7:4e:08:ce:d1:4f:d1:50:1c:
                    f6:7b:0c:a3:ca:d1:c4:6a:d3:8d:04:84:51:f5:82:
                    26:8e:10:de:f8:f6:a2:22:02:23:fa:b0:61:2e:62:
                    7b:b8:aa:84:66:19:d0:dc:d3:42:50:33:17:5f:d8:
                    8d:c1:72:e6:84:26:82:39:67:2d:c1:21:12:e7:f4:
                    ac:5c:90:c6:a7:ff:68:1a:d3:f0:66:8c:2f:2b:df:
                    33:3f:ea:d5:59:9b:ec:0c:29:dc:d8:97:62:42:6b:
                    ae:48:e8:72:7b:5d:a9:80:89:50:5a:f9:19:e1:b2:
                    45:1e:96:cf:4e:38:1f:ac:cb:53:d2:c4:e6:80:ca:
                    a6:2a:52:73:7e:f8:f2:66:ec:b8:8d:29:46:9e:aa:
                    81:91:7c:ff:71:47:af:aa:f9:c3:13:65:57:61:67:
                    ee:31:42:01:3d:17:a1:a3:37:02:35:0e:73:1f:7b:
                    7f:1e:85:c4:37:9d:1f:51:b6:94:95:27:cb:9d:5d:
                    1e:5c:b8:4b:83:6c:ab:84:ec:6c:0c:ae:a7:23:9e:
                    c3:4f:41:1e:5d:2e:ed:7f:37:8f:42:fd:e3:fe:6d:
                    5d:77:cd:c9:b3:82:ce:4c:e5:47:3d:29:22:ba:84:
                    d3:af:f6:34:b8:f3:68:84:1b:e2:51:3e:bf:17:25:
                    72:50:8a:42:36:70:72:0e:15:2e:c8:9b:05:14:3b:
                    48:43:53:0f:c1:eb:59:5d:1a:f7:3e:53:b2:f2:21:
                    c7:e8:52:62:4b:53:fe:b9:f8:d0:8f:6a:2e:02:b5:
                    33:27:ff:09:ac:7b:7f:31:6c:ce:ba:c2:b5:d6:26:
                    ad:df:dd:8d:9f:29:af:fd:39:3a:62:5f:5d:6f:50:
                    3a:35:ee:01:16:76:f6:9b:c6:0a:ef:3a:e2:50:ba:
                    81:13:fd:9e:c8:41:f2:c7:60:54:d1:d9:1e:e6:b7:
                    01:a3:4f:98:a4:a7:82:88:65:80:1e:ae:d5:26:2f:
                    88:89:a9:00:8e:80:86:92:d5:2a:07:54:28:04:4e:
                    e5:fc:c3:6a:43:95:71:78:a2:b7:1b:c6:db:b6:38:
                    33:c4:e2:af:49:1d:a7:e7:89:3c:cc:6f:7a:1d:8f:
                    3a:b4:47:12:f5:f4:6e:b8:f7:94:cf:7d:90:7a:01:
                    3e:b8:83:95:46:3d:20:25:17:57:6a:91:b1:35:a2:
                    39:94:49:19:9f:a2:ff:6b:0d:3f:f9:5e:fe:a9:01:
                    fd:88:9d:28:28:75:4c:2d:5f:73:bc:36:cc:af:df:
                    b8:f5:25:a4:e2:95:89:56:7b:f2:c6:69:fd:67:40:
                    f2:07:c7:d6:c8:c0:a5:3c:e8:57:49:be:27:39:67:
                    bb:1d:95
                Exponent: 65537 (0x10001)
        X509v3 extensions:
            X509v3 Subject Key Identifier: 
                BC:A2:F9:8A:E9:02:F7:FC:43:B7:9A:1D:E8:0F:DC:C7:73:24:2D:20
            X509v3 Authority Key Identifier: 
                keyid:93:83:48:92:23:B6:C3:DA:A7:15:85:08:41:75:30:67:97:A5:D4:9C

            X509v3 Basic Constraints: critical
                CA:TRUE, pathlen:0
            X509v3 Key Usage: critical
                Digital Signature, Certificate Sign, CRL Sign
    Signature Algorithm: sha256WithRSAEncryption
         39:42:77:89:e6:9c:97:af:ce:a4:4f:d9:2a:f6:ed:db:b4:7d:
         62:de:51:3c:9f:7b:28:f0:87:fe:d1:e8:ff:c0:02:09:dd:78:
         ed:e7:f8:5d:29:92:26:a3:92:7c:82:f3:dd:cf:10:b9:f2:d6:
         89:dd:90:bc:9c:ef:a0:e1:7c:62:9b:f0:21:79:77:c8:ce:09:
         2a:57:c5:4b:96:fc:73:5a:ec:f2:64:f9:6d:96:2b:4b:ad:44:
         04:cd:5c:6b:04:06:a8:c7:32:80:b5:5b:50:0c:6c:07:c3:70:
         a7:5b:5f:67:23:8b:5a:c5:54:52:63:67:19:19:f4:2b:eb:42:
         c1:53:03:96:a6:2a:86:01:0c:96:9d:ad:c2:04:f2:ad:6c:dc:
         b9:47:06:12:6b:13:8d:cd:5f:1e:99:95:25:8b:c1:bb:1b:73:
         82:4a:17:82:4c:2c:26:74:a5:47:a3:e0:c6:fc:b8:18:4a:44:
         c3:d9:ac:b1:7a:0c:92:6f:10:dd:5a:19:46:5a:d1:48:77:56:
         ee:5c:20:1a:29:fe:fb:6f:2f:c1:e6:4b:f1:4b:aa:74:01:fe:
         75:b0:7a:06:30:ab:7d:ee:9c:9e:ee:a3:a5:73:a7:f3:2b:72:
         18:75:48:29:ae:b5:c0:f3:7d:c1:87:f7:49:96:b2:c7:dc:27:
         56:00:c6:e0:d1:84:52:ff:89:d7:09:19:77:af:5a:0f:39:7c:
         49:04:02:35:b8:1d:e6:67:74:27:d6:84:f4:74:65:81:0f:bb:
         79:1b:b6:75:87:ee:c5:0a:5a:33:81:3b:53:8a:7d:f8:63:0a:
         c7:4e:ca:a0:34:22:23:f6:eb:52:c4:24:fb:96:29:51:ab:61:
         8b:3c:b3:5b:75:2a:d5:0a:4a:6b:68:de:81:f7:a2:d5:07:a1:
         19:24:3a:d4:90:80:86:6f:eb:02:01:32:70:4a:a0:56:eb:1f:
         bc:c4:ab:cb:00:22:85:34:0a:f6:d2:bd:d5:76:10:6c:f9:73:
         ec:15:cf:81:46:50:32:0e:03:fe:11:b7:21:dc:e0:c2:65:b7:
         f0:52:60:98:7a:76:24:b0:20:af:64:3e:b1:66:53:9f:e8:25:
         6c:c3:28:8c:ac:44:88:d2:1d:17:85:94:9c:b8:c2:80:6a:24:
         a8:ca:2b:cb:55:ad:02:3b:9d:be:f5:66:d9:85:bb:ef:75:f2:
         8d:f1:93:3a:51:b6:50:0a:81:07:77:a9:e3:c0:f6:ca:ca:77:
         a9:b9:de:56:bd:73:d9:78:d6:73:e0:ff:7a:47:74:2e:5c:17:
         60:60:68:bd:36:c7:d6:8a:b5:8f:58:6e:31:19:86:96:a0:1d:
         56:83:6a:43:28:56:9f:5a
-----BEGIN CERTIFICATE-----
MIIF6zCCA9OgAwIBAgICEAIwDQYJKoZIhvcNAQELBQAwgYUxCzAJBgNVBAYTAkNa
MRowGAYDVQQIDBFKaWhvbW9yYXZza3kga3JhajENMAsGA1UEBwwEQnJubzEjMCEG
A1UECgwaT3BlblN0YWNrIENvbW1vbiBMaWJyYXJpZXMxFDASBgNVBAsMC0VuZ2lu
ZWVyaW5nMRAwDgYDVQQDDAdSb290IENBMB4XDTE4MDgxNDE2MTYxMVoXDTI4MDgx
MTE2MTYxMVowgYIxCzAJBgNVBAYTAkNaMRowGAYDVQQIDBFKaWhvbW9yYXZza3kg
a3JhajEjMCEGA1UECgwaT3BlblN0YWNrIENvbW1vbiBMaWJyYXJpZXMxFDASBgNV
BAsMC0VuZ2luZWVyaW5nMRwwGgYDVQQDDBNJbnRlcm1lZGlhdGUgQ0EgMDAyMIIC
IjANBgkqhkiG9w0BAQEFAAOCAg8AMIICCgKCAgEAwqHxSc7HTgjO0U/RUBz2ewyj
ytHEatONBIRR9YImjhDe+PaiIgIj+rBhLmJ7uKqEZhnQ3NNCUDMXX9iNwXLmhCaC
OWctwSES5/SsXJDGp/9oGtPwZowvK98zP+rVWZvsDCnc2JdiQmuuSOhye12pgIlQ
WvkZ4bJFHpbPTjgfrMtT0sTmgMqmKlJzfvjyZuy4jSlGnqqBkXz/cUevqvnDE2VX
YWfuMUIBPRehozcCNQ5zH3t/HoXEN50fUbaUlSfLnV0eXLhLg2yrhOxsDK6nI57D
T0EeXS7tfzePQv3j/m1dd83Js4LOTOVHPSkiuoTTr/Y0uPNohBviUT6/FyVyUIpC
NnByDhUuyJsFFDtIQ1MPwetZXRr3PlOy8iHH6FJiS1P+ufjQj2ouArUzJ/8JrHt/
MWzOusK11iat392Nnymv/Tk6Yl9db1A6Ne4BFnb2m8YK7zriULqBE/2eyEHyx2BU
0dke5rcBo0+YpKeCiGWAHq7VJi+IiakAjoCGktUqB1QoBE7l/MNqQ5VxeKK3G8bb
tjgzxOKvSR2n54k8zG96HY86tEcS9fRuuPeUz32QegE+uIOVRj0gJRdXapGxNaI5
lEkZn6L/aw0/+V7+qQH9iJ0oKHVMLV9zvDbMr9+49SWk4pWJVnvyxmn9Z0DyB8fW
yMClPOhXSb4nOWe7HZUCAwEAAaNmMGQwHQYDVR0OBBYEFLyi+YrpAvf8Q7eaHegP
3MdzJC0gMB8GA1UdIwQYMBaAFJODSJIjtsPapxWFCEF1MGeXpdScMBIGA1UdEwEB
/wQIMAYBAf8CAQAwDgYDVR0PAQH/BAQDAgGGMA0GCSqGSIb3DQEBCwUAA4ICAQA5
QneJ5pyXr86kT9kq9u3btH1i3lE8n3so8If+0ej/wAIJ3Xjt5/hdKZImo5J8gvPd
zxC58taJ3ZC8nO+g4Xxim/AheXfIzgkqV8VLlvxzWuzyZPltlitLrUQEzVxrBAao
xzKAtVtQDGwHw3CnW19nI4taxVRSY2cZGfQr60LBUwOWpiqGAQyWna3CBPKtbNy5
RwYSaxONzV8emZUli8G7G3OCSheCTCwmdKVHo+DG/LgYSkTD2ayxegySbxDdWhlG
WtFId1buXCAaKf77by/B5kvxS6p0Af51sHoGMKt97pye7qOlc6fzK3IYdUgprrXA
833Bh/dJlrLH3CdWAMbg0YRS/4nXCRl3r1oPOXxJBAI1uB3mZ3Qn1oT0dGWBD7t5
G7Z1h+7FClozgTtTin34YwrHTsqgNCIj9utSxCT7lilRq2GLPLNbdSrVCkpraN6B
96LVB6EZJDrUkICGb+sCATJwSqBW6x+8xKvLACKFNAr20r3VdhBs+XPsFc+BRlAy
DgP+Ebch3ODCZbfwUmCYenYksCCvZD6xZlOf6CVswyiMrESI0h0XhZScuMKAaiSo
yivLVa0CO52+9WbZhbvvdfKN8ZM6UbZQCoEHd6njwPbKynepud5WvXPZeNZz4P96
R3QuXBdgYGi9NsfWirWPWG4xGYaWoB1Wg2pDKFafWg==
-----END CERTIFICATE-----
