Certificate:
    Data:
        Version: 3 (0x2)
        Serial Number: 4100 (0x1004)
    Signature Algorithm: sha256WithRSAEncryption
        Issuer: C=CZ, ST=Jihomoravsky kraj, O=OpenStack Common Libraries, OU=Engineering, CN=Intermediate CA 002
        Validity
            Not Before: Aug 10 16:28:21 2018 GMT
            Not After : Aug 31 16:28:21 2018 GMT
        Subject: C=CZ, ST=Jihomoravsky kraj, L=Brno, O=OpenStack Common Libraries, OU=Engineering, CN=Node 002005
        Subject Public Key Info:
            Public Key Algorithm: rsaEncryption
                Public-Key: (2048 bit)
                Modulus:
                    00:c2:2d:c7:25:c4:57:11:cc:92:0a:5e:cd:1e:81:
                    8d:e4:6a:d9:e5:95:65:f2:58:7f:73:a3:2e:40:b8:
                    5e:e5:00:b9:86:0b:72:d9:e2:83:42:98:21:ba:78:
                    df:9a:7e:29:ba:f3:bf:64:9e:79:89:df:2a:ea:ba:
                    ac:ed:58:14:c1:30:01:f4:e1:fe:88:f9:5f:ea:e9:
                    e0:56:e5:eb:fc:1f:f4:6b:78:88:42:5d:da:ea:ee:
                    7c:2f:0a:0a:5c:f0:ef:92:e0:9a:20:d4:41:87:b0:
                    b5:c6:29:63:f0:c7:2f:77:77:da:6a:3f:15:89:c3:
                    22:bd:c4:cd:aa:2f:30:0f:b0:02:90:dc:eb:96:e3:
                    dd:5a:d7:75:75:d4:6a:52:13:df:29:50:c7:36:68:
                    b2:86:52:d1:a2:e3:dd:76:1b:d0:01:aa:0c:8d:91:
                    43:e8:23:5b:b9:d6:3c:7c:7d:4a:c3:58:27:c5:9b:
                    a2:17:25:4c:3c:56:87:b2:de:ab:d3:1c:db:55:94:
                    c8:43:d5:49:65:65:c7:5a:4b:9c:d5:2c:19:23:e4:
                    4b:0c:98:b7:e3:0c:fa:ff:48:cd:5e:a0:99:42:e2:
                    83:a9:47:55:01:c0:f4:14:6a:6d:07:59:07:2e:18:
                    ea:1f:f9:17:13:27:55:cd:7d:05:bc:8c:0e:5e:e2:
                    93:8b
                Exponent: 65537 (0x10001)
        X509v3 extensions:
            X509v3 Basic Constraints: 
                CA:FALSE
            Netscape Cert Type: 
                SSL Client, S/MIME
            Netscape Comment: 
                OpenSSL Generated Client Certificate
            X509v3 Subject Key Identifier: 
                43:5E:28:7B:03:96:EA:D6:70:46:A6:07:2D:C0:35:FB:FD:D3:0A:55
            X509v3 Authority Key Identifier: 
                keyid:B9:E4:F8:9F:A3:6E:3A:7D:13:BE:FB:0A:92:2C:80:8B:A0:99:5E:B9

            X509v3 Key Usage: critical
                Digital Signature, Non Repudiation, Key Encipherment
            X509v3 Extended Key Usage: 
                TLS Web Client Authentication, E-mail Protection
    Signature Algorithm: sha256WithRSAEncryption
         34:4f:a5:82:28:b8:bb:99:a1:ae:40:66:44:18:46:ca:43:0c:
         79:5d:6b:56:44:2a:97:8d:ac:7c:40:06:8e:94:02:07:2e:04:
         95:01:48:dc:16:a6:30:c5:09:0e:38:db:ad:4c:a6:0e:bb:e5:
         05:fe:2d:ea:dc:be:9a:d7:7f:d2:68:69:9c:d2:75:e2:34:f5:
         62:1d:0a:32:13:a7:a3:dc:2f:cc:a6:17:23:b6:fe:0a:ee:f9:
         dc:a8:27:59:6c:b6:d9:97:f1:e5:7e:fe:c0:a3:d0:93:64:ee:
         80:5c:61:af:91:0f:ee:a5:8b:ed:2d:eb:f8:03:d2:3e:14:c1:
         df:1d:6c:ef:a7:44:33:4f:40:2a:a1:8b:f8:95:50:09:be:4f:
         29:44:6e:b9:77:3e:25:b1:70:0e:d9:b0:34:a0:0e:8b:4c:fd:
         ac:f4:ae:de:ae:91:3e:de:b5:cb:95:cf:5b:0c:f1:8b:36:94:
         b7:9e:cc:3f:81:54:36:72:e1:02:cd:55:1e:c8:36:c8:51:5c:
         ff:f5:ec:4a:0b:e1:e4:a5:ae:92:af:0a:e0:be:32:1f:b3:09:
         22:10:cb:19:2e:33:6e:8b:b9:ff:d9:27:ca:52:5d:e8:6c:1d:
         25:47:0b:d0:df:05:ac:39:32:19:5f:84:c6:41:f4:52:36:fb:
         5c:68:4e:03
-----BEGIN CERTIFICATE-----
MIIETzCCAzegAwIBAgICEAQwDQYJKoZIhvcNAQELBQAwgYIxCzAJBgNVBAYTAkNa
MRowGAYDVQQIDBFKaWhvbW9yYXZza3kga3JhajEjMCEGA1UECgwaT3BlblN0YWNr
IENvbW1vbiBMaWJyYXJpZXMxFDASBgNVBAsMC0VuZ2luZWVyaW5nMRwwGgYDVQQD
DBNJbnRlcm1lZGlhdGUgQ0EgMDAyMB4XDTE4MDgxMDE2MjgyMVoXDTE4MDgzMTE2
MjgyMVowgYkxCzAJBgNVBAYTAkNaMRowGAYDVQQIDBFKaWhvbW9yYXZza3kga3Jh
ajENMAsGA1UEBwwEQnJubzEjMCEGA1UECgwaT3BlblN0YWNrIENvbW1vbiBMaWJy
YXJpZXMxFDASBgNVBAsMC0VuZ2luZWVyaW5nMRQwEgYDVQQDDAtOb2RlIDAwMjAw
NTCCASIwDQYJKoZIhvcNAQEBBQADggEPADCCAQoCggEBAMItxyXEVxHMkgpezR6B
jeRq2eWVZfJYf3OjLkC4XuUAuYYLctnig0KYIbp435p+Kbrzv2SeeYnfKuq6rO1Y
FMEwAfTh/oj5X+rp4Fbl6/wf9Gt4iEJd2urufC8KClzw75LgmiDUQYewtcYpY/DH
L3d32mo/FYnDIr3EzaovMA+wApDc65bj3VrXdXXUalIT3ylQxzZosoZS0aLj3XYb
0AGqDI2RQ+gjW7nWPHx9SsNYJ8WbohclTDxWh7Leq9Mc21WUyEPVSWVlx1pLnNUs
GSPkSwyYt+MM+v9IzV6gmULig6lHVQHA9BRqbQdZBy4Y6h/5FxMnVc19BbyMDl7i
k4sCAwEAAaOBxTCBwjAJBgNVHRMEAjAAMBEGCWCGSAGG+EIBAQQEAwIFoDAzBglg
hkgBhvhCAQ0EJhYkT3BlblNTTCBHZW5lcmF0ZWQgQ2xpZW50IENlcnRpZmljYXRl
MB0GA1UdDgQWBBRDXih7A5bq1nBGpgctwDX7/dMKVTAfBgNVHSMEGDAWgBS55Pif
o246fRO++wqSLICLoJleuTAOBgNVHQ8BAf8EBAMCBeAwHQYDVR0lBBYwFAYIKwYB
BQUHAwIGCCsGAQUFBwMEMA0GCSqGSIb3DQEBCwUAA4IBAQA0T6WCKLi7maGuQGZE
GEbKQwx5XWtWRCqXjax8QAaOlAIHLgSVAUjcFqYwxQkOONutTKYOu+UF/i3q3L6a
13/SaGmc0nXiNPViHQoyE6ej3C/Mphcjtv4K7vncqCdZbLbZl/Hlfv7Ao9CTZO6A
XGGvkQ/upYvtLev4A9I+FMHfHWzvp0QzT0AqoYv4lVAJvk8pRG65dz4lsXAO2bA0
oA6LTP2s9K7erpE+3rXLlc9bDPGLNpS3nsw/gVQ2cuECzVUeyDbIUVz/9exKC+Hk
pa6SrwrgvjIfswkiEMsZLjNui7n/2SfKUl3obB0lRwvQ3wWsOTIZX4TGQfRSNvtc
aE4D
-----END CERTIFICATE-----
