Certificate:
    Data:
        Version: 3 (0x2)
        Serial Number: 4096 (0x1000)
    Signature Algorithm: sha256WithRSAEncryption
        Issuer: C=CZ, ST=Jihomoravsky kraj, O=OpenStack Common Libraries, OU=Engineering, CN=Intermediate CA 002
        Validity
            Not Before: Aug 14 16:16:14 2018 GMT
            Not After : Sep  4 16:16:14 2018 GMT
        Subject: C=CZ, ST=Jihomoravsky kraj, L=Brno, O=OpenStack Common Libraries, OU=Engineering, CN=Node 002001
        Subject Public Key Info:
            Public Key Algorithm: rsaEncryption
                Public-Key: (2048 bit)
                Modulus:
                    00:c2:92:da:97:d9:11:a7:5e:83:47:29:e6:4a:98:
                    00:05:23:51:09:6c:ae:5c:9d:80:cc:fb:77:55:aa:
                    f0:90:e9:3b:d1:9c:57:51:40:cb:af:0c:e8:b6:59:
                    d4:08:6f:47:dd:48:68:bb:98:ae:db:40:a2:89:5c:
                    e8:47:c6:91:15:92:2f:ca:f9:e9:79:05:d1:b1:27:
                    dc:ab:f2:8b:0a:d8:5a:fc:dc:f7:a8:6d:08:7c:ba:
                    91:a8:db:74:6e:3e:b3:a5:72:78:74:91:a2:dd:c5:
                    db:77:1f:39:90:f2:ad:c7:5c:b8:aa:fa:c0:48:7b:
                    b8:a6:5b:7d:c5:f0:22:f0:5e:e7:5c:4a:ad:b5:85:
                    11:eb:0c:63:ef:d1:d7:4b:c3:aa:ac:28:57:31:1c:
                    8f:fd:72:eb:d2:5d:f7:fd:0d:bc:71:a0:89:16:27:
                    01:18:0f:f9:4e:25:7d:46:20:09:6e:ca:3d:be:0f:
                    07:e3:ea:e8:b9:34:a1:da:ef:17:92:03:68:70:65:
                    71:fe:cd:61:80:b3:d8:67:62:94:0e:b6:41:5c:12:
                    e9:a5:d2:65:dd:0b:0e:31:b9:3d:f7:e3:08:06:b4:
                    db:72:2b:42:fd:b4:21:bd:3b:d0:c0:a6:f0:f2:14:
                    6f:06:85:b7:6e:1c:a2:e3:6c:41:38:bb:1c:6a:7d:
                    2e:2b
                Exponent: 65537 (0x10001)
        X509v3 extensions:
            X509v3 Basic Constraints: 
                CA:FALSE
            Netscape Cert Type: 
                SSL Client, S/MIME
            Netscape Comment: 
                OpenSSL Generated Client Certificate
            X509v3 Subject Key Identifier: 
                B3:F5:35:A5:F9:36:76:08:9D:D0:B0:81:C6:A0:60:D9:5B:28:2B:4C
            X509v3 Authority Key Identifier: 
                keyid:BC:A2:F9:8A:E9:02:F7:FC:43:B7:9A:1D:E8:0F:DC:C7:73:24:2D:20

            X509v3 Key Usage: critical
                Digital Signature, Non Repudiation, Key Encipherment
            X509v3 Extended Key Usage: 
                TLS Web Client Authentication, E-mail Protection
    Signature Algorithm: sha256WithRSAEncryption
         61:8d:68:9c:c3:ae:5f:36:8f:f5:03:9d:7a:63:09:89:31:be:
         2b:16:7e:43:41:ab:9e:16:58:92:a0:1a:f6:a0:56:8e:ec:b6:
         94:56:b8:86:7e:7e:fb:b7:b3:43:09:96:f1:0c:d3:b1:6e:30:
         91:28:d6:09:30:ce:b8:2e:e5:a2:17:e2:9c:ba:de:39:40:c5:
         e4:82:15:30:75:d7:51:fe:36:73:81:5d:3c:72:42:82:c0:75:
         b0:df:85:84:6f:e9:97:1d:97:df:f2:d0:f1:33:39:f7:ad:fa:
         cd:18:99:a6:3c:ec:aa:b6:6c:02:5e:63:5b:83:31:dd:cc:cb:
         43:7d:7f:32:fe:f6:ba:43:f0:b8:82:da:29:8f:07:d5:47:16:
         c3:31:91:60:d4:d7:68:53:df:ef:be:bf:51:15:15:eb:fd:30:
         7e:2d:c2:30:29:1f:62:40:14:ec:fa:18:4b:95:2f:ad:55:2b:
         af:6b:7e:65:58:87:03:8b:01:4f:d5:02:bd:21:0f:09:97:0e:
         bd:47:13:62:8b:c6:8a:06:99:5d:5f:8a:58:93:5e:6b:3f:f6:
         93:dd:7f:7b:6c:44:88:bb:d3:12:07:66:30:c0:db:1f:2f:91:
         70:1c:82:66:fb:f9:5d:49:cb:0f:c2:34:24:7d:38:f0:2d:48:
         98:db:07:0f:c7:be:fb:1c:ad:34:92:7d:7a:71:d6:d6:c3:e1:
         72:83:10:3d:03:4e:4f:25:82:23:8f:d7:13:21:64:90:a2:78:
         65:b9:36:d7:a0:04:ca:a0:0b:40:4d:77:68:15:48:43:e0:f9:
         61:18:8a:d2:06:06:99:e1:d8:02:19:49:e5:3d:6a:4e:aa:9d:
         7e:ac:c8:c3:0b:18:e4:2a:b0:ac:3d:93:d1:80:a5:34:aa:c9:
         e1:0e:45:9d:52:26:a1:aa:81:5a:01:04:b8:55:fe:3b:af:c6:
         c3:1c:ec:e0:45:4a:eb:e4:0e:16:fe:88:96:37:17:a4:82:d4:
         8b:6f:df:b3:c0:28:f4:d8:dd:d2:cc:22:2b:67:d0:63:92:e3:
         de:c0:4a:fc:15:45:d0:9f:81:e3:1e:8a:de:00:d0:d1:33:5c:
         ef:e1:80:03:1c:4e:0f:e5:9c:54:ee:9f:a6:5f:74:19:e3:ae:
         0e:5b:7e:6d:46:61:46:5b:e8:f4:d3:65:25:e2:d4:f0:3f:92:
         d8:52:36:bc:59:5f:2c:a7:4f:8c:99:e5:03:95:41:09:36:07:
         fc:4a:1b:7a:b4:9f:48:da:4a:5c:82:ed:a1:cc:27:5f:aa:6d:
         48:bd:37:cf:5d:31:25:aa:9c:bb:7b:e0:f2:4e:f7:79:ec:2a:
         8c:9c:ce:23:26:2f:4f:72
-----BEGIN CERTIFICATE-----
MIIFTzCCAzegAwIBAgICEAAwDQYJKoZIhvcNAQELBQAwgYIxCzAJBgNVBAYTAkNa
MRowGAYDVQQIDBFKaWhvbW9yYXZza3kga3JhajEjMCEGA1UECgwaT3BlblN0YWNr
IENvbW1vbiBMaWJyYXJpZXMxFDASBgNVBAsMC0VuZ2luZWVyaW5nMRwwGgYDVQQD
DBNJbnRlcm1lZGlhdGUgQ0EgMDAyMB4XDTE4MDgxNDE2MTYxNFoXDTE4MDkwNDE2
MTYxNFowgYkxCzAJBgNVBAYTAkNaMRowGAYDVQQIDBFKaWhvbW9yYXZza3kga3Jh
ajENMAsGA1UEBwwEQnJubzEjMCEGA1UECgwaT3BlblN0YWNrIENvbW1vbiBMaWJy
YXJpZXMxFDASBgNVBAsMC0VuZ2luZWVyaW5nMRQwEgYDVQQDDAtOb2RlIDAwMjAw
MTCCASIwDQYJKoZIhvcNAQEBBQADggEPADCCAQoCggEBAMKS2pfZEadeg0cp5kqY
AAUjUQlsrlydgMz7d1Wq8JDpO9GcV1FAy68M6LZZ1AhvR91IaLuYrttAoolc6EfG
kRWSL8r56XkF0bEn3KvyiwrYWvzc96htCHy6kajbdG4+s6VyeHSRot3F23cfOZDy
rcdcuKr6wEh7uKZbfcXwIvBe51xKrbWFEesMY+/R10vDqqwoVzEcj/1y69Jd9/0N
vHGgiRYnARgP+U4lfUYgCW7KPb4PB+Pq6Lk0odrvF5IDaHBlcf7NYYCz2GdilA62
QVwS6aXSZd0LDjG5PffjCAa023IrQv20Ib070MCm8PIUbwaFt24couNsQTi7HGp9
LisCAwEAAaOBxTCBwjAJBgNVHRMEAjAAMBEGCWCGSAGG+EIBAQQEAwIFoDAzBglg
hkgBhvhCAQ0EJhYkT3BlblNTTCBHZW5lcmF0ZWQgQ2xpZW50IENlcnRpZmljYXRl
MB0GA1UdDgQWBBSz9TWl+TZ2CJ3QsIHGoGDZWygrTDAfBgNVHSMEGDAWgBS8ovmK
6QL3/EO3mh3oD9zHcyQtIDAOBgNVHQ8BAf8EBAMCBeAwHQYDVR0lBBYwFAYIKwYB
BQUHAwIGCCsGAQUFBwMEMA0GCSqGSIb3DQEBCwUAA4ICAQBhjWicw65fNo/1A516
YwmJMb4rFn5DQaueFliSoBr2oFaO7LaUVriGfn77t7NDCZbxDNOxbjCRKNYJMM64
LuWiF+Kcut45QMXkghUwdddR/jZzgV08ckKCwHWw34WEb+mXHZff8tDxMzn3rfrN
GJmmPOyqtmwCXmNbgzHdzMtDfX8y/va6Q/C4gtopjwfVRxbDMZFg1NdoU9/vvr9R
FRXr/TB+LcIwKR9iQBTs+hhLlS+tVSuva35lWIcDiwFP1QK9IQ8Jlw69RxNii8aK
BpldX4pYk15rP/aT3X97bESIu9MSB2YwwNsfL5FwHIJm+/ldScsPwjQkfTjwLUiY
2wcPx777HK00kn16cdbWw+FygxA9A05PJYIjj9cTIWSQonhluTbXoATKoAtATXdo
FUhD4PlhGIrSBgaZ4dgCGUnlPWpOqp1+rMjDCxjkKrCsPZPRgKU0qsnhDkWdUiah
qoFaAQS4Vf47r8bDHOzgRUrr5A4W/oiWNxekgtSLb9+zwCj02N3SzCIrZ9BjkuPe
wEr8FUXQn4HjHoreANDRM1zv4YADHE4P5ZxU7p+mX3QZ464OW35tRmFGW+j002Ul
4tTwP5LYUja8WV8sp0+MmeUDlUEJNgf8Sht6tJ9I2kpcgu2hzCdfqm1IvTfPXTEl
qpy7e+DyTvd57CqMnM4jJi9Pcg==
-----END CERTIFICATE-----
