Certificate:
    Data:
        Version: 3 (0x2)
        Serial Number: 4097 (0x1001)
    Signature Algorithm: sha256WithRSAEncryption
        Issuer: C=CZ, ST=Jihomoravsky kraj, O=OpenStack Common Libraries, OU=Engineering, CN=Intermediate CA 002
        Validity
            Not Before: Aug 14 16:16:14 2018 GMT
            Not After : Sep  4 16:16:14 2018 GMT
        Subject: C=CZ, ST=Jihomoravsky kraj, L=Brno, O=OpenStack Common Libraries, OU=Engineering, CN=Node 002002
        Subject Public Key Info:
            Public Key Algorithm: rsaEncryption
                Public-Key: (2048 bit)
                Modulus:
                    00:c1:43:6b:6f:f8:42:b8:f4:73:5c:02:f2:49:eb:
                    8d:11:41:58:46:a3:71:78:4b:a9:d3:99:03:04:09:
                    22:48:45:2e:e7:8e:07:bb:19:1f:1f:fb:27:bc:72:
                    29:68:01:f2:1e:06:18:cc:52:cf:2b:2d:f8:f8:3d:
                    ae:c2:1c:70:34:17:70:26:b6:b7:5d:ba:d4:c0:d1:
                    4c:2e:e3:b1:81:f6:1d:9f:2e:7c:b4:9f:12:c8:2b:
                    ea:33:dc:af:92:f7:35:35:e9:f2:2b:37:5c:b3:ad:
                    a3:34:ac:bb:33:ed:e0:6d:37:e3:ea:eb:12:ea:ce:
                    94:c5:0e:5c:7a:f6:fa:53:3b:e1:94:b3:e1:87:eb:
                    3a:2a:00:05:d2:cf:66:5c:f6:d1:9b:18:70:53:99:
                    b0:b7:78:5f:e2:d8:c0:f7:0e:84:ca:24:ea:79:03:
                    32:5f:1c:0f:2e:d5:c8:d4:d9:a9:63:c7:76:6d:b9:
                    f9:8f:cd:93:fb:3f:8a:40:ed:71:d3:c6:8c:b0:04:
                    90:9d:8b:a7:69:5b:8d:38:f9:51:8b:61:19:a1:ef:
                    f3:0b:30:ae:ef:7e:45:c9:47:cd:9d:d6:1c:84:7c:
                    8e:55:ff:15:76:0e:6a:25:0d:90:30:b2:a8:8d:09:
                    b2:fb:03:f3:92:3e:8f:ac:55:3b:30:26:f5:cd:01:
                    55:9f
                Exponent: 65537 (0x10001)
        X509v3 extensions:
            X509v3 Basic Constraints: 
                CA:FALSE
            Netscape Cert Type: 
                SSL Client, S/MIME
            Netscape Comment: 
                OpenSSL Generated Client Certificate
            X509v3 Subject Key Identifier: 
                25:CD:F7:61:24:56:D4:0C:D6:CB:9A:69:FB:38:84:06:4F:7A:39:C9
            X509v3 Authority Key Identifier: 
                keyid:BC:A2:F9:8A:E9:02:F7:FC:43:B7:9A:1D:E8:0F:DC:C7:73:24:2D:20

            X509v3 Key Usage: critical
                Digital Signature, Non Repudiation, Key Encipherment
            X509v3 Extended Key Usage: 
                TLS Web Client Authentication, E-mail Protection
    Signature Algorithm: sha256WithRSAEncryption
         63:b6:c1:a4:05:fa:a6:5a:d5:d0:5e:70:d3:33:49:6c:ab:d0:
         94:1e:2e:a1:50:38:01:4a:94:0b:1e:bc:5c:af:bb:98:1e:e7:
         db:8f:0f:37:19:b4:d2:6c:f2:4d:4b:66:5c:d3:0e:2c:62:8a:
         18:0b:13:de:30:dc:a3:75:fc:09:8b:a3:a8:a1:8b:72:0e:a3:
         d1:93:57:62:d8:9d:7b:47:6a:53:55:09:27:9f:cf:b6:2d:85:
         4f:64:66:78:5c:6c:f7:c2:3a:f7:c8:a3:65:01:a8:27:f4:50:
         62:b0:d6:ce:1c:d4:98:25:e2:62:a3:30:80:65:2c:77:73:be:
         8c:8f:56:8b:84:cf:e1:ba:80:38:c1:50:5a:04:a0:ff:64:09:
         f7:be:6b:06:3d:fb:64:51:22:78:54:ae:4b:e6:3b:68:e7:d9:
         fe:07:71:7d:36:c1:53:6b:b4:83:42:fc:8b:c2:5d:28:23:99:
         97:e4:1d:a3:fc:7b:79:4d:6c:78:c2:a8:e9:94:bf:ee:09:21:
         a1:ec:ab:00:9b:6c:f4:34:0d:6c:f0:69:8b:26:ba:d5:0b:08:
         fb:bb:89:4b:86:87:54:9b:d9:04:f1:24:41:53:b2:de:d6:a5:
         d1:9b:da:52:cc:50:7b:69:66:10:4f:50:ba:30:da:1c:e6:54:
         7a:14:6a:cf:8e:32:35:36:9d:84:dc:5a:0e:01:1a:95:9a:4f:
         3e:a8:02:de:a3:6e:09:28:15:dd:de:f8:9a:f6:f7:36:8c:57:
         7b:ad:2f:34:e5:3c:f0:74:5c:ce:02:04:8d:1d:a9:9a:b5:6d:
         51:e7:a5:d3:52:36:f9:a5:23:a4:1b:a1:63:f2:c4:ae:dd:f5:
         ab:d4:0e:0e:78:89:44:01:9e:cf:67:1e:ae:6e:21:c7:d6:cc:
         9b:49:22:6a:d8:df:24:50:f3:de:4d:e9:df:4f:6f:49:8b:bd:
         d6:8e:e7:f6:c2:fd:5f:42:73:47:0e:7e:18:b7:ae:f4:65:6a:
         3f:9c:12:01:44:25:e3:c2:c3:76:39:27:51:f6:e5:8c:1a:ff:
         c3:49:78:b1:2f:69:72:b6:7f:04:85:3c:6e:ff:57:78:aa:44:
         45:39:78:69:67:a4:a8:91:82:90:ee:39:d9:89:35:4e:ef:73:
         86:fe:cd:b3:b1:34:2e:87:af:1c:7c:be:24:38:3e:e3:57:cc:
         2f:60:1e:cb:61:a2:2d:ec:f6:33:24:26:00:1d:f6:36:29:d8:
         04:2d:e1:9d:99:36:0f:03:71:55:db:ee:e2:57:d6:3e:9a:17:
         9b:25:c4:93:5a:d3:4b:fb:19:3e:be:70:1c:16:c3:e4:ac:2d:
         61:03:ef:3c:1f:d8:46:01
-----BEGIN CERTIFICATE-----
MIIFTzCCAzegAwIBAgICEAEwDQYJKoZIhvcNAQELBQAwgYIxCzAJBgNVBAYTAkNa
MRowGAYDVQQIDBFKaWhvbW9yYXZza3kga3JhajEjMCEGA1UECgwaT3BlblN0YWNr
IENvbW1vbiBMaWJyYXJpZXMxFDASBgNVBAsMC0VuZ2luZWVyaW5nMRwwGgYDVQQD
DBNJbnRlcm1lZGlhdGUgQ0EgMDAyMB4XDTE4MDgxNDE2MTYxNFoXDTE4MDkwNDE2
MTYxNFowgYkxCzAJBgNVBAYTAkNaMRowGAYDVQQIDBFKaWhvbW9yYXZza3kga3Jh
ajENMAsGA1UEBwwEQnJubzEjMCEGA1UECgwaT3BlblN0YWNrIENvbW1vbiBMaWJy
YXJpZXMxFDASBgNVBAsMC0VuZ2luZWVyaW5nMRQwEgYDVQQDDAtOb2RlIDAwMjAw
MjCCASIwDQYJKoZIhvcNAQEBBQADggEPADCCAQoCggEBAMFDa2/4Qrj0c1wC8knr
jRFBWEajcXhLqdOZAwQJIkhFLueOB7sZHx/7J7xyKWgB8h4GGMxSzyst+Pg9rsIc
cDQXcCa2t1261MDRTC7jsYH2HZ8ufLSfEsgr6jPcr5L3NTXp8is3XLOtozSsuzPt
4G034+rrEurOlMUOXHr2+lM74ZSz4YfrOioABdLPZlz20ZsYcFOZsLd4X+LYwPcO
hMok6nkDMl8cDy7VyNTZqWPHdm25+Y/Nk/s/ikDtcdPGjLAEkJ2Lp2lbjTj5UYth
GaHv8wswru9+RclHzZ3WHIR8jlX/FXYOaiUNkDCyqI0JsvsD85I+j6xVOzAm9c0B
VZ8CAwEAAaOBxTCBwjAJBgNVHRMEAjAAMBEGCWCGSAGG+EIBAQQEAwIFoDAzBglg
hkgBhvhCAQ0EJhYkT3BlblNTTCBHZW5lcmF0ZWQgQ2xpZW50IENlcnRpZmljYXRl
MB0GA1UdDgQWBBQlzfdhJFbUDNbLmmn7OIQGT3o5yTAfBgNVHSMEGDAWgBS8ovmK
6QL3/EO3mh3oD9zHcyQtIDAOBgNVHQ8BAf8EBAMCBeAwHQYDVR0lBBYwFAYIKwYB
BQUHAwIGCCsGAQUFBwMEMA0GCSqGSIb3DQEBCwUAA4ICAQBjtsGkBfqmWtXQXnDT
M0lsq9CUHi6hUDgBSpQLHrxcr7uYHufbjw83GbTSbPJNS2Zc0w4sYooYCxPeMNyj
dfwJi6OooYtyDqPRk1di2J17R2pTVQknn8+2LYVPZGZ4XGz3wjr3yKNlAagn9FBi
sNbOHNSYJeJiozCAZSx3c76Mj1aLhM/huoA4wVBaBKD/ZAn3vmsGPftkUSJ4VK5L
5jto59n+B3F9NsFTa7SDQvyLwl0oI5mX5B2j/Ht5TWx4wqjplL/uCSGh7KsAm2z0
NA1s8GmLJrrVCwj7u4lLhodUm9kE8SRBU7Le1qXRm9pSzFB7aWYQT1C6MNoc5lR6
FGrPjjI1Np2E3FoOARqVmk8+qALeo24JKBXd3via9vc2jFd7rS805TzwdFzOAgSN
HamatW1R56XTUjb5pSOkG6Fj8sSu3fWr1A4OeIlEAZ7PZx6ubiHH1sybSSJq2N8k
UPPeTenfT29Ji73Wjuf2wv1fQnNHDn4Yt670ZWo/nBIBRCXjwsN2OSdR9uWMGv/D
SXixL2lytn8EhTxu/1d4qkRFOXhpZ6SokYKQ7jnZiTVO73OG/s2zsTQuh68cfL4k
OD7jV8wvYB7LYaIt7PYzJCYAHfY2KdgELeGdmTYPA3FV2+7iV9Y+mhebJcSTWtNL
+xk+vnAcFsPkrC1hA+88H9hGAQ==
-----END CERTIFICATE-----
