Certificate:
    Data:
        Version: 3 (0x2)
        Serial Number: 4098 (0x1002)
    Signature Algorithm: sha256WithRSAEncryption
        Issuer: C=CZ, ST=Jihomoravsky kraj, O=OpenStack Common Libraries, OU=Engineering, CN=Intermediate CA 002
        Validity
            Not Before: Aug 10 16:28:19 2018 GMT
            Not After : Aug 31 16:28:19 2018 GMT
        Subject: C=CZ, ST=Jihomoravsky kraj, L=Brno, O=OpenStack Common Libraries, OU=Engineering, CN=Node 002003
        Subject Public Key Info:
            Public Key Algorithm: rsaEncryption
                Public-Key: (2048 bit)
                Modulus:
                    00:d0:31:df:c4:73:52:84:13:a9:d8:bc:a1:ef:1a:
                    17:96:42:4b:a3:d1:82:71:90:4e:8e:9f:ea:ad:3d:
                    f6:8d:29:80:c6:50:70:45:4a:66:bc:a5:f6:19:ad:
                    ee:62:92:7b:f1:b4:cb:ff:88:69:d1:1d:08:ef:7f:
                    b7:d3:d2:4e:41:2e:a4:91:39:05:07:6d:35:58:c3:
                    97:68:98:22:52:95:72:11:bd:0f:8d:f5:a2:75:69:
                    71:2b:11:d7:e2:80:77:a2:d4:8b:0f:d2:e4:a1:08:
                    6f:91:a0:cf:0a:34:df:1f:93:d6:69:97:bd:93:6f:
                    3b:fc:00:0c:41:b4:57:be:51:a7:04:ee:af:d8:22:
                    3a:ad:f0:76:c6:02:87:be:7c:1e:ba:df:fa:61:39:
                    0c:f4:67:b3:d7:8e:06:eb:ec:dc:7b:e1:3b:2a:ca:
                    0e:78:01:cf:b8:52:1d:fd:8f:fb:e4:c3:42:5e:87:
                    cb:54:e1:13:b7:e9:f2:06:44:c6:ae:bc:ff:1a:e6:
                    40:44:e0:c3:fa:ad:41:02:f6:29:59:3b:ae:89:e0:
                    96:cc:dd:c8:07:8f:1c:96:9c:f4:5b:ce:2b:17:6d:
                    84:97:85:69:83:21:d7:f5:dc:0f:48:fa:fb:dd:ce:
                    ae:b2:9a:a5:b2:d2:0e:d0:43:ff:00:da:5d:8a:ab:
                    aa:6d
                Exponent: 65537 (0x10001)
        X509v3 extensions:
            X509v3 Basic Constraints: 
                CA:FALSE
            Netscape Cert Type: 
                SSL Client, S/MIME
            Netscape Comment: 
                OpenSSL Generated Client Certificate
            X509v3 Subject Key Identifier: 
                47:E3:4A:D2:71:B9:EF:7A:5E:92:9F:69:69:B6:58:D0:50:9C:40:F0
            X509v3 Authority Key Identifier: 
                keyid:B9:E4:F8:9F:A3:6E:3A:7D:13:BE:FB:0A:92:2C:80:8B:A0:99:5E:B9

            X509v3 Key Usage: critical
                Digital Signature, Non Repudiation, Key Encipherment
            X509v3 Extended Key Usage: 
                TLS Web Client Authentication, E-mail Protection
    Signature Algorithm: sha256WithRSAEncryption
         bd:11:f0:dc:fc:6f:3a:b3:4e:1d:6e:62:fb:d0:8e:a1:d9:fa:
         dc:ce:6e:00:e3:f7:b9:a1:24:2d:14:52:e7:05:ea:78:ed:dc:
         68:db:3d:db:59:cd:cd:3d:68:6c:f1:de:e5:11:1b:69:9e:4c:
         da:7e:33:a2:bc:36:4d:5f:f3:b5:4e:5c:a4:2b:61:0a:0d:7e:
         58:0c:5e:97:a5:47:ac:c4:a3:94:bb:58:aa:55:5d:b3:9d:fd:
         c0:e7:b5:ae:dd:99:dc:80:08:69:9e:13:77:be:1e:2d:cd:bc:
         7f:c8:29:d0:3a:ff:0a:e2:05:22:59:4d:02:6a:14:cd:94:cd:
         41:ec:9c:ce:86:97:ed:e1:0b:77:72:62:77:83:e5:14:98:68:
         68:0f:b7:3d:22:76:77:57:d4:47:d9:77:04:80:3b:99:85:90:
         a9:e0:91:d0:2e:d8:d6:84:07:41:9f:d3:ac:1f:0a:f2:da:bd:
         bd:7a:63:78:bc:0f:5a:f0:00:0b:c3:3f:03:f4:5b:14:0f:c6:
         b7:e7:47:a8:86:fe:78:d3:27:ca:8b:4e:22:51:3c:57:4f:eb:
         58:d8:db:66:bd:32:61:b8:1f:e8:16:cd:be:c7:8a:cb:f0:d4:
         48:29:6a:b3:17:a4:5a:38:c5:73:0b:90:72:4c:b6:d4:db:19:
         f1:c9:53:6c
-----BEGIN CERTIFICATE-----
MIIETzCCAzegAwIBAgICEAIwDQYJKoZIhvcNAQELBQAwgYIxCzAJBgNVBAYTAkNa
MRowGAYDVQQIDBFKaWhvbW9yYXZza3kga3JhajEjMCEGA1UECgwaT3BlblN0YWNr
IENvbW1vbiBMaWJyYXJpZXMxFDASBgNVBAsMC0VuZ2luZWVyaW5nMRwwGgYDVQQD
DBNJbnRlcm1lZGlhdGUgQ0EgMDAyMB4XDTE4MDgxMDE2MjgxOVoXDTE4MDgzMTE2
MjgxOVowgYkxCzAJBgNVBAYTAkNaMRowGAYDVQQIDBFKaWhvbW9yYXZza3kga3Jh
ajENMAsGA1UEBwwEQnJubzEjMCEGA1UECgwaT3BlblN0YWNrIENvbW1vbiBMaWJy
YXJpZXMxFDASBgNVBAsMC0VuZ2luZWVyaW5nMRQwEgYDVQQDDAtOb2RlIDAwMjAw
MzCCASIwDQYJKoZIhvcNAQEBBQADggEPADCCAQoCggEBANAx38RzUoQTqdi8oe8a
F5ZCS6PRgnGQTo6f6q099o0pgMZQcEVKZryl9hmt7mKSe/G0y/+IadEdCO9/t9PS
TkEupJE5BQdtNVjDl2iYIlKVchG9D431onVpcSsR1+KAd6LUiw/S5KEIb5Ggzwo0
3x+T1mmXvZNvO/wADEG0V75RpwTur9giOq3wdsYCh758Hrrf+mE5DPRns9eOBuvs
3HvhOyrKDngBz7hSHf2P++TDQl6Hy1ThE7fp8gZExq68/xrmQETgw/qtQQL2KVk7
ronglszdyAePHJac9FvOKxdthJeFaYMh1/XcD0j6+93OrrKapbLSDtBD/wDaXYqr
qm0CAwEAAaOBxTCBwjAJBgNVHRMEAjAAMBEGCWCGSAGG+EIBAQQEAwIFoDAzBglg
hkgBhvhCAQ0EJhYkT3BlblNTTCBHZW5lcmF0ZWQgQ2xpZW50IENlcnRpZmljYXRl
MB0GA1UdDgQWBBRH40rScbnvel6Sn2lptljQUJxA8DAfBgNVHSMEGDAWgBS55Pif
o246fRO++wqSLICLoJleuTAOBgNVHQ8BAf8EBAMCBeAwHQYDVR0lBBYwFAYIKwYB
BQUHAwIGCCsGAQUFBwMEMA0GCSqGSIb3DQEBCwUAA4IBAQC9EfDc/G86s04dbmL7
0I6h2frczm4A4/e5oSQtFFLnBep47dxo2z3bWc3NPWhs8d7lERtpnkzafjOivDZN
X/O1TlykK2EKDX5YDF6XpUesxKOUu1iqVV2znf3A57Wu3ZncgAhpnhN3vh4tzbx/
yCnQOv8K4gUiWU0CahTNlM1B7JzOhpft4Qt3cmJ3g+UUmGhoD7c9InZ3V9RH2XcE
gDuZhZCp4JHQLtjWhAdBn9OsHwry2r29emN4vA9a8AALwz8D9FsUD8a350eohv54
0yfKi04iUTxXT+tY2NtmvTJhuB/oFs2+x4rL8NRIKWqzF6RaOMVzC5ByTLbU2xnx
yVNs
-----END CERTIFICATE-----
