Certificate:
    Data:
        Version: 3 (0x2)
        Serial Number: 4098 (0x1002)
    Signature Algorithm: sha256WithRSAEncryption
        Issuer: C=CZ, ST=Jihomoravsky kraj, O=OpenStack Common Libraries, OU=Engineering, CN=Intermediate CA 002
        Validity
            Not Before: Aug 14 16:16:14 2018 GMT
            Not After : Sep  4 16:16:14 2018 GMT
        Subject: C=CZ, ST=Jihomoravsky kraj, L=Brno, O=OpenStack Common Libraries, OU=Engineering, CN=Node 002003
        Subject Public Key Info:
            Public Key Algorithm: rsaEncryption
                Public-Key: (2048 bit)
                Modulus:
                    00:c8:ef:b0:73:7e:c7:ba:73:9a:e7:83:f1:1b:6d:
                    59:15:24:02:dc:8d:5a:b8:85:ed:22:97:d4:61:12:
                    b2:5d:60:95:08:58:77:58:b5:96:a3:40:d7:8b:0c:
                    48:36:05:d3:4b:49:5b:37:32:6c:c1:cf:6f:16:f5:
                    c7:0b:30:56:87:94:d9:78:a7:bc:4c:60:5e:19:14:
                    88:b3:b6:2b:04:9b:96:e0:a9:ed:be:27:0e:be:36:
                    c8:e2:07:9d:16:4f:ef:ca:09:88:67:d5:35:83:f7:
                    b6:98:c3:36:f9:b9:94:63:f6:7f:cb:81:24:05:48:
                    f9:d0:06:cd:58:b4:92:98:a3:76:d6:04:17:b2:79:
                    6a:e2:e0:58:2d:d5:9e:30:a3:c0:8a:46:24:ed:6a:
                    1e:21:26:9a:8e:5b:23:29:5d:f8:f4:bc:cd:de:ac:
                    5e:7d:65:f8:04:03:3a:32:8f:5b:ea:73:ee:b2:b8:
                    06:99:10:e3:52:d4:f4:35:1b:5c:34:bd:22:02:ca:
                    b3:2f:eb:6f:49:9b:c8:84:9a:f1:cf:14:5a:21:59:
                    36:5f:04:11:9c:60:52:b3:e6:89:56:f0:de:5d:5c:
                    3c:58:62:14:23:78:f6:01:f7:c8:c7:54:47:a2:a1:
                    7f:f4:a8:fb:61:26:49:f3:72:a7:b7:8f:1a:5c:4f:
                    28:13
                Exponent: 65537 (0x10001)
        X509v3 extensions:
            X509v3 Basic Constraints: 
                CA:FALSE
            Netscape Cert Type: 
                SSL Client, S/MIME
            Netscape Comment: 
                OpenSSL Generated Client Certificate
            X509v3 Subject Key Identifier: 
                8D:51:8D:94:1A:D4:F9:03:39:B7:60:D2:73:BD:E3:42:56:68:84:12
            X509v3 Authority Key Identifier: 
                keyid:BC:A2:F9:8A:E9:02:F7:FC:43:B7:9A:1D:E8:0F:DC:C7:73:24:2D:20

            X509v3 Key Usage: critical
                Digital Signature, Non Repudiation, Key Encipherment
            X509v3 Extended Key Usage: 
                TLS Web Client Authentication, E-mail Protection
    Signature Algorithm: sha256WithRSAEncryption
         af:f5:a4:0a:fd:63:98:81:ad:e6:4c:3a:41:13:b4:cf:70:f2:
         ca:f4:09:ac:6c:0e:de:d9:f3:ea:6d:b1:71:ff:d2:fa:40:19:
         4a:b0:9e:b2:57:74:b3:8e:86:39:53:fe:3a:c2:d3:00:7a:5e:
         8f:ce:14:be:92:04:0a:22:a9:40:e0:fe:aa:92:4d:77:29:79:
         cc:ca:04:1f:a0:be:6a:de:34:c0:7c:b9:f9:cf:80:33:2c:da:
         1d:a1:b7:ca:67:ec:1b:ed:2c:8d:c0:da:d9:1b:0a:ce:e1:d3:
         0a:29:08:65:65:3b:e4:43:30:bc:9a:fb:50:b9:9e:7c:0e:6c:
         13:10:49:9a:a0:f1:91:df:3c:af:df:6e:51:11:b9:63:8c:36:
         89:7e:4a:cd:4b:22:0b:64:5c:46:8a:01:16:f7:f5:23:28:0d:
         63:fe:fc:b7:53:9a:09:b5:d4:38:ee:65:12:d4:01:dc:00:55:
         db:e1:d7:5c:0c:07:d8:f8:5f:52:f7:00:d3:0c:aa:9f:71:c5:
         3e:32:da:3e:77:7a:3f:36:4f:b9:e5:06:b3:ed:be:be:ff:ff:
         ab:bc:0e:e6:a5:9b:48:25:84:36:aa:fc:37:62:2b:fc:7f:fa:
         3c:f0:ab:d1:6f:8d:59:7d:28:53:bb:00:d7:7d:dd:75:60:f9:
         8b:ef:32:93:4c:ab:58:04:be:33:1b:ec:9f:3b:8f:20:0b:90:
         e8:ef:d4:5d:cf:e7:a6:d3:8b:11:86:06:fc:f5:e6:b7:08:2a:
         0e:34:0e:ef:fe:43:30:13:4d:4e:64:1f:cf:b8:af:2f:57:36:
         0f:f7:fe:a2:67:e4:d1:ac:93:49:43:27:8f:63:ff:b1:38:88:
         b9:7f:36:6a:f9:51:06:a1:09:de:4f:dc:93:3d:33:3e:f9:c9:
         13:e2:21:a4:b5:f5:40:1d:de:1f:28:90:be:99:08:dd:a6:15:
         97:fb:6e:14:9c:2e:ff:99:a5:a6:04:e8:f0:56:d9:b2:1c:17:
         7c:7e:3a:76:f3:e9:5b:b8:cf:4e:9c:16:6f:48:1d:ca:21:0c:
         5e:54:54:7d:68:8b:e3:6c:07:2d:9c:b7:51:4a:7d:5a:70:2d:
         2c:68:92:3e:c6:4c:32:9d:a4:58:5e:fa:ac:67:f6:7b:78:7e:
         bc:2f:14:42:0d:17:82:a4:3d:52:0b:82:4f:d2:d9:3b:01:07:
         f6:d5:37:7c:32:af:77:4b:c5:c3:f7:e6:77:df:6c:4b:9a:64:
         bf:12:54:24:2e:4f:1e:34:c9:5a:60:ea:1a:ff:9c:48:2b:f0:
         c7:d0:fa:19:3b:a0:a3:60:21:e9:97:92:fb:63:a5:a6:d3:b2:
         42:f1:98:d5:a0:05:eb:b8
-----BEGIN CERTIFICATE-----
MIIFTzCCAzegAwIBAgICEAIwDQYJKoZIhvcNAQELBQAwgYIxCzAJBgNVBAYTAkNa
MRowGAYDVQQIDBFKaWhvbW9yYXZza3kga3JhajEjMCEGA1UECgwaT3BlblN0YWNr
IENvbW1vbiBMaWJyYXJpZXMxFDASBgNVBAsMC0VuZ2luZWVyaW5nMRwwGgYDVQQD
DBNJbnRlcm1lZGlhdGUgQ0EgMDAyMB4XDTE4MDgxNDE2MTYxNFoXDTE4MDkwNDE2
MTYxNFowgYkxCzAJBgNVBAYTAkNaMRowGAYDVQQIDBFKaWhvbW9yYXZza3kga3Jh
ajENMAsGA1UEBwwEQnJubzEjMCEGA1UECgwaT3BlblN0YWNrIENvbW1vbiBMaWJy
YXJpZXMxFDASBgNVBAsMC0VuZ2luZWVyaW5nMRQwEgYDVQQDDAtOb2RlIDAwMjAw
MzCCASIwDQYJKoZIhvcNAQEBBQADggEPADCCAQoCggEBAMjvsHN+x7pzmueD8Rtt
WRUkAtyNWriF7SKX1GESsl1glQhYd1i1lqNA14sMSDYF00tJWzcybMHPbxb1xwsw
VoeU2XinvExgXhkUiLO2KwSbluCp7b4nDr42yOIHnRZP78oJiGfVNYP3tpjDNvm5
lGP2f8uBJAVI+dAGzVi0kpijdtYEF7J5auLgWC3VnjCjwIpGJO1qHiEmmo5bIyld
+PS8zd6sXn1l+AQDOjKPW+pz7rK4BpkQ41LU9DUbXDS9IgLKsy/rb0mbyISa8c8U
WiFZNl8EEZxgUrPmiVbw3l1cPFhiFCN49gH3yMdUR6Khf/So+2EmSfNyp7ePGlxP
KBMCAwEAAaOBxTCBwjAJBgNVHRMEAjAAMBEGCWCGSAGG+EIBAQQEAwIFoDAzBglg
hkgBhvhCAQ0EJhYkT3BlblNTTCBHZW5lcmF0ZWQgQ2xpZW50IENlcnRpZmljYXRl
MB0GA1UdDgQWBBSNUY2UGtT5Azm3YNJzveNCVmiEEjAfBgNVHSMEGDAWgBS8ovmK
6QL3/EO3mh3oD9zHcyQtIDAOBgNVHQ8BAf8EBAMCBeAwHQYDVR0lBBYwFAYIKwYB
BQUHAwIGCCsGAQUFBwMEMA0GCSqGSIb3DQEBCwUAA4ICAQCv9aQK/WOYga3mTDpB
E7TPcPLK9AmsbA7e2fPqbbFx/9L6QBlKsJ6yV3SzjoY5U/46wtMAel6PzhS+kgQK
IqlA4P6qkk13KXnMygQfoL5q3jTAfLn5z4AzLNodobfKZ+wb7SyNwNrZGwrO4dMK
KQhlZTvkQzC8mvtQuZ58DmwTEEmaoPGR3zyv325REbljjDaJfkrNSyILZFxGigEW
9/UjKA1j/vy3U5oJtdQ47mUS1AHcAFXb4ddcDAfY+F9S9wDTDKqfccU+Mto+d3o/
Nk+55Qaz7b6+//+rvA7mpZtIJYQ2qvw3Yiv8f/o88KvRb41ZfShTuwDXfd11YPmL
7zKTTKtYBL4zG+yfO48gC5Do79Rdz+em04sRhgb89ea3CCoONA7v/kMwE01OZB/P
uK8vVzYP9/6iZ+TRrJNJQyePY/+xOIi5fzZq+VEGoQneT9yTPTM++ckT4iGktfVA
Hd4fKJC+mQjdphWX+24UnC7/maWmBOjwVtmyHBd8fjp28+lbuM9OnBZvSB3KIQxe
VFR9aIvjbActnLdRSn1acC0saJI+xkwynaRYXvqsZ/Z7eH68LxRCDReCpD1SC4JP
0tk7AQf21Td8Mq93S8XD9+Z332xLmmS/ElQkLk8eNMlaYOoa/5xIK/DH0PoZO6Cj
YCHpl5L7Y6Wm07JC8ZjVoAXruA==
-----END CERTIFICATE-----
