Certificate:
    Data:
        Version: 3 (0x2)
        Serial Number: 4099 (0x1003)
    Signature Algorithm: sha256WithRSAEncryption
        Issuer: C=CZ, ST=Jihomoravsky kraj, O=OpenStack Common Libraries, OU=Engineering, CN=Intermediate CA 002
        Validity
            Not Before: Aug 14 16:16:14 2018 GMT
            Not After : Sep  4 16:16:14 2018 GMT
        Subject: C=CZ, ST=Jihomoravsky kraj, L=Brno, O=OpenStack Common Libraries, OU=Engineering, CN=Node 002004
        Subject Public Key Info:
            Public Key Algorithm: rsaEncryption
                Public-Key: (2048 bit)
                Modulus:
                    00:f3:bf:8a:78:f8:73:75:44:dd:67:03:82:0f:fd:
                    81:f8:60:39:43:98:e4:c0:b9:aa:e5:81:c2:73:85:
                    0d:82:f2:b7:fd:dd:04:00:f4:b5:19:ac:dc:f5:6b:
                    3e:cb:f2:64:5f:ad:72:45:98:db:c7:b0:03:e7:23:
                    1d:13:a4:6b:32:d9:75:3e:07:58:f2:81:96:26:86:
                    00:fd:0f:2f:07:1a:c2:3c:d5:c0:47:4d:e2:36:4b:
                    68:25:8f:1e:a9:bb:1e:8c:4a:b6:28:fa:f8:8e:36:
                    ff:23:30:3d:1e:2f:56:3c:e7:33:ca:89:ca:54:ec:
                    5e:fb:a2:27:09:5b:8e:fb:bb:07:55:c6:17:ae:57:
                    bd:6c:7a:9a:c5:c1:62:69:ec:a9:4f:d1:d9:fa:ad:
                    18:a4:1b:c2:ac:5d:71:5f:7c:84:9b:95:2e:e3:62:
                    e5:52:4d:e6:d8:f3:bb:d8:d0:60:fc:0e:71:9b:d5:
                    44:30:cc:29:7c:91:b5:de:9f:28:4f:9a:88:a3:bf:
                    00:c9:ec:86:db:43:60:53:c9:65:31:4d:be:c4:7c:
                    23:11:6b:bc:55:80:ea:17:9e:4e:aa:a8:77:60:b1:
                    28:2a:6d:e5:0b:4e:11:bb:25:af:78:6d:8f:1f:3f:
                    20:00:af:51:e2:3c:c9:7c:95:50:45:d4:bc:e9:81:
                    46:35
                Exponent: 65537 (0x10001)
        X509v3 extensions:
            X509v3 Basic Constraints: 
                CA:FALSE
            Netscape Cert Type: 
                SSL Client, S/MIME
            Netscape Comment: 
                OpenSSL Generated Client Certificate
            X509v3 Subject Key Identifier: 
                ED:A5:47:FA:97:4B:E3:3E:08:77:0D:D1:BF:CF:43:AF:D6:F9:D2:6C
            X509v3 Authority Key Identifier: 
                keyid:BC:A2:F9:8A:E9:02:F7:FC:43:B7:9A:1D:E8:0F:DC:C7:73:24:2D:20

            X509v3 Key Usage: critical
                Digital Signature, Non Repudiation, Key Encipherment
            X509v3 Extended Key Usage: 
                TLS Web Client Authentication, E-mail Protection
    Signature Algorithm: sha256WithRSAEncryption
         67:d1:38:da:36:19:96:dc:d7:bb:c2:30:df:28:3f:79:15:de:
         dd:25:d4:ac:ad:78:2f:43:c3:37:d4:d1:a3:64:83:0b:84:02:
         80:b6:b4:3f:ba:a7:53:32:24:d4:92:e3:75:28:bd:e5:c2:17:
         b9:89:a9:92:50:15:b8:75:87:e4:d4:42:d6:34:78:3f:50:72:
         22:36:0d:51:dd:98:1e:ee:b0:67:1b:2e:46:38:e0:ae:34:20:
         41:32:1d:2a:8d:8e:1a:03:fe:21:41:71:6c:91:41:5a:24:08:
         d9:cf:7c:82:aa:ba:d3:2b:4d:4d:26:6c:47:7c:17:2a:ad:11:
         4f:01:98:76:6a:3e:58:e2:69:25:33:ce:67:05:a8:07:56:1d:
         80:5c:6b:34:9a:6d:1f:b9:7b:02:25:78:60:87:2f:95:70:a5:
         78:a2:71:76:e6:40:cd:ad:cc:4a:af:b6:a5:03:61:f7:36:fc:
         fa:56:04:ee:7c:60:68:41:7e:c0:25:da:d2:22:09:38:26:09:
         cf:b8:c0:02:d2:dc:bd:a7:15:bf:f3:16:4c:3f:25:cb:2c:1f:
         8d:6f:5d:62:cc:ba:a9:c3:01:8c:90:e2:82:1b:df:e1:2e:75:
         8c:b9:82:96:e3:dc:a9:73:eb:a2:21:0a:3b:b3:c3:66:f6:66:
         16:33:d5:e6:c7:40:c0:26:11:e1:fc:e2:e5:77:23:58:b7:96:
         31:0d:af:13:ed:28:bd:a1:e1:05:6a:94:3c:19:db:6a:a4:1f:
         1b:4b:a6:82:80:23:a3:56:d7:80:94:30:02:87:f6:e9:08:35:
         03:db:f2:43:1f:56:eb:85:ca:9d:05:83:0b:c4:0c:55:90:9a:
         9e:42:10:c9:26:8f:87:73:fc:b0:f0:bd:6d:04:04:c2:fe:86:
         ef:12:0e:72:fe:b0:67:b2:ad:2c:46:cf:fc:86:ed:6f:d5:d4:
         85:45:d1:43:00:ca:b4:1d:0c:b9:59:81:78:b5:f9:d5:51:e2:
         1e:ab:e7:52:73:fe:db:29:b7:e6:a6:58:b2:8f:1b:20:38:dd:
         f9:4a:71:9a:d1:45:76:d8:b9:58:2a:b0:18:13:2a:3f:c3:61:
         9f:ed:84:55:f0:53:8f:1c:40:59:ef:0a:d5:34:5e:33:64:4d:
         dd:73:c9:f4:16:0c:ee:1a:e0:eb:f7:1b:0f:79:18:e0:18:33:
         92:f0:71:cc:7d:8b:86:14:38:d4:7b:91:6b:46:1d:5c:1d:08:
         7e:b2:a7:ba:6d:27:e4:99:80:c0:92:ac:f9:1c:46:f1:7a:be:
         f5:7f:d7:ce:d4:f6:b5:2b:d5:2f:6b:aa:ca:c6:5f:5f:68:40:
         b4:97:82:79:6c:49:ba:86
-----BEGIN CERTIFICATE-----
MIIFTzCCAzegAwIBAgICEAMwDQYJKoZIhvcNAQELBQAwgYIxCzAJBgNVBAYTAkNa
MRowGAYDVQQIDBFKaWhvbW9yYXZza3kga3JhajEjMCEGA1UECgwaT3BlblN0YWNr
IENvbW1vbiBMaWJyYXJpZXMxFDASBgNVBAsMC0VuZ2luZWVyaW5nMRwwGgYDVQQD
DBNJbnRlcm1lZGlhdGUgQ0EgMDAyMB4XDTE4MDgxNDE2MTYxNFoXDTE4MDkwNDE2
MTYxNFowgYkxCzAJBgNVBAYTAkNaMRowGAYDVQQIDBFKaWhvbW9yYXZza3kga3Jh
ajENMAsGA1UEBwwEQnJubzEjMCEGA1UECgwaT3BlblN0YWNrIENvbW1vbiBMaWJy
YXJpZXMxFDASBgNVBAsMC0VuZ2luZWVyaW5nMRQwEgYDVQQDDAtOb2RlIDAwMjAw
NDCCASIwDQYJKoZIhvcNAQEBBQADggEPADCCAQoCggEBAPO/inj4c3VE3WcDgg/9
gfhgOUOY5MC5quWBwnOFDYLyt/3dBAD0tRms3PVrPsvyZF+tckWY28ewA+cjHROk
azLZdT4HWPKBliaGAP0PLwcawjzVwEdN4jZLaCWPHqm7HoxKtij6+I42/yMwPR4v
VjznM8qJylTsXvuiJwlbjvu7B1XGF65XvWx6msXBYmnsqU/R2fqtGKQbwqxdcV98
hJuVLuNi5VJN5tjzu9jQYPwOcZvVRDDMKXyRtd6fKE+aiKO/AMnshttDYFPJZTFN
vsR8IxFrvFWA6heeTqqod2CxKCpt5QtOEbslr3htjx8/IACvUeI8yXyVUEXUvOmB
RjUCAwEAAaOBxTCBwjAJBgNVHRMEAjAAMBEGCWCGSAGG+EIBAQQEAwIFoDAzBglg
hkgBhvhCAQ0EJhYkT3BlblNTTCBHZW5lcmF0ZWQgQ2xpZW50IENlcnRpZmljYXRl
MB0GA1UdDgQWBBTtpUf6l0vjPgh3DdG/z0Ov1vnSbDAfBgNVHSMEGDAWgBS8ovmK
6QL3/EO3mh3oD9zHcyQtIDAOBgNVHQ8BAf8EBAMCBeAwHQYDVR0lBBYwFAYIKwYB
BQUHAwIGCCsGAQUFBwMEMA0GCSqGSIb3DQEBCwUAA4ICAQBn0TjaNhmW3Ne7wjDf
KD95Fd7dJdSsrXgvQ8M31NGjZIMLhAKAtrQ/uqdTMiTUkuN1KL3lwhe5iamSUBW4
dYfk1ELWNHg/UHIiNg1R3Zge7rBnGy5GOOCuNCBBMh0qjY4aA/4hQXFskUFaJAjZ
z3yCqrrTK01NJmxHfBcqrRFPAZh2aj5Y4mklM85nBagHVh2AXGs0mm0fuXsCJXhg
hy+VcKV4onF25kDNrcxKr7alA2H3Nvz6VgTufGBoQX7AJdrSIgk4JgnPuMAC0ty9
pxW/8xZMPyXLLB+Nb11izLqpwwGMkOKCG9/hLnWMuYKW49ypc+uiIQo7s8Nm9mYW
M9Xmx0DAJhHh/OLldyNYt5YxDa8T7Si9oeEFapQ8GdtqpB8bS6aCgCOjVteAlDAC
h/bpCDUD2/JDH1brhcqdBYMLxAxVkJqeQhDJJo+Hc/yw8L1tBATC/obvEg5y/rBn
sq0sRs/8hu1v1dSFRdFDAMq0HQy5WYF4tfnVUeIeq+dSc/7bKbfmpliyjxsgON35
SnGa0UV22LlYKrAYEyo/w2Gf7YRV8FOPHEBZ7wrVNF4zZE3dc8n0FgzuGuDr9xsP
eRjgGDOS8HHMfYuGFDjUe5FrRh1cHQh+sqe6bSfkmYDAkqz5HEbxer71f9fO1Pa1
K9Uva6rKxl9faEC0l4J5bEm6hg==
-----END CERTIFICATE-----
Certificate:
    Data:
        Version: 3 (0x2)
        Serial Number: 4098 (0x1002)
    Signature Algorithm: sha256WithRSAEncryption
        Issuer: C=CZ, ST=Jihomoravsky kraj, L=Brno, O=OpenStack Common Libraries, OU=Engineering, CN=Root CA
        Validity
            Not Before: Aug 14 16:16:11 2018 GMT
            Not After : Aug 11 16:16:11 2028 GMT
        Subject: C=CZ, ST=Jihomoravsky kraj, O=OpenStack Common Libraries, OU=Engineering, CN=Intermediate CA 002
        Subject Public Key Info:
            Public Key Algorithm: rsaEncryption
                Public-Key: (4096 bit)
                Modulus:
                    00:c2:a1:f1:49:ce:c7:4e:08:ce:d1:4f:d1:50:1c:
                    f6:7b:0c:a3:ca:d1:c4:6a:d3:8d:04:84:51:f5:82:
                    26:8e:10:de:f8:f6:a2:22:02:23:fa:b0:61:2e:62:
                    7b:b8:aa:84:66:19:d0:dc:d3:42:50:33:17:5f:d8:
                    8d:c1:72:e6:84:26:82:39:67:2d:c1:21:12:e7:f4:
                    ac:5c:90:c6:a7:ff:68:1a:d3:f0:66:8c:2f:2b:df:
                    33:3f:ea:d5:59:9b:ec:0c:29:dc:d8:97:62:42:6b:
                    ae:48:e8:72:7b:5d:a9:80:89:50:5a:f9:19:e1:b2:
                    45:1e:96:cf:4e:38:1f:ac:cb:53:d2:c4:e6:80:ca:
                    a6:2a:52:73:7e:f8:f2:66:ec:b8:8d:29:46:9e:aa:
                    81:91:7c:ff:71:47:af:aa:f9:c3:13:65:57:61:67:
                    ee:31:42:01:3d:17:a1:a3:37:02:35:0e:73:1f:7b:
                    7f:1e:85:c4:37:9d:1f:51:b6:94:95:27:cb:9d:5d:
                    1e:5c:b8:4b:83:6c:ab:84:ec:6c:0c:ae:a7:23:9e:
                    c3:4f:41:1e:5d:2e:ed:7f:37:8f:42:fd:e3:fe:6d:
                    5d:77:cd:c9:b3:82:ce:4c:e5:47:3d:29:22:ba:84:
                    d3:af:f6:34:b8:f3:68:84:1b:e2:51:3e:bf:17:25:
                    72:50:8a:42:36:70:72:0e:15:2e:c8:9b:05:14:3b:
                    48:43:53:0f:c1:eb:59:5d:1a:f7:3e:53:b2:f2:21:
                    c7:e8:52:62:4b:53:fe:b9:f8:d0:8f:6a:2e:02:b5:
                    33:27:ff:09:ac:7b:7f:31:6c:ce:ba:c2:b5:d6:26:
                    ad:df:dd:8d:9f:29:af:fd:39:3a:62:5f:5d:6f:50:
                    3a:35:ee:01:16:76:f6:9b:c6:0a:ef:3a:e2:50:ba:
                    81:13:fd:9e:c8:41:f2:c7:60:54:d1:d9:1e:e6:b7:
                    01:a3:4f:98:a4:a7:82:88:65:80:1e:ae:d5:26:2f:
                    88:89:a9:00:8e:80:86:92:d5:2a:07:54:28:04:4e:
                    e5:fc:c3:6a:43:95:71:78:a2:b7:1b:c6:db:b6:38:
                    33:c4:e2:af:49:1d:a7:e7:89:3c:cc:6f:7a:1d:8f:
                    3a:b4:47:12:f5:f4:6e:b8:f7:94:cf:7d:90:7a:01:
                    3e:b8:83:95:46:3d:20:25:17:57:6a:91:b1:35:a2:
                    39:94:49:19:9f:a2:ff:6b:0d:3f:f9:5e:fe:a9:01:
                    fd:88:9d:28:28:75:4c:2d:5f:73:bc:36:cc:af:df:
                    b8:f5:25:a4:e2:95:89:56:7b:f2:c6:69:fd:67:40:
                    f2:07:c7:d6:c8:c0:a5:3c:e8:57:49:be:27:39:67:
                    bb:1d:95
                Exponent: 65537 (0x10001)
        X509v3 extensions:
            X509v3 Subject Key Identifier: 
                BC:A2:F9:8A:E9:02:F7:FC:43:B7:9A:1D:E8:0F:DC:C7:73:24:2D:20
            X509v3 Authority Key Identifier: 
                keyid:93:83:48:92:23:B6:C3:DA:A7:15:85:08:41:75:30:67:97:A5:D4:9C

            X509v3 Basic Constraints: critical
                CA:TRUE, pathlen:0
            X509v3 Key Usage: critical
                Digital Signature, Certificate Sign, CRL Sign
    Signature Algorithm: sha256WithRSAEncryption
         39:42:77:89:e6:9c:97:af:ce:a4:4f:d9:2a:f6:ed:db:b4:7d:
         62:de:51:3c:9f:7b:28:f0:87:fe:d1:e8:ff:c0:02:09:dd:78:
         ed:e7:f8:5d:29:92:26:a3:92:7c:82:f3:dd:cf:10:b9:f2:d6:
         89:dd:90:bc:9c:ef:a0:e1:7c:62:9b:f0:21:79:77:c8:ce:09:
         2a:57:c5:4b:96:fc:73:5a:ec:f2:64:f9:6d:96:2b:4b:ad:44:
         04:cd:5c:6b:04:06:a8:c7:32:80:b5:5b:50:0c:6c:07:c3:70:
         a7:5b:5f:67:23:8b:5a:c5:54:52:63:67:19:19:f4:2b:eb:42:
         c1:53:03:96:a6:2a:86:01:0c:96:9d:ad:c2:04:f2:ad:6c:dc:
         b9:47:06:12:6b:13:8d:cd:5f:1e:99:95:25:8b:c1:bb:1b:73:
         82:4a:17:82:4c:2c:26:74:a5:47:a3:e0:c6:fc:b8:18:4a:44:
         c3:d9:ac:b1:7a:0c:92:6f:10:dd:5a:19:46:5a:d1:48:77:56:
         ee:5c:20:1a:29:fe:fb:6f:2f:c1:e6:4b:f1:4b:aa:74:01:fe:
         75:b0:7a:06:30:ab:7d:ee:9c:9e:ee:a3:a5:73:a7:f3:2b:72:
         18:75:48:29:ae:b5:c0:f3:7d:c1:87:f7:49:96:b2:c7:dc:27:
         56:00:c6:e0:d1:84:52:ff:89:d7:09:19:77:af:5a:0f:39:7c:
         49:04:02:35:b8:1d:e6:67:74:27:d6:84:f4:74:65:81:0f:bb:
         79:1b:b6:75:87:ee:c5:0a:5a:33:81:3b:53:8a:7d:f8:63:0a:
         c7:4e:ca:a0:34:22:23:f6:eb:52:c4:24:fb:96:29:51:ab:61:
         8b:3c:b3:5b:75:2a:d5:0a:4a:6b:68:de:81:f7:a2:d5:07:a1:
         19:24:3a:d4:90:80:86:6f:eb:02:01:32:70:4a:a0:56:eb:1f:
         bc:c4:ab:cb:00:22:85:34:0a:f6:d2:bd:d5:76:10:6c:f9:73:
         ec:15:cf:81:46:50:32:0e:03:fe:11:b7:21:dc:e0:c2:65:b7:
         f0:52:60:98:7a:76:24:b0:20:af:64:3e:b1:66:53:9f:e8:25:
         6c:c3:28:8c:ac:44:88:d2:1d:17:85:94:9c:b8:c2:80:6a:24:
         a8:ca:2b:cb:55:ad:02:3b:9d:be:f5:66:d9:85:bb:ef:75:f2:
         8d:f1:93:3a:51:b6:50:0a:81:07:77:a9:e3:c0:f6:ca:ca:77:
         a9:b9:de:56:bd:73:d9:78:d6:73:e0:ff:7a:47:74:2e:5c:17:
         60:60:68:bd:36:c7:d6:8a:b5:8f:58:6e:31:19:86:96:a0:1d:
         56:83:6a:43:28:56:9f:5a
-----BEGIN CERTIFICATE-----
MIIF6zCCA9OgAwIBAgICEAIwDQYJKoZIhvcNAQELBQAwgYUxCzAJBgNVBAYTAkNa
MRowGAYDVQQIDBFKaWhvbW9yYXZza3kga3JhajENMAsGA1UEBwwEQnJubzEjMCEG
A1UECgwaT3BlblN0YWNrIENvbW1vbiBMaWJyYXJpZXMxFDASBgNVBAsMC0VuZ2lu
ZWVyaW5nMRAwDgYDVQQDDAdSb290IENBMB4XDTE4MDgxNDE2MTYxMVoXDTI4MDgx
MTE2MTYxMVowgYIxCzAJBgNVBAYTAkNaMRowGAYDVQQIDBFKaWhvbW9yYXZza3kg
a3JhajEjMCEGA1UECgwaT3BlblN0YWNrIENvbW1vbiBMaWJyYXJpZXMxFDASBgNV
BAsMC0VuZ2luZWVyaW5nMRwwGgYDVQQDDBNJbnRlcm1lZGlhdGUgQ0EgMDAyMIIC
IjANBgkqhkiG9w0BAQEFAAOCAg8AMIICCgKCAgEAwqHxSc7HTgjO0U/RUBz2ewyj
ytHEatONBIRR9YImjhDe+PaiIgIj+rBhLmJ7uKqEZhnQ3NNCUDMXX9iNwXLmhCaC
OWctwSES5/SsXJDGp/9oGtPwZowvK98zP+rVWZvsDCnc2JdiQmuuSOhye12pgIlQ
WvkZ4bJFHpbPTjgfrMtT0sTmgMqmKlJzfvjyZuy4jSlGnqqBkXz/cUevqvnDE2VX
YWfuMUIBPRehozcCNQ5zH3t/HoXEN50fUbaUlSfLnV0eXLhLg2yrhOxsDK6nI57D
T0EeXS7tfzePQv3j/m1dd83Js4LOTOVHPSkiuoTTr/Y0uPNohBviUT6/FyVyUIpC
NnByDhUuyJsFFDtIQ1MPwetZXRr3PlOy8iHH6FJiS1P+ufjQj2ouArUzJ/8JrHt/
MWzOusK11iat392Nnymv/Tk6Yl9db1A6Ne4BFnb2m8YK7zriULqBE/2eyEHyx2BU
0dke5rcBo0+YpKeCiGWAHq7VJi+IiakAjoCGktUqB1QoBE7l/MNqQ5VxeKK3G8bb
tjgzxOKvSR2n54k8zG96HY86tEcS9fRuuPeUz32QegE+uIOVRj0gJRdXapGxNaI5
lEkZn6L/aw0/+V7+qQH9iJ0oKHVMLV9zvDbMr9+49SWk4pWJVnvyxmn9Z0DyB8fW
yMClPOhXSb4nOWe7HZUCAwEAAaNmMGQwHQYDVR0OBBYEFLyi+YrpAvf8Q7eaHegP
3MdzJC0gMB8GA1UdIwQYMBaAFJODSJIjtsPapxWFCEF1MGeXpdScMBIGA1UdEwEB
/wQIMAYBAf8CAQAwDgYDVR0PAQH/BAQDAgGGMA0GCSqGSIb3DQEBCwUAA4ICAQA5
QneJ5pyXr86kT9kq9u3btH1i3lE8n3so8If+0ej/wAIJ3Xjt5/hdKZImo5J8gvPd
zxC58taJ3ZC8nO+g4Xxim/AheXfIzgkqV8VLlvxzWuzyZPltlitLrUQEzVxrBAao
xzKAtVtQDGwHw3CnW19nI4taxVRSY2cZGfQr60LBUwOWpiqGAQyWna3CBPKtbNy5
RwYSaxONzV8emZUli8G7G3OCSheCTCwmdKVHo+DG/LgYSkTD2ayxegySbxDdWhlG
WtFId1buXCAaKf77by/B5kvxS6p0Af51sHoGMKt97pye7qOlc6fzK3IYdUgprrXA
833Bh/dJlrLH3CdWAMbg0YRS/4nXCRl3r1oPOXxJBAI1uB3mZ3Qn1oT0dGWBD7t5
G7Z1h+7FClozgTtTin34YwrHTsqgNCIj9utSxCT7lilRq2GLPLNbdSrVCkpraN6B
96LVB6EZJDrUkICGb+sCATJwSqBW6x+8xKvLACKFNAr20r3VdhBs+XPsFc+BRlAy
DgP+Ebch3ODCZbfwUmCYenYksCCvZD6xZlOf6CVswyiMrESI0h0XhZScuMKAaiSo
yivLVa0CO52+9WbZhbvvdfKN8ZM6UbZQCoEHd6njwPbKynepud5WvXPZeNZz4P96
R3QuXBdgYGi9NsfWirWPWG4xGYaWoB1Wg2pDKFafWg==
-----END CERTIFICATE-----
