Certificate:
    Data:
        Version: 3 (0x2)
        Serial Number: 4100 (0x1004)
    Signature Algorithm: sha256WithRSAEncryption
        Issuer: C=CZ, ST=Jihomoravsky kraj, O=OpenStack Common Libraries, OU=Engineering, CN=Intermediate CA 002
        Validity
            Not Before: Aug 14 16:16:14 2018 GMT
            Not After : Sep  4 16:16:14 2018 GMT
        Subject: C=CZ, ST=Jihomoravsky kraj, L=Brno, O=OpenStack Common Libraries, OU=Engineering, CN=Node 002005
        Subject Public Key Info:
            Public Key Algorithm: rsaEncryption
                Public-Key: (2048 bit)
                Modulus:
                    00:d5:cd:72:05:74:19:39:c8:aa:7b:7f:a0:87:1d:
                    3e:72:f5:27:90:d7:51:88:85:fc:8f:49:d3:ce:4a:
                    5f:cb:ae:37:51:03:9f:d6:93:6a:db:63:e5:b6:66:
                    8c:44:8d:67:29:a4:f4:c2:64:0f:a0:ea:1d:57:fd:
                    03:33:aa:80:27:d2:be:9f:8f:39:28:ed:b4:41:ea:
                    68:31:d5:61:db:1e:5f:a1:7b:f7:99:c3:5e:9c:17:
                    c2:b1:dc:bb:c1:75:47:b5:4c:3d:29:f1:95:75:28:
                    36:96:34:b4:fb:c8:c2:99:b4:d3:4d:b3:d9:d7:55:
                    28:97:4e:68:96:bf:30:0d:4c:bf:20:1b:9f:15:e0:
                    06:53:40:41:c1:6f:ed:82:73:f3:cc:2e:97:60:d8:
                    1f:13:c7:d7:25:aa:59:8a:87:82:d5:4f:c4:3f:ed:
                    21:fb:0f:6c:79:06:05:67:78:97:04:21:90:86:1e:
                    20:a3:78:38:d3:b1:2f:9f:64:10:81:b8:1e:04:19:
                    4f:96:99:56:02:a4:81:c5:22:f6:5e:e6:2f:0c:69:
                    f3:25:47:1f:ed:6c:9b:c0:9c:6f:50:3c:2c:b5:87:
                    45:35:89:91:90:33:49:bc:07:ce:cd:cd:97:9a:b5:
                    d3:45:e9:15:fe:17:8f:9e:e2:b1:36:ee:e7:fe:5b:
                    67:b9
                Exponent: 65537 (0x10001)
        X509v3 extensions:
            X509v3 Basic Constraints: 
                CA:FALSE
            Netscape Cert Type: 
                SSL Client, S/MIME
            Netscape Comment: 
                OpenSSL Generated Client Certificate
            X509v3 Subject Key Identifier: 
                7A:2A:96:41:54:E5:70:46:C6:82:D2:D8:67:9C:35:E0:2F:71:2B:0E
            X509v3 Authority Key Identifier: 
                keyid:BC:A2:F9:8A:E9:02:F7:FC:43:B7:9A:1D:E8:0F:DC:C7:73:24:2D:20

            X509v3 Key Usage: critical
                Digital Signature, Non Repudiation, Key Encipherment
            X509v3 Extended Key Usage: 
                TLS Web Client Authentication, E-mail Protection
    Signature Algorithm: sha256WithRSAEncryption
         0f:4d:f1:6e:54:3f:8c:24:13:29:c3:b0:a2:ef:2d:b0:9c:a1:
         20:cf:dd:37:9b:b6:32:80:87:27:38:0f:8d:23:aa:91:92:15:
         ab:eb:97:a3:c1:42:9c:34:1d:34:1d:d4:b6:90:eb:c3:0d:15:
         a5:6a:32:fb:19:85:a6:7b:85:b6:eb:07:26:49:e1:df:b6:9d:
         0b:44:4b:19:0e:08:0f:c4:c8:08:50:01:21:f1:10:be:3d:df:
         5e:99:f0:3c:a3:3e:e9:73:ac:5f:65:19:0c:df:44:84:b0:75:
         43:e8:5c:64:14:5f:86:71:28:1c:cc:3c:09:71:30:7e:e2:54:
         3d:8e:57:0a:b6:18:a2:8d:41:e3:76:b6:3c:08:f7:06:eb:69:
         d1:0e:b0:f8:c4:02:76:d2:65:18:7e:17:aa:90:1a:b5:b1:06:
         b7:5f:2a:de:0a:6e:06:c6:2b:8d:8e:37:94:b2:e9:88:e4:36:
         70:b4:e9:75:0a:44:25:41:b1:71:d3:5c:0b:11:ff:04:df:4b:
         a0:4a:c0:b2:70:3b:9e:77:e0:88:53:6d:9d:ab:a1:65:45:64:
         d5:c0:01:01:e6:e5:83:8a:b3:13:2b:4e:38:7c:22:4d:51:4a:
         25:ef:66:d2:20:5a:4c:0b:75:f1:0e:c7:c2:d3:af:50:b1:31:
         ce:07:aa:94:77:31:e0:67:53:5b:5e:2b:dd:38:32:b1:0f:c9:
         0b:17:fa:0d:a8:9d:1f:81:b8:1e:8c:52:b9:95:3c:10:95:f6:
         ef:4d:46:81:b5:5c:8c:21:91:41:aa:14:78:27:86:97:08:ed:
         dc:90:30:bf:ea:c8:d8:7a:d3:96:03:37:f7:8b:bf:e6:dc:7e:
         e6:22:74:bf:8c:5c:48:d1:62:71:26:f6:e9:53:1d:b8:67:44:
         3d:20:55:8c:e8:f8:23:b6:ca:d9:52:ee:9a:e9:ab:35:1c:0f:
         66:d8:6b:38:85:fe:24:c8:a1:ee:de:53:bc:3a:ee:cf:5c:75:
         ce:6e:85:2c:ea:23:3c:ef:d3:29:e4:b8:02:ca:17:4e:29:f0:
         3e:8e:a7:ff:79:a2:80:bb:b2:32:6f:85:46:54:31:15:ab:4a:
         b8:b9:dd:82:ec:46:22:4f:46:3d:b6:dc:74:26:25:a8:97:7c:
         37:32:13:18:e0:33:0f:42:fc:d0:3e:90:df:82:cf:80:0c:20:
         5b:f1:5f:d9:3f:3b:24:62:41:d6:b9:a3:39:85:74:9b:c9:21:
         86:a9:3e:41:f7:da:ce:20:4c:ed:54:5b:e4:7b:d8:1f:61:30:
         b0:78:0f:6f:2d:32:5c:18:33:2b:07:96:d8:37:85:73:5f:e2:
         c0:f9:c7:78:7e:e6:c7:84
-----BEGIN CERTIFICATE-----
MIIFTzCCAzegAwIBAgICEAQwDQYJKoZIhvcNAQELBQAwgYIxCzAJBgNVBAYTAkNa
MRowGAYDVQQIDBFKaWhvbW9yYXZza3kga3JhajEjMCEGA1UECgwaT3BlblN0YWNr
IENvbW1vbiBMaWJyYXJpZXMxFDASBgNVBAsMC0VuZ2luZWVyaW5nMRwwGgYDVQQD
DBNJbnRlcm1lZGlhdGUgQ0EgMDAyMB4XDTE4MDgxNDE2MTYxNFoXDTE4MDkwNDE2
MTYxNFowgYkxCzAJBgNVBAYTAkNaMRowGAYDVQQIDBFKaWhvbW9yYXZza3kga3Jh
ajENMAsGA1UEBwwEQnJubzEjMCEGA1UECgwaT3BlblN0YWNrIENvbW1vbiBMaWJy
YXJpZXMxFDASBgNVBAsMC0VuZ2luZWVyaW5nMRQwEgYDVQQDDAtOb2RlIDAwMjAw
NTCCASIwDQYJKoZIhvcNAQEBBQADggEPADCCAQoCggEBANXNcgV0GTnIqnt/oIcd
PnL1J5DXUYiF/I9J085KX8uuN1EDn9aTattj5bZmjESNZymk9MJkD6DqHVf9AzOq
gCfSvp+POSjttEHqaDHVYdseX6F795nDXpwXwrHcu8F1R7VMPSnxlXUoNpY0tPvI
wpm0002z2ddVKJdOaJa/MA1MvyAbnxXgBlNAQcFv7YJz88wul2DYHxPH1yWqWYqH
gtVPxD/tIfsPbHkGBWd4lwQhkIYeIKN4ONOxL59kEIG4HgQZT5aZVgKkgcUi9l7m
Lwxp8yVHH+1sm8Ccb1A8LLWHRTWJkZAzSbwHzs3Nl5q100XpFf4Xj57isTbu5/5b
Z7kCAwEAAaOBxTCBwjAJBgNVHRMEAjAAMBEGCWCGSAGG+EIBAQQEAwIFoDAzBglg
hkgBhvhCAQ0EJhYkT3BlblNTTCBHZW5lcmF0ZWQgQ2xpZW50IENlcnRpZmljYXRl
MB0GA1UdDgQWBBR6KpZBVOVwRsaC0thnnDXgL3ErDjAfBgNVHSMEGDAWgBS8ovmK
6QL3/EO3mh3oD9zHcyQtIDAOBgNVHQ8BAf8EBAMCBeAwHQYDVR0lBBYwFAYIKwYB
BQUHAwIGCCsGAQUFBwMEMA0GCSqGSIb3DQEBCwUAA4ICAQAPTfFuVD+MJBMpw7Ci
7y2wnKEgz903m7YygIcnOA+NI6qRkhWr65ejwUKcNB00HdS2kOvDDRWlajL7GYWm
e4W26wcmSeHftp0LREsZDggPxMgIUAEh8RC+Pd9emfA8oz7pc6xfZRkM30SEsHVD
6FxkFF+GcSgczDwJcTB+4lQ9jlcKthiijUHjdrY8CPcG62nRDrD4xAJ20mUYfheq
kBq1sQa3XyreCm4GxiuNjjeUsumI5DZwtOl1CkQlQbFx01wLEf8E30ugSsCycDue
d+CIU22dq6FlRWTVwAEB5uWDirMTK044fCJNUUol72bSIFpMC3XxDsfC069QsTHO
B6qUdzHgZ1NbXivdODKxD8kLF/oNqJ0fgbgejFK5lTwQlfbvTUaBtVyMIZFBqhR4
J4aXCO3ckDC/6sjYetOWAzf3i7/m3H7mInS/jFxI0WJxJvbpUx24Z0Q9IFWM6Pgj
tsrZUu6a6as1HA9m2Gs4hf4kyKHu3lO8Ou7PXHXOboUs6iM879Mp5LgCyhdOKfA+
jqf/eaKAu7Iyb4VGVDEVq0q4ud2C7EYiT0Y9ttx0JiWol3w3MhMY4DMPQvzQPpDf
gs+ADCBb8V/ZPzskYkHWuaM5hXSbySGGqT5B99rOIEztVFvke9gfYTCweA9vLTJc
GDMrB5bYN4VzX+LA+cd4fubHhA==
-----END CERTIFICATE-----
