Certificate:
    Data:
        Version: 3 (0x2)
        Serial Number: 4099 (0x1003)
    Signature Algorithm: sha256WithRSAEncryption
        Issuer: C=CZ, ST=Jihomoravsky kraj, O=OpenStack Common Libraries, OU=Engineering, CN=Intermediate CA 002
        Validity
            Not Before: Aug 14 16:16:14 2018 GMT
            Not After : Sep  4 16:16:14 2018 GMT
        Subject: C=CZ, ST=Jihomoravsky kraj, L=Brno, O=OpenStack Common Libraries, OU=Engineering, CN=Node 002004
        Subject Public Key Info:
            Public Key Algorithm: rsaEncryption
                Public-Key: (2048 bit)
                Modulus:
                    00:f3:bf:8a:78:f8:73:75:44:dd:67:03:82:0f:fd:
                    81:f8:60:39:43:98:e4:c0:b9:aa:e5:81:c2:73:85:
                    0d:82:f2:b7:fd:dd:04:00:f4:b5:19:ac:dc:f5:6b:
                    3e:cb:f2:64:5f:ad:72:45:98:db:c7:b0:03:e7:23:
                    1d:13:a4:6b:32:d9:75:3e:07:58:f2:81:96:26:86:
                    00:fd:0f:2f:07:1a:c2:3c:d5:c0:47:4d:e2:36:4b:
                    68:25:8f:1e:a9:bb:1e:8c:4a:b6:28:fa:f8:8e:36:
                    ff:23:30:3d:1e:2f:56:3c:e7:33:ca:89:ca:54:ec:
                    5e:fb:a2:27:09:5b:8e:fb:bb:07:55:c6:17:ae:57:
                    bd:6c:7a:9a:c5:c1:62:69:ec:a9:4f:d1:d9:fa:ad:
                    18:a4:1b:c2:ac:5d:71:5f:7c:84:9b:95:2e:e3:62:
                    e5:52:4d:e6:d8:f3:bb:d8:d0:60:fc:0e:71:9b:d5:
                    44:30:cc:29:7c:91:b5:de:9f:28:4f:9a:88:a3:bf:
                    00:c9:ec:86:db:43:60:53:c9:65:31:4d:be:c4:7c:
                    23:11:6b:bc:55:80:ea:17:9e:4e:aa:a8:77:60:b1:
                    28:2a:6d:e5:0b:4e:11:bb:25:af:78:6d:8f:1f:3f:
                    20:00:af:51:e2:3c:c9:7c:95:50:45:d4:bc:e9:81:
                    46:35
                Exponent: 65537 (0x10001)
        X509v3 extensions:
            X509v3 Basic Constraints: 
                CA:FALSE
            Netscape Cert Type: 
                SSL Client, S/MIME
            Netscape Comment: 
                OpenSSL Generated Client Certificate
            X509v3 Subject Key Identifier: 
                ED:A5:47:FA:97:4B:E3:3E:08:77:0D:D1:BF:CF:43:AF:D6:F9:D2:6C
            X509v3 Authority Key Identifier: 
                keyid:BC:A2:F9:8A:E9:02:F7:FC:43:B7:9A:1D:E8:0F:DC:C7:73:24:2D:20

            X509v3 Key Usage: critical
                Digital Signature, Non Repudiation, Key Encipherment
            X509v3 Extended Key Usage: 
                TLS Web Client Authentication, E-mail Protection
    Signature Algorithm: sha256WithRSAEncryption
         67:d1:38:da:36:19:96:dc:d7:bb:c2:30:df:28:3f:79:15:de:
         dd:25:d4:ac:ad:78:2f:43:c3:37:d4:d1:a3:64:83:0b:84:02:
         80:b6:b4:3f:ba:a7:53:32:24:d4:92:e3:75:28:bd:e5:c2:17:
         b9:89:a9:92:50:15:b8:75:87:e4:d4:42:d6:34:78:3f:50:72:
         22:36:0d:51:dd:98:1e:ee:b0:67:1b:2e:46:38:e0:ae:34:20:
         41:32:1d:2a:8d:8e:1a:03:fe:21:41:71:6c:91:41:5a:24:08:
         d9:cf:7c:82:aa:ba:d3:2b:4d:4d:26:6c:47:7c:17:2a:ad:11:
         4f:01:98:76:6a:3e:58:e2:69:25:33:ce:67:05:a8:07:56:1d:
         80:5c:6b:34:9a:6d:1f:b9:7b:02:25:78:60:87:2f:95:70:a5:
         78:a2:71:76:e6:40:cd:ad:cc:4a:af:b6:a5:03:61:f7:36:fc:
         fa:56:04:ee:7c:60:68:41:7e:c0:25:da:d2:22:09:38:26:09:
         cf:b8:c0:02:d2:dc:bd:a7:15:bf:f3:16:4c:3f:25:cb:2c:1f:
         8d:6f:5d:62:cc:ba:a9:c3:01:8c:90:e2:82:1b:df:e1:2e:75:
         8c:b9:82:96:e3:dc:a9:73:eb:a2:21:0a:3b:b3:c3:66:f6:66:
         16:33:d5:e6:c7:40:c0:26:11:e1:fc:e2:e5:77:23:58:b7:96:
         31:0d:af:13:ed:28:bd:a1:e1:05:6a:94:3c:19:db:6a:a4:1f:
         1b:4b:a6:82:80:23:a3:56:d7:80:94:30:02:87:f6:e9:08:35:
         03:db:f2:43:1f:56:eb:85:ca:9d:05:83:0b:c4:0c:55:90:9a:
         9e:42:10:c9:26:8f:87:73:fc:b0:f0:bd:6d:04:04:c2:fe:86:
         ef:12:0e:72:fe:b0:67:b2:ad:2c:46:cf:fc:86:ed:6f:d5:d4:
         85:45:d1:43:00:ca:b4:1d:0c:b9:59:81:78:b5:f9:d5:51:e2:
         1e:ab:e7:52:73:fe:db:29:b7:e6:a6:58:b2:8f:1b:20:38:dd:
         f9:4a:71:9a:d1:45:76:d8:b9:58:2a:b0:18:13:2a:3f:c3:61:
         9f:ed:84:55:f0:53:8f:1c:40:59:ef:0a:d5:34:5e:33:64:4d:
         dd:73:c9:f4:16:0c:ee:1a:e0:eb:f7:1b:0f:79:18:e0:18:33:
         92:f0:71:cc:7d:8b:86:14:38:d4:7b:91:6b:46:1d:5c:1d:08:
         7e:b2:a7:ba:6d:27:e4:99:80:c0:92:ac:f9:1c:46:f1:7a:be:
         f5:7f:d7:ce:d4:f6:b5:2b:d5:2f:6b:aa:ca:c6:5f:5f:68:40:
         b4:97:82:79:6c:49:ba:86
-----BEGIN CERTIFICATE-----
MIIFTzCCAzegAwIBAgICEAMwDQYJKoZIhvcNAQELBQAwgYIxCzAJBgNVBAYTAkNa
MRowGAYDVQQIDBFKaWhvbW9yYXZza3kga3JhajEjMCEGA1UECgwaT3BlblN0YWNr
IENvbW1vbiBMaWJyYXJpZXMxFDASBgNVBAsMC0VuZ2luZWVyaW5nMRwwGgYDVQQD
DBNJbnRlcm1lZGlhdGUgQ0EgMDAyMB4XDTE4MDgxNDE2MTYxNFoXDTE4MDkwNDE2
MTYxNFowgYkxCzAJBgNVBAYTAkNaMRowGAYDVQQIDBFKaWhvbW9yYXZza3kga3Jh
ajENMAsGA1UEBwwEQnJubzEjMCEGA1UECgwaT3BlblN0YWNrIENvbW1vbiBMaWJy
YXJpZXMxFDASBgNVBAsMC0VuZ2luZWVyaW5nMRQwEgYDVQQDDAtOb2RlIDAwMjAw
NDCCASIwDQYJKoZIhvcNAQEBBQADggEPADCCAQoCggEBAPO/inj4c3VE3WcDgg/9
gfhgOUOY5MC5quWBwnOFDYLyt/3dBAD0tRms3PVrPsvyZF+tckWY28ewA+cjHROk
azLZdT4HWPKBliaGAP0PLwcawjzVwEdN4jZLaCWPHqm7HoxKtij6+I42/yMwPR4v
VjznM8qJylTsXvuiJwlbjvu7B1XGF65XvWx6msXBYmnsqU/R2fqtGKQbwqxdcV98
hJuVLuNi5VJN5tjzu9jQYPwOcZvVRDDMKXyRtd6fKE+aiKO/AMnshttDYFPJZTFN
vsR8IxFrvFWA6heeTqqod2CxKCpt5QtOEbslr3htjx8/IACvUeI8yXyVUEXUvOmB
RjUCAwEAAaOBxTCBwjAJBgNVHRMEAjAAMBEGCWCGSAGG+EIBAQQEAwIFoDAzBglg
hkgBhvhCAQ0EJhYkT3BlblNTTCBHZW5lcmF0ZWQgQ2xpZW50IENlcnRpZmljYXRl
MB0GA1UdDgQWBBTtpUf6l0vjPgh3DdG/z0Ov1vnSbDAfBgNVHSMEGDAWgBS8ovmK
6QL3/EO3mh3oD9zHcyQtIDAOBgNVHQ8BAf8EBAMCBeAwHQYDVR0lBBYwFAYIKwYB
BQUHAwIGCCsGAQUFBwMEMA0GCSqGSIb3DQEBCwUAA4ICAQBn0TjaNhmW3Ne7wjDf
KD95Fd7dJdSsrXgvQ8M31NGjZIMLhAKAtrQ/uqdTMiTUkuN1KL3lwhe5iamSUBW4
dYfk1ELWNHg/UHIiNg1R3Zge7rBnGy5GOOCuNCBBMh0qjY4aA/4hQXFskUFaJAjZ
z3yCqrrTK01NJmxHfBcqrRFPAZh2aj5Y4mklM85nBagHVh2AXGs0mm0fuXsCJXhg
hy+VcKV4onF25kDNrcxKr7alA2H3Nvz6VgTufGBoQX7AJdrSIgk4JgnPuMAC0ty9
pxW/8xZMPyXLLB+Nb11izLqpwwGMkOKCG9/hLnWMuYKW49ypc+uiIQo7s8Nm9mYW
M9Xmx0DAJhHh/OLldyNYt5YxDa8T7Si9oeEFapQ8GdtqpB8bS6aCgCOjVteAlDAC
h/bpCDUD2/JDH1brhcqdBYMLxAxVkJqeQhDJJo+Hc/yw8L1tBATC/obvEg5y/rBn
sq0sRs/8hu1v1dSFRdFDAMq0HQy5WYF4tfnVUeIeq+dSc/7bKbfmpliyjxsgON35
SnGa0UV22LlYKrAYEyo/w2Gf7YRV8FOPHEBZ7wrVNF4zZE3dc8n0FgzuGuDr9xsP
eRjgGDOS8HHMfYuGFDjUe5FrRh1cHQh+sqe6bSfkmYDAkqz5HEbxer71f9fO1Pa1
K9Uva6rKxl9faEC0l4J5bEm6hg==
-----END CERTIFICATE-----
