Certificate:
    Data:
        Version: 3 (0x2)
        Serial Number: 4099 (0x1003)
    Signature Algorithm: sha256WithRSAEncryption
        Issuer: C=CZ, ST=Jihomoravsky kraj, O=OpenStack Common Libraries, OU=Engineering, CN=Intermediate CA 002
        Validity
            Not Before: Aug 10 16:28:20 2018 GMT
            Not After : Aug 31 16:28:20 2018 GMT
        Subject: C=CZ, ST=Jihomoravsky kraj, L=Brno, O=OpenStack Common Libraries, OU=Engineering, CN=Node 002004
        Subject Public Key Info:
            Public Key Algorithm: rsaEncryption
                Public-Key: (2048 bit)
                Modulus:
                    00:db:a6:ee:72:0f:13:5d:6f:77:46:c6:2f:fc:d5:
                    b7:6f:14:3f:2f:e6:79:7b:3b:72:f0:f0:eb:00:07:
                    20:a1:89:7c:31:95:64:2b:3e:df:32:f4:d6:6d:30:
                    4a:d1:a2:26:cc:ad:37:82:ca:0b:fc:0e:e7:4f:47:
                    ac:d1:9e:e9:b3:0b:c9:85:96:59:c6:41:98:47:73:
                    ae:a9:3d:46:a0:b3:f6:3f:6e:f8:93:a9:a4:0f:c9:
                    53:4d:c9:cc:a4:50:8b:f1:5d:a2:af:3f:e5:d4:e9:
                    e6:a7:7a:99:dd:f5:07:17:4e:34:7f:0a:dd:30:b8:
                    ee:9d:1b:06:de:bd:2e:db:b0:81:6c:70:8d:35:6a:
                    f1:24:26:f0:bb:86:0c:15:81:2d:5e:b3:1c:1c:d2:
                    f8:09:ec:bc:3b:dd:d2:83:3d:44:7e:a5:30:3f:36:
                    58:0a:e5:32:68:57:f2:8f:85:64:c9:4f:ed:af:7a:
                    fa:90:2a:1c:81:e6:e8:60:61:6b:ae:57:a9:ec:34:
                    8f:09:08:1a:c5:71:1b:fb:3f:34:3a:14:88:6b:6b:
                    d4:f9:43:ec:b0:69:68:ba:de:fc:61:c6:29:3b:76:
                    da:62:b9:50:bd:4d:b0:e3:43:b0:81:82:91:be:52:
                    ac:a3:e5:53:39:9c:d1:b0:2d:20:aa:75:6e:2c:4c:
                    5a:e1
                Exponent: 65537 (0x10001)
        X509v3 extensions:
            X509v3 Basic Constraints: 
                CA:FALSE
            Netscape Cert Type: 
                SSL Client, S/MIME
            Netscape Comment: 
                OpenSSL Generated Client Certificate
            X509v3 Subject Key Identifier: 
                68:65:A4:7D:AE:1E:96:9D:82:4E:30:4A:BE:BA:8D:D1:91:F6:09:2E
            X509v3 Authority Key Identifier: 
                keyid:B9:E4:F8:9F:A3:6E:3A:7D:13:BE:FB:0A:92:2C:80:8B:A0:99:5E:B9

            X509v3 Key Usage: critical
                Digital Signature, Non Repudiation, Key Encipherment
            X509v3 Extended Key Usage: 
                TLS Web Client Authentication, E-mail Protection
    Signature Algorithm: sha256WithRSAEncryption
         7e:aa:9a:98:be:65:73:ac:59:4f:b8:98:c0:8f:8a:6f:53:30:
         d7:e3:ca:6d:7e:51:a5:5c:87:bd:9c:09:25:fb:3b:19:30:ee:
         a0:28:58:6f:73:bb:18:6d:40:e7:c2:15:c0:27:38:b8:9a:6e:
         20:2c:39:72:19:4b:ac:93:f2:e2:b2:8a:56:99:93:d9:8a:54:
         87:e3:2b:8b:02:03:86:d0:7c:7b:bb:e4:99:8f:66:c1:ac:be:
         f3:9f:31:76:8b:0b:48:8a:4c:36:3d:db:32:55:54:12:41:31:
         55:f2:4c:ae:52:88:b8:e7:e7:ab:65:41:1c:90:45:da:6c:e6:
         5b:67:75:05:3d:c4:44:16:9f:d8:17:bc:e8:da:68:63:78:2b:
         98:81:37:ea:63:87:8b:69:2e:72:ef:ea:27:06:09:97:e2:8e:
         df:c5:b0:1b:c1:5f:57:f6:ec:9d:90:d5:0c:7b:d1:24:e1:3b:
         3f:ba:07:f3:d7:be:82:97:b2:9c:33:19:8f:96:4e:12:55:06:
         e8:b5:9a:6d:d8:0c:32:35:2b:88:35:58:cd:5e:b9:1f:b6:13:
         ad:1e:09:d1:af:75:ce:6c:b1:99:bd:59:52:11:ce:cc:11:0c:
         cf:9d:b5:3a:b4:43:eb:ea:38:98:68:2c:f3:28:15:98:2d:11:
         78:8a:db:04
-----BEGIN CERTIFICATE-----
MIIETzCCAzegAwIBAgICEAMwDQYJKoZIhvcNAQELBQAwgYIxCzAJBgNVBAYTAkNa
MRowGAYDVQQIDBFKaWhvbW9yYXZza3kga3JhajEjMCEGA1UECgwaT3BlblN0YWNr
IENvbW1vbiBMaWJyYXJpZXMxFDASBgNVBAsMC0VuZ2luZWVyaW5nMRwwGgYDVQQD
DBNJbnRlcm1lZGlhdGUgQ0EgMDAyMB4XDTE4MDgxMDE2MjgyMFoXDTE4MDgzMTE2
MjgyMFowgYkxCzAJBgNVBAYTAkNaMRowGAYDVQQIDBFKaWhvbW9yYXZza3kga3Jh
ajENMAsGA1UEBwwEQnJubzEjMCEGA1UECgwaT3BlblN0YWNrIENvbW1vbiBMaWJy
YXJpZXMxFDASBgNVBAsMC0VuZ2luZWVyaW5nMRQwEgYDVQQDDAtOb2RlIDAwMjAw
NDCCASIwDQYJKoZIhvcNAQEBBQADggEPADCCAQoCggEBANum7nIPE11vd0bGL/zV
t28UPy/meXs7cvDw6wAHIKGJfDGVZCs+3zL01m0wStGiJsytN4LKC/wO509HrNGe
6bMLyYWWWcZBmEdzrqk9RqCz9j9u+JOppA/JU03JzKRQi/Fdoq8/5dTp5qd6md31
BxdONH8K3TC47p0bBt69LtuwgWxwjTVq8SQm8LuGDBWBLV6zHBzS+AnsvDvd0oM9
RH6lMD82WArlMmhX8o+FZMlP7a96+pAqHIHm6GBha65Xqew0jwkIGsVxG/s/NDoU
iGtr1PlD7LBpaLre/GHGKTt22mK5UL1NsONDsIGCkb5SrKPlUzmc0bAtIKp1bixM
WuECAwEAAaOBxTCBwjAJBgNVHRMEAjAAMBEGCWCGSAGG+EIBAQQEAwIFoDAzBglg
hkgBhvhCAQ0EJhYkT3BlblNTTCBHZW5lcmF0ZWQgQ2xpZW50IENlcnRpZmljYXRl
MB0GA1UdDgQWBBRoZaR9rh6WnYJOMEq+uo3RkfYJLjAfBgNVHSMEGDAWgBS55Pif
o246fRO++wqSLICLoJleuTAOBgNVHQ8BAf8EBAMCBeAwHQYDVR0lBBYwFAYIKwYB
BQUHAwIGCCsGAQUFBwMEMA0GCSqGSIb3DQEBCwUAA4IBAQB+qpqYvmVzrFlPuJjA
j4pvUzDX48ptflGlXIe9nAkl+zsZMO6gKFhvc7sYbUDnwhXAJzi4mm4gLDlyGUus
k/LisopWmZPZilSH4yuLAgOG0Hx7u+SZj2bBrL7znzF2iwtIikw2PdsyVVQSQTFV
8kyuUoi45+erZUEckEXabOZbZ3UFPcREFp/YF7zo2mhjeCuYgTfqY4eLaS5y7+on
BgmX4o7fxbAbwV9X9uydkNUMe9Ek4Ts/ugfz176Cl7KcMxmPlk4SVQbotZpt2Awy
NSuINVjNXrkfthOtHgnRr3XObLGZvVlSEc7MEQzPnbU6tEPr6jiYaCzzKBWYLRF4
itsE
-----END CERTIFICATE-----
