Certificate:
    Data:
        Version: 3 (0x2)
        Serial Number: 4098 (0x1002)
    Signature Algorithm: sha256WithRSAEncryption
        Issuer: C=CZ, ST=Jihomoravsky kraj, O=OpenStack Common Libraries, OU=Engineering, CN=Intermediate CA 002
        Validity
            Not Before: Aug 14 16:16:14 2018 GMT
            Not After : Sep  4 16:16:14 2018 GMT
        Subject: C=CZ, ST=Jihomoravsky kraj, L=Brno, O=OpenStack Common Libraries, OU=Engineering, CN=Node 002003
        Subject Public Key Info:
            Public Key Algorithm: rsaEncryption
                Public-Key: (2048 bit)
                Modulus:
                    00:c8:ef:b0:73:7e:c7:ba:73:9a:e7:83:f1:1b:6d:
                    59:15:24:02:dc:8d:5a:b8:85:ed:22:97:d4:61:12:
                    b2:5d:60:95:08:58:77:58:b5:96:a3:40:d7:8b:0c:
                    48:36:05:d3:4b:49:5b:37:32:6c:c1:cf:6f:16:f5:
                    c7:0b:30:56:87:94:d9:78:a7:bc:4c:60:5e:19:14:
                    88:b3:b6:2b:04:9b:96:e0:a9:ed:be:27:0e:be:36:
                    c8:e2:07:9d:16:4f:ef:ca:09:88:67:d5:35:83:f7:
                    b6:98:c3:36:f9:b9:94:63:f6:7f:cb:81:24:05:48:
                    f9:d0:06:cd:58:b4:92:98:a3:76:d6:04:17:b2:79:
                    6a:e2:e0:58:2d:d5:9e:30:a3:c0:8a:46:24:ed:6a:
                    1e:21:26:9a:8e:5b:23:29:5d:f8:f4:bc:cd:de:ac:
                    5e:7d:65:f8:04:03:3a:32:8f:5b:ea:73:ee:b2:b8:
                    06:99:10:e3:52:d4:f4:35:1b:5c:34:bd:22:02:ca:
                    b3:2f:eb:6f:49:9b:c8:84:9a:f1:cf:14:5a:21:59:
                    36:5f:04:11:9c:60:52:b3:e6:89:56:f0:de:5d:5c:
                    3c:58:62:14:23:78:f6:01:f7:c8:c7:54:47:a2:a1:
                    7f:f4:a8:fb:61:26:49:f3:72:a7:b7:8f:1a:5c:4f:
                    28:13
                Exponent: 65537 (0x10001)
        X509v3 extensions:
            X509v3 Basic Constraints: 
                CA:FALSE
            Netscape Cert Type: 
                SSL Client, S/MIME
            Netscape Comment: 
                OpenSSL Generated Client Certificate
            X509v3 Subject Key Identifier: 
                8D:51:8D:94:1A:D4:F9:03:39:B7:60:D2:73:BD:E3:42:56:68:84:12
            X509v3 Authority Key Identifier: 
                keyid:BC:A2:F9:8A:E9:02:F7:FC:43:B7:9A:1D:E8:0F:DC:C7:73:24:2D:20

            X509v3 Key Usage: critical
                Digital Signature, Non Repudiation, Key Encipherment
            X509v3 Extended Key Usage: 
                TLS Web Client Authentication, E-mail Protection
    Signature Algorithm: sha256WithRSAEncryption
         af:f5:a4:0a:fd:63:98:81:ad:e6:4c:3a:41:13:b4:cf:70:f2:
         ca:f4:09:ac:6c:0e:de:d9:f3:ea:6d:b1:71:ff:d2:fa:40:19:
         4a:b0:9e:b2:57:74:b3:8e:86:39:53:fe:3a:c2:d3:00:7a:5e:
         8f:ce:14:be:92:04:0a:22:a9:40:e0:fe:aa:92:4d:77:29:79:
         cc:ca:04:1f:a0:be:6a:de:34:c0:7c:b9:f9:cf:80:33:2c:da:
         1d:a1:b7:ca:67:ec:1b:ed:2c:8d:c0:da:d9:1b:0a:ce:e1:d3:
         0a:29:08:65:65:3b:e4:43:30:bc:9a:fb:50:b9:9e:7c:0e:6c:
         13:10:49:9a:a0:f1:91:df:3c:af:df:6e:51:11:b9:63:8c:36:
         89:7e:4a:cd:4b:22:0b:64:5c:46:8a:01:16:f7:f5:23:28:0d:
         63:fe:fc:b7:53:9a:09:b5:d4:38:ee:65:12:d4:01:dc:00:55:
         db:e1:d7:5c:0c:07:d8:f8:5f:52:f7:00:d3:0c:aa:9f:71:c5:
         3e:32:da:3e:77:7a:3f:36:4f:b9:e5:06:b3:ed:be:be:ff:ff:
         ab:bc:0e:e6:a5:9b:48:25:84:36:aa:fc:37:62:2b:fc:7f:fa:
         3c:f0:ab:d1:6f:8d:59:7d:28:53:bb:00:d7:7d:dd:75:60:f9:
         8b:ef:32:93:4c:ab:58:04:be:33:1b:ec:9f:3b:8f:20:0b:90:
         e8:ef:d4:5d:cf:e7:a6:d3:8b:11:86:06:fc:f5:e6:b7:08:2a:
         0e:34:0e:ef:fe:43:30:13:4d:4e:64:1f:cf:b8:af:2f:57:36:
         0f:f7:fe:a2:67:e4:d1:ac:93:49:43:27:8f:63:ff:b1:38:88:
         b9:7f:36:6a:f9:51:06:a1:09:de:4f:dc:93:3d:33:3e:f9:c9:
         13:e2:21:a4:b5:f5:40:1d:de:1f:28:90:be:99:08:dd:a6:15:
         97:fb:6e:14:9c:2e:ff:99:a5:a6:04:e8:f0:56:d9:b2:1c:17:
         7c:7e:3a:76:f3:e9:5b:b8:cf:4e:9c:16:6f:48:1d:ca:21:0c:
         5e:54:54:7d:68:8b:e3:6c:07:2d:9c:b7:51:4a:7d:5a:70:2d:
         2c:68:92:3e:c6:4c:32:9d:a4:58:5e:fa:ac:67:f6:7b:78:7e:
         bc:2f:14:42:0d:17:82:a4:3d:52:0b:82:4f:d2:d9:3b:01:07:
         f6:d5:37:7c:32:af:77:4b:c5:c3:f7:e6:77:df:6c:4b:9a:64:
         bf:12:54:24:2e:4f:1e:34:c9:5a:60:ea:1a:ff:9c:48:2b:f0:
         c7:d0:fa:19:3b:a0:a3:60:21:e9:97:92:fb:63:a5:a6:d3:b2:
         42:f1:98:d5:a0:05:eb:b8
-----BEGIN CERTIFICATE-----
MIIFTzCCAzegAwIBAgICEAIwDQYJKoZIhvcNAQELBQAwgYIxCzAJBgNVBAYTAkNa
MRowGAYDVQQIDBFKaWhvbW9yYXZza3kga3JhajEjMCEGA1UECgwaT3BlblN0YWNr
IENvbW1vbiBMaWJyYXJpZXMxFDASBgNVBAsMC0VuZ2luZWVyaW5nMRwwGgYDVQQD
DBNJbnRlcm1lZGlhdGUgQ0EgMDAyMB4XDTE4MDgxNDE2MTYxNFoXDTE4MDkwNDE2
MTYxNFowgYkxCzAJBgNVBAYTAkNaMRowGAYDVQQIDBFKaWhvbW9yYXZza3kga3Jh
ajENMAsGA1UEBwwEQnJubzEjMCEGA1UECgwaT3BlblN0YWNrIENvbW1vbiBMaWJy
YXJpZXMxFDASBgNVBAsMC0VuZ2luZWVyaW5nMRQwEgYDVQQDDAtOb2RlIDAwMjAw
MzCCASIwDQYJKoZIhvcNAQEBBQADggEPADCCAQoCggEBAMjvsHN+x7pzmueD8Rtt
WRUkAtyNWriF7SKX1GESsl1glQhYd1i1lqNA14sMSDYF00tJWzcybMHPbxb1xwsw
VoeU2XinvExgXhkUiLO2KwSbluCp7b4nDr42yOIHnRZP78oJiGfVNYP3tpjDNvm5
lGP2f8uBJAVI+dAGzVi0kpijdtYEF7J5auLgWC3VnjCjwIpGJO1qHiEmmo5bIyld
+PS8zd6sXn1l+AQDOjKPW+pz7rK4BpkQ41LU9DUbXDS9IgLKsy/rb0mbyISa8c8U
WiFZNl8EEZxgUrPmiVbw3l1cPFhiFCN49gH3yMdUR6Khf/So+2EmSfNyp7ePGlxP
KBMCAwEAAaOBxTCBwjAJBgNVHRMEAjAAMBEGCWCGSAGG+EIBAQQEAwIFoDAzBglg
hkgBhvhCAQ0EJhYkT3BlblNTTCBHZW5lcmF0ZWQgQ2xpZW50IENlcnRpZmljYXRl
MB0GA1UdDgQWBBSNUY2UGtT5Azm3YNJzveNCVmiEEjAfBgNVHSMEGDAWgBS8ovmK
6QL3/EO3mh3oD9zHcyQtIDAOBgNVHQ8BAf8EBAMCBeAwHQYDVR0lBBYwFAYIKwYB
BQUHAwIGCCsGAQUFBwMEMA0GCSqGSIb3DQEBCwUAA4ICAQCv9aQK/WOYga3mTDpB
E7TPcPLK9AmsbA7e2fPqbbFx/9L6QBlKsJ6yV3SzjoY5U/46wtMAel6PzhS+kgQK
IqlA4P6qkk13KXnMygQfoL5q3jTAfLn5z4AzLNodobfKZ+wb7SyNwNrZGwrO4dMK
KQhlZTvkQzC8mvtQuZ58DmwTEEmaoPGR3zyv325REbljjDaJfkrNSyILZFxGigEW
9/UjKA1j/vy3U5oJtdQ47mUS1AHcAFXb4ddcDAfY+F9S9wDTDKqfccU+Mto+d3o/
Nk+55Qaz7b6+//+rvA7mpZtIJYQ2qvw3Yiv8f/o88KvRb41ZfShTuwDXfd11YPmL
7zKTTKtYBL4zG+yfO48gC5Do79Rdz+em04sRhgb89ea3CCoONA7v/kMwE01OZB/P
uK8vVzYP9/6iZ+TRrJNJQyePY/+xOIi5fzZq+VEGoQneT9yTPTM++ckT4iGktfVA
Hd4fKJC+mQjdphWX+24UnC7/maWmBOjwVtmyHBd8fjp28+lbuM9OnBZvSB3KIQxe
VFR9aIvjbActnLdRSn1acC0saJI+xkwynaRYXvqsZ/Z7eH68LxRCDReCpD1SC4JP
0tk7AQf21Td8Mq93S8XD9+Z332xLmmS/ElQkLk8eNMlaYOoa/5xIK/DH0PoZO6Cj
YCHpl5L7Y6Wm07JC8ZjVoAXruA==
-----END CERTIFICATE-----
Certificate:
    Data:
        Version: 3 (0x2)
        Serial Number: 4098 (0x1002)
    Signature Algorithm: sha256WithRSAEncryption
        Issuer: C=CZ, ST=Jihomoravsky kraj, L=Brno, O=OpenStack Common Libraries, OU=Engineering, CN=Root CA
        Validity
            Not Before: Aug 14 16:16:11 2018 GMT
            Not After : Aug 11 16:16:11 2028 GMT
        Subject: C=CZ, ST=Jihomoravsky kraj, O=OpenStack Common Libraries, OU=Engineering, CN=Intermediate CA 002
        Subject Public Key Info:
            Public Key Algorithm: rsaEncryption
                Public-Key: (4096 bit)
                Modulus:
                    00:c2:a1:f1:49:ce:c7:4e:08:ce:d1:4f:d1:50:1c:
                    f6:7b:0c:a3:ca:d1:c4:6a:d3:8d:04:84:51:f5:82:
                    26:8e:10:de:f8:f6:a2:22:02:23:fa:b0:61:2e:62:
                    7b:b8:aa:84:66:19:d0:dc:d3:42:50:33:17:5f:d8:
                    8d:c1:72:e6:84:26:82:39:67:2d:c1:21:12:e7:f4:
                    ac:5c:90:c6:a7:ff:68:1a:d3:f0:66:8c:2f:2b:df:
                    33:3f:ea:d5:59:9b:ec:0c:29:dc:d8:97:62:42:6b:
                    ae:48:e8:72:7b:5d:a9:80:89:50:5a:f9:19:e1:b2:
                    45:1e:96:cf:4e:38:1f:ac:cb:53:d2:c4:e6:80:ca:
                    a6:2a:52:73:7e:f8:f2:66:ec:b8:8d:29:46:9e:aa:
                    81:91:7c:ff:71:47:af:aa:f9:c3:13:65:57:61:67:
                    ee:31:42:01:3d:17:a1:a3:37:02:35:0e:73:1f:7b:
                    7f:1e:85:c4:37:9d:1f:51:b6:94:95:27:cb:9d:5d:
                    1e:5c:b8:4b:83:6c:ab:84:ec:6c:0c:ae:a7:23:9e:
                    c3:4f:41:1e:5d:2e:ed:7f:37:8f:42:fd:e3:fe:6d:
                    5d:77:cd:c9:b3:82:ce:4c:e5:47:3d:29:22:ba:84:
                    d3:af:f6:34:b8:f3:68:84:1b:e2:51:3e:bf:17:25:
                    72:50:8a:42:36:70:72:0e:15:2e:c8:9b:05:14:3b:
                    48:43:53:0f:c1:eb:59:5d:1a:f7:3e:53:b2:f2:21:
                    c7:e8:52:62:4b:53:fe:b9:f8:d0:8f:6a:2e:02:b5:
                    33:27:ff:09:ac:7b:7f:31:6c:ce:ba:c2:b5:d6:26:
                    ad:df:dd:8d:9f:29:af:fd:39:3a:62:5f:5d:6f:50:
                    3a:35:ee:01:16:76:f6:9b:c6:0a:ef:3a:e2:50:ba:
                    81:13:fd:9e:c8:41:f2:c7:60:54:d1:d9:1e:e6:b7:
                    01:a3:4f:98:a4:a7:82:88:65:80:1e:ae:d5:26:2f:
                    88:89:a9:00:8e:80:86:92:d5:2a:07:54:28:04:4e:
                    e5:fc:c3:6a:43:95:71:78:a2:b7:1b:c6:db:b6:38:
                    33:c4:e2:af:49:1d:a7:e7:89:3c:cc:6f:7a:1d:8f:
                    3a:b4:47:12:f5:f4:6e:b8:f7:94:cf:7d:90:7a:01:
                    3e:b8:83:95:46:3d:20:25:17:57:6a:91:b1:35:a2:
                    39:94:49:19:9f:a2:ff:6b:0d:3f:f9:5e:fe:a9:01:
                    fd:88:9d:28:28:75:4c:2d:5f:73:bc:36:cc:af:df:
                    b8:f5:25:a4:e2:95:89:56:7b:f2:c6:69:fd:67:40:
                    f2:07:c7:d6:c8:c0:a5:3c:e8:57:49:be:27:39:67:
                    bb:1d:95
                Exponent: 65537 (0x10001)
        X509v3 extensions:
            X509v3 Subject Key Identifier: 
                BC:A2:F9:8A:E9:02:F7:FC:43:B7:9A:1D:E8:0F:DC:C7:73:24:2D:20
            X509v3 Authority Key Identifier: 
                keyid:93:83:48:92:23:B6:C3:DA:A7:15:85:08:41:75:30:67:97:A5:D4:9C

            X509v3 Basic Constraints: critical
                CA:TRUE, pathlen:0
            X509v3 Key Usage: critical
                Digital Signature, Certificate Sign, CRL Sign
    Signature Algorithm: sha256WithRSAEncryption
         39:42:77:89:e6:9c:97:af:ce:a4:4f:d9:2a:f6:ed:db:b4:7d:
         62:de:51:3c:9f:7b:28:f0:87:fe:d1:e8:ff:c0:02:09:dd:78:
         ed:e7:f8:5d:29:92:26:a3:92:7c:82:f3:dd:cf:10:b9:f2:d6:
         89:dd:90:bc:9c:ef:a0:e1:7c:62:9b:f0:21:79:77:c8:ce:09:
         2a:57:c5:4b:96:fc:73:5a:ec:f2:64:f9:6d:96:2b:4b:ad:44:
         04:cd:5c:6b:04:06:a8:c7:32:80:b5:5b:50:0c:6c:07:c3:70:
         a7:5b:5f:67:23:8b:5a:c5:54:52:63:67:19:19:f4:2b:eb:42:
         c1:53:03:96:a6:2a:86:01:0c:96:9d:ad:c2:04:f2:ad:6c:dc:
         b9:47:06:12:6b:13:8d:cd:5f:1e:99:95:25:8b:c1:bb:1b:73:
         82:4a:17:82:4c:2c:26:74:a5:47:a3:e0:c6:fc:b8:18:4a:44:
         c3:d9:ac:b1:7a:0c:92:6f:10:dd:5a:19:46:5a:d1:48:77:56:
         ee:5c:20:1a:29:fe:fb:6f:2f:c1:e6:4b:f1:4b:aa:74:01:fe:
         75:b0:7a:06:30:ab:7d:ee:9c:9e:ee:a3:a5:73:a7:f3:2b:72:
         18:75:48:29:ae:b5:c0:f3:7d:c1:87:f7:49:96:b2:c7:dc:27:
         56:00:c6:e0:d1:84:52:ff:89:d7:09:19:77:af:5a:0f:39:7c:
         49:04:02:35:b8:1d:e6:67:74:27:d6:84:f4:74:65:81:0f:bb:
         79:1b:b6:75:87:ee:c5:0a:5a:33:81:3b:53:8a:7d:f8:63:0a:
         c7:4e:ca:a0:34:22:23:f6:eb:52:c4:24:fb:96:29:51:ab:61:
         8b:3c:b3:5b:75:2a:d5:0a:4a:6b:68:de:81:f7:a2:d5:07:a1:
         19:24:3a:d4:90:80:86:6f:eb:02:01:32:70:4a:a0:56:eb:1f:
         bc:c4:ab:cb:00:22:85:34:0a:f6:d2:bd:d5:76:10:6c:f9:73:
         ec:15:cf:81:46:50:32:0e:03:fe:11:b7:21:dc:e0:c2:65:b7:
         f0:52:60:98:7a:76:24:b0:20:af:64:3e:b1:66:53:9f:e8:25:
         6c:c3:28:8c:ac:44:88:d2:1d:17:85:94:9c:b8:c2:80:6a:24:
         a8:ca:2b:cb:55:ad:02:3b:9d:be:f5:66:d9:85:bb:ef:75:f2:
         8d:f1:93:3a:51:b6:50:0a:81:07:77:a9:e3:c0:f6:ca:ca:77:
         a9:b9:de:56:bd:73:d9:78:d6:73:e0:ff:7a:47:74:2e:5c:17:
         60:60:68:bd:36:c7:d6:8a:b5:8f:58:6e:31:19:86:96:a0:1d:
         56:83:6a:43:28:56:9f:5a
-----BEGIN CERTIFICATE-----
MIIF6zCCA9OgAwIBAgICEAIwDQYJKoZIhvcNAQELBQAwgYUxCzAJBgNVBAYTAkNa
MRowGAYDVQQIDBFKaWhvbW9yYXZza3kga3JhajENMAsGA1UEBwwEQnJubzEjMCEG
A1UECgwaT3BlblN0YWNrIENvbW1vbiBMaWJyYXJpZXMxFDASBgNVBAsMC0VuZ2lu
ZWVyaW5nMRAwDgYDVQQDDAdSb290IENBMB4XDTE4MDgxNDE2MTYxMVoXDTI4MDgx
MTE2MTYxMVowgYIxCzAJBgNVBAYTAkNaMRowGAYDVQQIDBFKaWhvbW9yYXZza3kg
a3JhajEjMCEGA1UECgwaT3BlblN0YWNrIENvbW1vbiBMaWJyYXJpZXMxFDASBgNV
BAsMC0VuZ2luZWVyaW5nMRwwGgYDVQQDDBNJbnRlcm1lZGlhdGUgQ0EgMDAyMIIC
IjANBgkqhkiG9w0BAQEFAAOCAg8AMIICCgKCAgEAwqHxSc7HTgjO0U/RUBz2ewyj
ytHEatONBIRR9YImjhDe+PaiIgIj+rBhLmJ7uKqEZhnQ3NNCUDMXX9iNwXLmhCaC
OWctwSES5/SsXJDGp/9oGtPwZowvK98zP+rVWZvsDCnc2JdiQmuuSOhye12pgIlQ
WvkZ4bJFHpbPTjgfrMtT0sTmgMqmKlJzfvjyZuy4jSlGnqqBkXz/cUevqvnDE2VX
YWfuMUIBPRehozcCNQ5zH3t/HoXEN50fUbaUlSfLnV0eXLhLg2yrhOxsDK6nI57D
T0EeXS7tfzePQv3j/m1dd83Js4LOTOVHPSkiuoTTr/Y0uPNohBviUT6/FyVyUIpC
NnByDhUuyJsFFDtIQ1MPwetZXRr3PlOy8iHH6FJiS1P+ufjQj2ouArUzJ/8JrHt/
MWzOusK11iat392Nnymv/Tk6Yl9db1A6Ne4BFnb2m8YK7zriULqBE/2eyEHyx2BU
0dke5rcBo0+YpKeCiGWAHq7VJi+IiakAjoCGktUqB1QoBE7l/MNqQ5VxeKK3G8bb
tjgzxOKvSR2n54k8zG96HY86tEcS9fRuuPeUz32QegE+uIOVRj0gJRdXapGxNaI5
lEkZn6L/aw0/+V7+qQH9iJ0oKHVMLV9zvDbMr9+49SWk4pWJVnvyxmn9Z0DyB8fW
yMClPOhXSb4nOWe7HZUCAwEAAaNmMGQwHQYDVR0OBBYEFLyi+YrpAvf8Q7eaHegP
3MdzJC0gMB8GA1UdIwQYMBaAFJODSJIjtsPapxWFCEF1MGeXpdScMBIGA1UdEwEB
/wQIMAYBAf8CAQAwDgYDVR0PAQH/BAQDAgGGMA0GCSqGSIb3DQEBCwUAA4ICAQA5
QneJ5pyXr86kT9kq9u3btH1i3lE8n3so8If+0ej/wAIJ3Xjt5/hdKZImo5J8gvPd
zxC58taJ3ZC8nO+g4Xxim/AheXfIzgkqV8VLlvxzWuzyZPltlitLrUQEzVxrBAao
xzKAtVtQDGwHw3CnW19nI4taxVRSY2cZGfQr60LBUwOWpiqGAQyWna3CBPKtbNy5
RwYSaxONzV8emZUli8G7G3OCSheCTCwmdKVHo+DG/LgYSkTD2ayxegySbxDdWhlG
WtFId1buXCAaKf77by/B5kvxS6p0Af51sHoGMKt97pye7qOlc6fzK3IYdUgprrXA
833Bh/dJlrLH3CdWAMbg0YRS/4nXCRl3r1oPOXxJBAI1uB3mZ3Qn1oT0dGWBD7t5
G7Z1h+7FClozgTtTin34YwrHTsqgNCIj9utSxCT7lilRq2GLPLNbdSrVCkpraN6B
96LVB6EZJDrUkICGb+sCATJwSqBW6x+8xKvLACKFNAr20r3VdhBs+XPsFc+BRlAy
DgP+Ebch3ODCZbfwUmCYenYksCCvZD6xZlOf6CVswyiMrESI0h0XhZScuMKAaiSo
yivLVa0CO52+9WbZhbvvdfKN8ZM6UbZQCoEHd6njwPbKynepud5WvXPZeNZz4P96
R3QuXBdgYGi9NsfWirWPWG4xGYaWoB1Wg2pDKFafWg==
-----END CERTIFICATE-----
