Certificate:
    Data:
        Version: 3 (0x2)
        Serial Number: 4097 (0x1001)
    Signature Algorithm: sha256WithRSAEncryption
        Issuer: C=CZ, ST=Jihomoravsky kraj, O=OpenStack Common Libraries, OU=Engineering, CN=Intermediate CA 002
        Validity
            Not Before: Aug 14 16:16:14 2018 GMT
            Not After : Sep  4 16:16:14 2018 GMT
        Subject: C=CZ, ST=Jihomoravsky kraj, L=Brno, O=OpenStack Common Libraries, OU=Engineering, CN=Node 002002
        Subject Public Key Info:
            Public Key Algorithm: rsaEncryption
                Public-Key: (2048 bit)
                Modulus:
                    00:c1:43:6b:6f:f8:42:b8:f4:73:5c:02:f2:49:eb:
                    8d:11:41:58:46:a3:71:78:4b:a9:d3:99:03:04:09:
                    22:48:45:2e:e7:8e:07:bb:19:1f:1f:fb:27:bc:72:
                    29:68:01:f2:1e:06:18:cc:52:cf:2b:2d:f8:f8:3d:
                    ae:c2:1c:70:34:17:70:26:b6:b7:5d:ba:d4:c0:d1:
                    4c:2e:e3:b1:81:f6:1d:9f:2e:7c:b4:9f:12:c8:2b:
                    ea:33:dc:af:92:f7:35:35:e9:f2:2b:37:5c:b3:ad:
                    a3:34:ac:bb:33:ed:e0:6d:37:e3:ea:eb:12:ea:ce:
                    94:c5:0e:5c:7a:f6:fa:53:3b:e1:94:b3:e1:87:eb:
                    3a:2a:00:05:d2:cf:66:5c:f6:d1:9b:18:70:53:99:
                    b0:b7:78:5f:e2:d8:c0:f7:0e:84:ca:24:ea:79:03:
                    32:5f:1c:0f:2e:d5:c8:d4:d9:a9:63:c7:76:6d:b9:
                    f9:8f:cd:93:fb:3f:8a:40:ed:71:d3:c6:8c:b0:04:
                    90:9d:8b:a7:69:5b:8d:38:f9:51:8b:61:19:a1:ef:
                    f3:0b:30:ae:ef:7e:45:c9:47:cd:9d:d6:1c:84:7c:
                    8e:55:ff:15:76:0e:6a:25:0d:90:30:b2:a8:8d:09:
                    b2:fb:03:f3:92:3e:8f:ac:55:3b:30:26:f5:cd:01:
                    55:9f
                Exponent: 65537 (0x10001)
        X509v3 extensions:
            X509v3 Basic Constraints: 
                CA:FALSE
            Netscape Cert Type: 
                SSL Client, S/MIME
            Netscape Comment: 
                OpenSSL Generated Client Certificate
            X509v3 Subject Key Identifier: 
                25:CD:F7:61:24:56:D4:0C:D6:CB:9A:69:FB:38:84:06:4F:7A:39:C9
            X509v3 Authority Key Identifier: 
                keyid:BC:A2:F9:8A:E9:02:F7:FC:43:B7:9A:1D:E8:0F:DC:C7:73:24:2D:20

            X509v3 Key Usage: critical
                Digital Signature, Non Repudiation, Key Encipherment
            X509v3 Extended Key Usage: 
                TLS Web Client Authentication, E-mail Protection
    Signature Algorithm: sha256WithRSAEncryption
         63:b6:c1:a4:05:fa:a6:5a:d5:d0:5e:70:d3:33:49:6c:ab:d0:
         94:1e:2e:a1:50:38:01:4a:94:0b:1e:bc:5c:af:bb:98:1e:e7:
         db:8f:0f:37:19:b4:d2:6c:f2:4d:4b:66:5c:d3:0e:2c:62:8a:
         18:0b:13:de:30:dc:a3:75:fc:09:8b:a3:a8:a1:8b:72:0e:a3:
         d1:93:57:62:d8:9d:7b:47:6a:53:55:09:27:9f:cf:b6:2d:85:
         4f:64:66:78:5c:6c:f7:c2:3a:f7:c8:a3:65:01:a8:27:f4:50:
         62:b0:d6:ce:1c:d4:98:25:e2:62:a3:30:80:65:2c:77:73:be:
         8c:8f:56:8b:84:cf:e1:ba:80:38:c1:50:5a:04:a0:ff:64:09:
         f7:be:6b:06:3d:fb:64:51:22:78:54:ae:4b:e6:3b:68:e7:d9:
         fe:07:71:7d:36:c1:53:6b:b4:83:42:fc:8b:c2:5d:28:23:99:
         97:e4:1d:a3:fc:7b:79:4d:6c:78:c2:a8:e9:94:bf:ee:09:21:
         a1:ec:ab:00:9b:6c:f4:34:0d:6c:f0:69:8b:26:ba:d5:0b:08:
         fb:bb:89:4b:86:87:54:9b:d9:04:f1:24:41:53:b2:de:d6:a5:
         d1:9b:da:52:cc:50:7b:69:66:10:4f:50:ba:30:da:1c:e6:54:
         7a:14:6a:cf:8e:32:35:36:9d:84:dc:5a:0e:01:1a:95:9a:4f:
         3e:a8:02:de:a3:6e:09:28:15:dd:de:f8:9a:f6:f7:36:8c:57:
         7b:ad:2f:34:e5:3c:f0:74:5c:ce:02:04:8d:1d:a9:9a:b5:6d:
         51:e7:a5:d3:52:36:f9:a5:23:a4:1b:a1:63:f2:c4:ae:dd:f5:
         ab:d4:0e:0e:78:89:44:01:9e:cf:67:1e:ae:6e:21:c7:d6:cc:
         9b:49:22:6a:d8:df:24:50:f3:de:4d:e9:df:4f:6f:49:8b:bd:
         d6:8e:e7:f6:c2:fd:5f:42:73:47:0e:7e:18:b7:ae:f4:65:6a:
         3f:9c:12:01:44:25:e3:c2:c3:76:39:27:51:f6:e5:8c:1a:ff:
         c3:49:78:b1:2f:69:72:b6:7f:04:85:3c:6e:ff:57:78:aa:44:
         45:39:78:69:67:a4:a8:91:82:90:ee:39:d9:89:35:4e:ef:73:
         86:fe:cd:b3:b1:34:2e:87:af:1c:7c:be:24:38:3e:e3:57:cc:
         2f:60:1e:cb:61:a2:2d:ec:f6:33:24:26:00:1d:f6:36:29:d8:
         04:2d:e1:9d:99:36:0f:03:71:55:db:ee:e2:57:d6:3e:9a:17:
         9b:25:c4:93:5a:d3:4b:fb:19:3e:be:70:1c:16:c3:e4:ac:2d:
         61:03:ef:3c:1f:d8:46:01
-----BEGIN CERTIFICATE-----
MIIFTzCCAzegAwIBAgICEAEwDQYJKoZIhvcNAQELBQAwgYIxCzAJBgNVBAYTAkNa
MRowGAYDVQQIDBFKaWhvbW9yYXZza3kga3JhajEjMCEGA1UECgwaT3BlblN0YWNr
IENvbW1vbiBMaWJyYXJpZXMxFDASBgNVBAsMC0VuZ2luZWVyaW5nMRwwGgYDVQQD
DBNJbnRlcm1lZGlhdGUgQ0EgMDAyMB4XDTE4MDgxNDE2MTYxNFoXDTE4MDkwNDE2
MTYxNFowgYkxCzAJBgNVBAYTAkNaMRowGAYDVQQIDBFKaWhvbW9yYXZza3kga3Jh
ajENMAsGA1UEBwwEQnJubzEjMCEGA1UECgwaT3BlblN0YWNrIENvbW1vbiBMaWJy
YXJpZXMxFDASBgNVBAsMC0VuZ2luZWVyaW5nMRQwEgYDVQQDDAtOb2RlIDAwMjAw
MjCCASIwDQYJKoZIhvcNAQEBBQADggEPADCCAQoCggEBAMFDa2/4Qrj0c1wC8knr
jRFBWEajcXhLqdOZAwQJIkhFLueOB7sZHx/7J7xyKWgB8h4GGMxSzyst+Pg9rsIc
cDQXcCa2t1261MDRTC7jsYH2HZ8ufLSfEsgr6jPcr5L3NTXp8is3XLOtozSsuzPt
4G034+rrEurOlMUOXHr2+lM74ZSz4YfrOioABdLPZlz20ZsYcFOZsLd4X+LYwPcO
hMok6nkDMl8cDy7VyNTZqWPHdm25+Y/Nk/s/ikDtcdPGjLAEkJ2Lp2lbjTj5UYth
GaHv8wswru9+RclHzZ3WHIR8jlX/FXYOaiUNkDCyqI0JsvsD85I+j6xVOzAm9c0B
VZ8CAwEAAaOBxTCBwjAJBgNVHRMEAjAAMBEGCWCGSAGG+EIBAQQEAwIFoDAzBglg
hkgBhvhCAQ0EJhYkT3BlblNTTCBHZW5lcmF0ZWQgQ2xpZW50IENlcnRpZmljYXRl
MB0GA1UdDgQWBBQlzfdhJFbUDNbLmmn7OIQGT3o5yTAfBgNVHSMEGDAWgBS8ovmK
6QL3/EO3mh3oD9zHcyQtIDAOBgNVHQ8BAf8EBAMCBeAwHQYDVR0lBBYwFAYIKwYB
BQUHAwIGCCsGAQUFBwMEMA0GCSqGSIb3DQEBCwUAA4ICAQBjtsGkBfqmWtXQXnDT
M0lsq9CUHi6hUDgBSpQLHrxcr7uYHufbjw83GbTSbPJNS2Zc0w4sYooYCxPeMNyj
dfwJi6OooYtyDqPRk1di2J17R2pTVQknn8+2LYVPZGZ4XGz3wjr3yKNlAagn9FBi
sNbOHNSYJeJiozCAZSx3c76Mj1aLhM/huoA4wVBaBKD/ZAn3vmsGPftkUSJ4VK5L
5jto59n+B3F9NsFTa7SDQvyLwl0oI5mX5B2j/Ht5TWx4wqjplL/uCSGh7KsAm2z0
NA1s8GmLJrrVCwj7u4lLhodUm9kE8SRBU7Le1qXRm9pSzFB7aWYQT1C6MNoc5lR6
FGrPjjI1Np2E3FoOARqVmk8+qALeo24JKBXd3via9vc2jFd7rS805TzwdFzOAgSN
HamatW1R56XTUjb5pSOkG6Fj8sSu3fWr1A4OeIlEAZ7PZx6ubiHH1sybSSJq2N8k
UPPeTenfT29Ji73Wjuf2wv1fQnNHDn4Yt670ZWo/nBIBRCXjwsN2OSdR9uWMGv/D
SXixL2lytn8EhTxu/1d4qkRFOXhpZ6SokYKQ7jnZiTVO73OG/s2zsTQuh68cfL4k
OD7jV8wvYB7LYaIt7PYzJCYAHfY2KdgELeGdmTYPA3FV2+7iV9Y+mhebJcSTWtNL
+xk+vnAcFsPkrC1hA+88H9hGAQ==
-----END CERTIFICATE-----
Certificate:
    Data:
        Version: 3 (0x2)
        Serial Number: 4098 (0x1002)
    Signature Algorithm: sha256WithRSAEncryption
        Issuer: C=CZ, ST=Jihomoravsky kraj, L=Brno, O=OpenStack Common Libraries, OU=Engineering, CN=Root CA
        Validity
            Not Before: Aug 14 16:16:11 2018 GMT
            Not After : Aug 11 16:16:11 2028 GMT
        Subject: C=CZ, ST=Jihomoravsky kraj, O=OpenStack Common Libraries, OU=Engineering, CN=Intermediate CA 002
        Subject Public Key Info:
            Public Key Algorithm: rsaEncryption
                Public-Key: (4096 bit)
                Modulus:
                    00:c2:a1:f1:49:ce:c7:4e:08:ce:d1:4f:d1:50:1c:
                    f6:7b:0c:a3:ca:d1:c4:6a:d3:8d:04:84:51:f5:82:
                    26:8e:10:de:f8:f6:a2:22:02:23:fa:b0:61:2e:62:
                    7b:b8:aa:84:66:19:d0:dc:d3:42:50:33:17:5f:d8:
                    8d:c1:72:e6:84:26:82:39:67:2d:c1:21:12:e7:f4:
                    ac:5c:90:c6:a7:ff:68:1a:d3:f0:66:8c:2f:2b:df:
                    33:3f:ea:d5:59:9b:ec:0c:29:dc:d8:97:62:42:6b:
                    ae:48:e8:72:7b:5d:a9:80:89:50:5a:f9:19:e1:b2:
                    45:1e:96:cf:4e:38:1f:ac:cb:53:d2:c4:e6:80:ca:
                    a6:2a:52:73:7e:f8:f2:66:ec:b8:8d:29:46:9e:aa:
                    81:91:7c:ff:71:47:af:aa:f9:c3:13:65:57:61:67:
                    ee:31:42:01:3d:17:a1:a3:37:02:35:0e:73:1f:7b:
                    7f:1e:85:c4:37:9d:1f:51:b6:94:95:27:cb:9d:5d:
                    1e:5c:b8:4b:83:6c:ab:84:ec:6c:0c:ae:a7:23:9e:
                    c3:4f:41:1e:5d:2e:ed:7f:37:8f:42:fd:e3:fe:6d:
                    5d:77:cd:c9:b3:82:ce:4c:e5:47:3d:29:22:ba:84:
                    d3:af:f6:34:b8:f3:68:84:1b:e2:51:3e:bf:17:25:
                    72:50:8a:42:36:70:72:0e:15:2e:c8:9b:05:14:3b:
                    48:43:53:0f:c1:eb:59:5d:1a:f7:3e:53:b2:f2:21:
                    c7:e8:52:62:4b:53:fe:b9:f8:d0:8f:6a:2e:02:b5:
                    33:27:ff:09:ac:7b:7f:31:6c:ce:ba:c2:b5:d6:26:
                    ad:df:dd:8d:9f:29:af:fd:39:3a:62:5f:5d:6f:50:
                    3a:35:ee:01:16:76:f6:9b:c6:0a:ef:3a:e2:50:ba:
                    81:13:fd:9e:c8:41:f2:c7:60:54:d1:d9:1e:e6:b7:
                    01:a3:4f:98:a4:a7:82:88:65:80:1e:ae:d5:26:2f:
                    88:89:a9:00:8e:80:86:92:d5:2a:07:54:28:04:4e:
                    e5:fc:c3:6a:43:95:71:78:a2:b7:1b:c6:db:b6:38:
                    33:c4:e2:af:49:1d:a7:e7:89:3c:cc:6f:7a:1d:8f:
                    3a:b4:47:12:f5:f4:6e:b8:f7:94:cf:7d:90:7a:01:
                    3e:b8:83:95:46:3d:20:25:17:57:6a:91:b1:35:a2:
                    39:94:49:19:9f:a2:ff:6b:0d:3f:f9:5e:fe:a9:01:
                    fd:88:9d:28:28:75:4c:2d:5f:73:bc:36:cc:af:df:
                    b8:f5:25:a4:e2:95:89:56:7b:f2:c6:69:fd:67:40:
                    f2:07:c7:d6:c8:c0:a5:3c:e8:57:49:be:27:39:67:
                    bb:1d:95
                Exponent: 65537 (0x10001)
        X509v3 extensions:
            X509v3 Subject Key Identifier: 
                BC:A2:F9:8A:E9:02:F7:FC:43:B7:9A:1D:E8:0F:DC:C7:73:24:2D:20
            X509v3 Authority Key Identifier: 
                keyid:93:83:48:92:23:B6:C3:DA:A7:15:85:08:41:75:30:67:97:A5:D4:9C

            X509v3 Basic Constraints: critical
                CA:TRUE, pathlen:0
            X509v3 Key Usage: critical
                Digital Signature, Certificate Sign, CRL Sign
    Signature Algorithm: sha256WithRSAEncryption
         39:42:77:89:e6:9c:97:af:ce:a4:4f:d9:2a:f6:ed:db:b4:7d:
         62:de:51:3c:9f:7b:28:f0:87:fe:d1:e8:ff:c0:02:09:dd:78:
         ed:e7:f8:5d:29:92:26:a3:92:7c:82:f3:dd:cf:10:b9:f2:d6:
         89:dd:90:bc:9c:ef:a0:e1:7c:62:9b:f0:21:79:77:c8:ce:09:
         2a:57:c5:4b:96:fc:73:5a:ec:f2:64:f9:6d:96:2b:4b:ad:44:
         04:cd:5c:6b:04:06:a8:c7:32:80:b5:5b:50:0c:6c:07:c3:70:
         a7:5b:5f:67:23:8b:5a:c5:54:52:63:67:19:19:f4:2b:eb:42:
         c1:53:03:96:a6:2a:86:01:0c:96:9d:ad:c2:04:f2:ad:6c:dc:
         b9:47:06:12:6b:13:8d:cd:5f:1e:99:95:25:8b:c1:bb:1b:73:
         82:4a:17:82:4c:2c:26:74:a5:47:a3:e0:c6:fc:b8:18:4a:44:
         c3:d9:ac:b1:7a:0c:92:6f:10:dd:5a:19:46:5a:d1:48:77:56:
         ee:5c:20:1a:29:fe:fb:6f:2f:c1:e6:4b:f1:4b:aa:74:01:fe:
         75:b0:7a:06:30:ab:7d:ee:9c:9e:ee:a3:a5:73:a7:f3:2b:72:
         18:75:48:29:ae:b5:c0:f3:7d:c1:87:f7:49:96:b2:c7:dc:27:
         56:00:c6:e0:d1:84:52:ff:89:d7:09:19:77:af:5a:0f:39:7c:
         49:04:02:35:b8:1d:e6:67:74:27:d6:84:f4:74:65:81:0f:bb:
         79:1b:b6:75:87:ee:c5:0a:5a:33:81:3b:53:8a:7d:f8:63:0a:
         c7:4e:ca:a0:34:22:23:f6:eb:52:c4:24:fb:96:29:51:ab:61:
         8b:3c:b3:5b:75:2a:d5:0a:4a:6b:68:de:81:f7:a2:d5:07:a1:
         19:24:3a:d4:90:80:86:6f:eb:02:01:32:70:4a:a0:56:eb:1f:
         bc:c4:ab:cb:00:22:85:34:0a:f6:d2:bd:d5:76:10:6c:f9:73:
         ec:15:cf:81:46:50:32:0e:03:fe:11:b7:21:dc:e0:c2:65:b7:
         f0:52:60:98:7a:76:24:b0:20:af:64:3e:b1:66:53:9f:e8:25:
         6c:c3:28:8c:ac:44:88:d2:1d:17:85:94:9c:b8:c2:80:6a:24:
         a8:ca:2b:cb:55:ad:02:3b:9d:be:f5:66:d9:85:bb:ef:75:f2:
         8d:f1:93:3a:51:b6:50:0a:81:07:77:a9:e3:c0:f6:ca:ca:77:
         a9:b9:de:56:bd:73:d9:78:d6:73:e0:ff:7a:47:74:2e:5c:17:
         60:60:68:bd:36:c7:d6:8a:b5:8f:58:6e:31:19:86:96:a0:1d:
         56:83:6a:43:28:56:9f:5a
-----BEGIN CERTIFICATE-----
MIIF6zCCA9OgAwIBAgICEAIwDQYJKoZIhvcNAQELBQAwgYUxCzAJBgNVBAYTAkNa
MRowGAYDVQQIDBFKaWhvbW9yYXZza3kga3JhajENMAsGA1UEBwwEQnJubzEjMCEG
A1UECgwaT3BlblN0YWNrIENvbW1vbiBMaWJyYXJpZXMxFDASBgNVBAsMC0VuZ2lu
ZWVyaW5nMRAwDgYDVQQDDAdSb290IENBMB4XDTE4MDgxNDE2MTYxMVoXDTI4MDgx
MTE2MTYxMVowgYIxCzAJBgNVBAYTAkNaMRowGAYDVQQIDBFKaWhvbW9yYXZza3kg
a3JhajEjMCEGA1UECgwaT3BlblN0YWNrIENvbW1vbiBMaWJyYXJpZXMxFDASBgNV
BAsMC0VuZ2luZWVyaW5nMRwwGgYDVQQDDBNJbnRlcm1lZGlhdGUgQ0EgMDAyMIIC
IjANBgkqhkiG9w0BAQEFAAOCAg8AMIICCgKCAgEAwqHxSc7HTgjO0U/RUBz2ewyj
ytHEatONBIRR9YImjhDe+PaiIgIj+rBhLmJ7uKqEZhnQ3NNCUDMXX9iNwXLmhCaC
OWctwSES5/SsXJDGp/9oGtPwZowvK98zP+rVWZvsDCnc2JdiQmuuSOhye12pgIlQ
WvkZ4bJFHpbPTjgfrMtT0sTmgMqmKlJzfvjyZuy4jSlGnqqBkXz/cUevqvnDE2VX
YWfuMUIBPRehozcCNQ5zH3t/HoXEN50fUbaUlSfLnV0eXLhLg2yrhOxsDK6nI57D
T0EeXS7tfzePQv3j/m1dd83Js4LOTOVHPSkiuoTTr/Y0uPNohBviUT6/FyVyUIpC
NnByDhUuyJsFFDtIQ1MPwetZXRr3PlOy8iHH6FJiS1P+ufjQj2ouArUzJ/8JrHt/
MWzOusK11iat392Nnymv/Tk6Yl9db1A6Ne4BFnb2m8YK7zriULqBE/2eyEHyx2BU
0dke5rcBo0+YpKeCiGWAHq7VJi+IiakAjoCGktUqB1QoBE7l/MNqQ5VxeKK3G8bb
tjgzxOKvSR2n54k8zG96HY86tEcS9fRuuPeUz32QegE+uIOVRj0gJRdXapGxNaI5
lEkZn6L/aw0/+V7+qQH9iJ0oKHVMLV9zvDbMr9+49SWk4pWJVnvyxmn9Z0DyB8fW
yMClPOhXSb4nOWe7HZUCAwEAAaNmMGQwHQYDVR0OBBYEFLyi+YrpAvf8Q7eaHegP
3MdzJC0gMB8GA1UdIwQYMBaAFJODSJIjtsPapxWFCEF1MGeXpdScMBIGA1UdEwEB
/wQIMAYBAf8CAQAwDgYDVR0PAQH/BAQDAgGGMA0GCSqGSIb3DQEBCwUAA4ICAQA5
QneJ5pyXr86kT9kq9u3btH1i3lE8n3so8If+0ej/wAIJ3Xjt5/hdKZImo5J8gvPd
zxC58taJ3ZC8nO+g4Xxim/AheXfIzgkqV8VLlvxzWuzyZPltlitLrUQEzVxrBAao
xzKAtVtQDGwHw3CnW19nI4taxVRSY2cZGfQr60LBUwOWpiqGAQyWna3CBPKtbNy5
RwYSaxONzV8emZUli8G7G3OCSheCTCwmdKVHo+DG/LgYSkTD2ayxegySbxDdWhlG
WtFId1buXCAaKf77by/B5kvxS6p0Af51sHoGMKt97pye7qOlc6fzK3IYdUgprrXA
833Bh/dJlrLH3CdWAMbg0YRS/4nXCRl3r1oPOXxJBAI1uB3mZ3Qn1oT0dGWBD7t5
G7Z1h+7FClozgTtTin34YwrHTsqgNCIj9utSxCT7lilRq2GLPLNbdSrVCkpraN6B
96LVB6EZJDrUkICGb+sCATJwSqBW6x+8xKvLACKFNAr20r3VdhBs+XPsFc+BRlAy
DgP+Ebch3ODCZbfwUmCYenYksCCvZD6xZlOf6CVswyiMrESI0h0XhZScuMKAaiSo
yivLVa0CO52+9WbZhbvvdfKN8ZM6UbZQCoEHd6njwPbKynepud5WvXPZeNZz4P96
R3QuXBdgYGi9NsfWirWPWG4xGYaWoB1Wg2pDKFafWg==
-----END CERTIFICATE-----
