Certificate:
    Data:
        Version: 3 (0x2)
        Serial Number: 4096 (0x1000)
    Signature Algorithm: sha256WithRSAEncryption
        Issuer: C=CZ, ST=Jihomoravsky kraj, O=OpenStack Common Libraries, OU=Engineering, CN=Intermediate CA 002
        Validity
            Not Before: Aug 10 16:28:16 2018 GMT
            Not After : Aug 31 16:28:16 2018 GMT
        Subject: C=CZ, ST=Jihomoravsky kraj, L=Brno, O=OpenStack Common Libraries, OU=Engineering, CN=Node 002001
        Subject Public Key Info:
            Public Key Algorithm: rsaEncryption
                Public-Key: (2048 bit)
                Modulus:
                    00:ca:e1:24:f7:ce:b2:68:71:7a:ef:7f:65:f9:c8:
                    b7:60:4a:55:92:13:c9:68:80:45:e5:c3:00:df:c0:
                    a1:73:a3:15:f0:6b:d4:ac:ce:79:c3:0d:f9:1b:f5:
                    a4:00:bb:63:5c:32:5f:19:77:26:4f:83:75:5f:c4:
                    b2:15:76:30:08:98:83:01:fa:9d:b7:fe:98:2e:3c:
                    28:93:fa:f5:b7:5c:48:1b:1c:3b:0d:72:f8:81:62:
                    58:e0:f2:9e:e3:75:cd:01:aa:42:85:5c:f4:68:00:
                    7f:78:6f:cf:c9:c1:b5:1d:cf:26:68:83:7a:da:fd:
                    91:79:14:08:c8:47:a2:b0:42:86:f6:e2:2e:57:84:
                    76:9d:40:1c:00:da:bd:57:89:95:8e:f6:f2:0f:49:
                    4d:d8:94:6c:3c:9f:6e:35:ae:5d:6e:0c:42:ca:84:
                    f4:7d:7c:2c:57:93:87:c7:bf:19:bc:ca:13:5f:01:
                    07:9c:cc:09:4b:cf:29:63:ff:49:b6:01:08:18:7a:
                    7f:81:fd:61:db:49:df:e9:bb:f6:26:1d:5f:1e:51:
                    23:2e:58:0a:10:24:e4:e0:3f:68:41:27:bc:40:22:
                    99:5e:a3:14:1c:33:15:27:a6:9f:dc:1a:69:7e:67:
                    3d:33:2f:97:8e:22:6b:b7:c1:55:2a:52:bd:5b:55:
                    f0:0b
                Exponent: 65537 (0x10001)
        X509v3 extensions:
            X509v3 Basic Constraints: 
                CA:FALSE
            Netscape Cert Type: 
                SSL Client, S/MIME
            Netscape Comment: 
                OpenSSL Generated Client Certificate
            X509v3 Subject Key Identifier: 
                D6:25:71:F3:4B:A3:7F:CF:F0:63:BD:38:C3:CD:AE:79:3B:69:B4:DF
            X509v3 Authority Key Identifier: 
                keyid:B9:E4:F8:9F:A3:6E:3A:7D:13:BE:FB:0A:92:2C:80:8B:A0:99:5E:B9

            X509v3 Key Usage: critical
                Digital Signature, Non Repudiation, Key Encipherment
            X509v3 Extended Key Usage: 
                TLS Web Client Authentication, E-mail Protection
    Signature Algorithm: sha256WithRSAEncryption
         6e:43:4f:49:27:ce:00:61:69:e8:83:0f:78:a5:7a:a8:57:7d:
         01:7a:fe:0d:d4:95:39:16:aa:3d:6f:03:b3:c5:8c:22:4c:32:
         ad:0c:f0:34:f9:4b:b8:f3:96:d6:26:d0:b1:83:f9:64:b4:1f:
         e9:2c:e7:00:c9:5a:c3:17:44:5a:5b:84:99:08:d7:4b:2f:0e:
         dd:f3:25:51:af:fc:7f:1b:6e:2e:36:58:1b:6e:3e:1d:c2:fc:
         bb:13:de:c3:de:b4:0f:2f:ac:86:20:31:84:67:82:bd:0d:52:
         89:04:23:3b:34:87:07:31:fb:23:13:4a:40:c9:27:bb:da:ab:
         4e:ff:df:7a:9f:e9:c0:b7:ee:90:3c:a5:5f:43:df:5c:8f:4c:
         95:76:49:ad:56:f9:07:4e:6e:dd:01:3b:a2:0f:67:6d:e9:e3:
         56:61:19:91:5a:82:66:d6:3a:fe:68:77:00:b3:e7:16:cf:3e:
         63:f6:7e:b3:03:53:07:cc:e3:90:61:55:d2:d4:78:12:55:3f:
         db:df:bf:15:54:0a:ac:2c:d3:7c:10:34:a9:90:17:ba:00:7e:
         7b:4e:a7:10:b1:46:f4:3b:2d:8d:dd:54:4e:7c:16:35:05:ef:
         b0:99:eb:f7:51:10:11:42:16:58:df:3a:90:90:8b:42:14:64:
         dd:10:73:1b
-----BEGIN CERTIFICATE-----
MIIETzCCAzegAwIBAgICEAAwDQYJKoZIhvcNAQELBQAwgYIxCzAJBgNVBAYTAkNa
MRowGAYDVQQIDBFKaWhvbW9yYXZza3kga3JhajEjMCEGA1UECgwaT3BlblN0YWNr
IENvbW1vbiBMaWJyYXJpZXMxFDASBgNVBAsMC0VuZ2luZWVyaW5nMRwwGgYDVQQD
DBNJbnRlcm1lZGlhdGUgQ0EgMDAyMB4XDTE4MDgxMDE2MjgxNloXDTE4MDgzMTE2
MjgxNlowgYkxCzAJBgNVBAYTAkNaMRowGAYDVQQIDBFKaWhvbW9yYXZza3kga3Jh
ajENMAsGA1UEBwwEQnJubzEjMCEGA1UECgwaT3BlblN0YWNrIENvbW1vbiBMaWJy
YXJpZXMxFDASBgNVBAsMC0VuZ2luZWVyaW5nMRQwEgYDVQQDDAtOb2RlIDAwMjAw
MTCCASIwDQYJKoZIhvcNAQEBBQADggEPADCCAQoCggEBAMrhJPfOsmhxeu9/ZfnI
t2BKVZITyWiAReXDAN/AoXOjFfBr1KzOecMN+Rv1pAC7Y1wyXxl3Jk+DdV/EshV2
MAiYgwH6nbf+mC48KJP69bdcSBscOw1y+IFiWODynuN1zQGqQoVc9GgAf3hvz8nB
tR3PJmiDetr9kXkUCMhHorBChvbiLleEdp1AHADavVeJlY728g9JTdiUbDyfbjWu
XW4MQsqE9H18LFeTh8e/GbzKE18BB5zMCUvPKWP/SbYBCBh6f4H9YdtJ3+m79iYd
Xx5RIy5YChAk5OA/aEEnvEAimV6jFBwzFSemn9waaX5nPTMvl44ia7fBVSpSvVtV
8AsCAwEAAaOBxTCBwjAJBgNVHRMEAjAAMBEGCWCGSAGG+EIBAQQEAwIFoDAzBglg
hkgBhvhCAQ0EJhYkT3BlblNTTCBHZW5lcmF0ZWQgQ2xpZW50IENlcnRpZmljYXRl
MB0GA1UdDgQWBBTWJXHzS6N/z/BjvTjDza55O2m03zAfBgNVHSMEGDAWgBS55Pif
o246fRO++wqSLICLoJleuTAOBgNVHQ8BAf8EBAMCBeAwHQYDVR0lBBYwFAYIKwYB
BQUHAwIGCCsGAQUFBwMEMA0GCSqGSIb3DQEBCwUAA4IBAQBuQ09JJ84AYWnogw94
pXqoV30Bev4N1JU5Fqo9bwOzxYwiTDKtDPA0+Uu485bWJtCxg/lktB/pLOcAyVrD
F0RaW4SZCNdLLw7d8yVRr/x/G24uNlgbbj4dwvy7E97D3rQPL6yGIDGEZ4K9DVKJ
BCM7NIcHMfsjE0pAySe72qtO/996n+nAt+6QPKVfQ99cj0yVdkmtVvkHTm7dATui
D2dt6eNWYRmRWoJm1jr+aHcAs+cWzz5j9n6zA1MHzOOQYVXS1HgSVT/b378VVAqs
LNN8EDSpkBe6AH57TqcQsUb0Oy2N3VROfBY1Be+wmev3URARQhZY3zqQkItCFGTd
EHMb
-----END CERTIFICATE-----
