Certificate:
    Data:
        Version: 3 (0x2)
        Serial Number: 4097 (0x1001)
    Signature Algorithm: sha256WithRSAEncryption
        Issuer: C=CZ, ST=Jihomoravsky kraj, O=OpenStack Common Libraries, OU=Engineering, CN=Intermediate CA 002
        Validity
            Not Before: Aug 10 16:28:17 2018 GMT
            Not After : Aug 31 16:28:17 2018 GMT
        Subject: C=CZ, ST=Jihomoravsky kraj, L=Brno, O=OpenStack Common Libraries, OU=Engineering, CN=Node 002002
        Subject Public Key Info:
            Public Key Algorithm: rsaEncryption
                Public-Key: (2048 bit)
                Modulus:
                    00:db:4c:18:bc:1f:07:f6:62:34:45:4d:e3:9e:89:
                    b6:9e:5c:c6:e3:d6:a3:78:7c:e5:cd:6d:a3:a4:0a:
                    68:d1:4a:b3:5b:fe:81:77:49:ee:18:83:09:48:f7:
                    24:dd:8b:45:37:43:73:41:79:ed:93:2f:8f:8b:68:
                    42:ce:a5:99:a5:88:bd:7e:cf:75:b2:64:f5:99:a2:
                    c3:6e:c4:ee:85:5e:83:56:1e:df:55:9d:f2:e2:56:
                    07:b4:58:97:d3:5b:bb:cd:b6:dd:d0:9d:57:fb:e7:
                    74:4e:c1:ad:d8:a1:bf:ca:8f:78:c4:e5:2d:88:c0:
                    a8:29:86:61:9f:a9:06:c2:49:4d:07:f9:f4:39:23:
                    62:71:47:c6:72:88:f3:d3:4b:ca:0a:a2:e4:24:e2:
                    4d:94:1c:06:08:30:c5:27:78:e0:8a:0d:3f:7e:27:
                    ec:11:de:cd:7d:24:af:82:77:3f:50:47:3f:ff:59:
                    7f:9b:ad:ea:87:7f:63:8e:e8:9a:47:26:8f:72:0a:
                    3a:95:de:8b:09:c1:4c:9f:15:46:07:e7:2b:8e:2e:
                    0d:f8:27:70:9b:f1:a5:a2:3f:9a:05:ba:02:19:ab:
                    2b:91:ff:ec:24:80:80:86:23:73:6c:d2:70:80:79:
                    62:87:6d:ce:29:01:24:50:29:50:54:3c:64:a8:bb:
                    4e:69
                Exponent: 65537 (0x10001)
        X509v3 extensions:
            X509v3 Basic Constraints: 
                CA:FALSE
            Netscape Cert Type: 
                SSL Client, S/MIME
            Netscape Comment: 
                OpenSSL Generated Client Certificate
            X509v3 Subject Key Identifier: 
                F8:5A:53:44:8B:9A:42:3F:5C:27:58:74:F4:9B:42:5F:4B:C7:91:30
            X509v3 Authority Key Identifier: 
                keyid:B9:E4:F8:9F:A3:6E:3A:7D:13:BE:FB:0A:92:2C:80:8B:A0:99:5E:B9

            X509v3 Key Usage: critical
                Digital Signature, Non Repudiation, Key Encipherment
            X509v3 Extended Key Usage: 
                TLS Web Client Authentication, E-mail Protection
    Signature Algorithm: sha256WithRSAEncryption
         87:d2:c1:45:e5:a0:eb:2c:0e:a6:b5:b8:1e:6b:a6:a4:bb:6b:
         ca:f0:b9:d6:72:0a:25:f2:25:29:05:64:10:d8:2d:07:ea:c5:
         4c:21:a6:e0:15:22:a2:f4:f9:ac:93:4e:2f:ab:8c:b9:ed:da:
         67:d8:21:39:b6:9c:86:ef:b4:45:3d:e5:6e:1a:1e:fb:ba:32:
         a6:bb:b8:23:e6:16:0a:e4:12:55:55:26:79:49:23:c0:5e:8c:
         40:86:8f:7e:00:fa:fe:eb:03:2c:c3:d4:76:41:04:e8:36:af:
         3f:97:5f:d2:3e:5f:c9:61:0f:9c:38:0e:c3:5f:6c:63:a1:f1:
         90:ec:3b:55:73:2d:7e:c8:8d:50:02:c0:02:37:52:32:71:cd:
         1f:d9:fe:50:dc:0b:48:0e:24:dc:72:c6:4f:20:d9:62:d9:83:
         96:7b:e6:3b:92:f1:86:3a:a2:ba:30:b3:87:47:88:65:b8:b8:
         d0:fb:e8:37:b7:1f:35:e1:b2:f2:5c:c7:13:9a:fa:1d:64:6d:
         ca:0e:dd:29:3c:ef:7c:f9:df:70:10:5c:c3:8d:8a:21:86:a4:
         86:4d:aa:6a:80:2b:7a:e1:ed:5e:44:59:91:26:27:88:a0:b0:
         1d:12:59:5a:ec:a4:13:be:76:72:5b:b8:9f:75:b6:92:eb:94:
         7e:99:58:7d
-----BEGIN CERTIFICATE-----
MIIETzCCAzegAwIBAgICEAEwDQYJKoZIhvcNAQELBQAwgYIxCzAJBgNVBAYTAkNa
MRowGAYDVQQIDBFKaWhvbW9yYXZza3kga3JhajEjMCEGA1UECgwaT3BlblN0YWNr
IENvbW1vbiBMaWJyYXJpZXMxFDASBgNVBAsMC0VuZ2luZWVyaW5nMRwwGgYDVQQD
DBNJbnRlcm1lZGlhdGUgQ0EgMDAyMB4XDTE4MDgxMDE2MjgxN1oXDTE4MDgzMTE2
MjgxN1owgYkxCzAJBgNVBAYTAkNaMRowGAYDVQQIDBFKaWhvbW9yYXZza3kga3Jh
ajENMAsGA1UEBwwEQnJubzEjMCEGA1UECgwaT3BlblN0YWNrIENvbW1vbiBMaWJy
YXJpZXMxFDASBgNVBAsMC0VuZ2luZWVyaW5nMRQwEgYDVQQDDAtOb2RlIDAwMjAw
MjCCASIwDQYJKoZIhvcNAQEBBQADggEPADCCAQoCggEBANtMGLwfB/ZiNEVN456J
tp5cxuPWo3h85c1to6QKaNFKs1v+gXdJ7hiDCUj3JN2LRTdDc0F57ZMvj4toQs6l
maWIvX7PdbJk9Zmiw27E7oVeg1Ye31Wd8uJWB7RYl9Nbu8223dCdV/vndE7Brdih
v8qPeMTlLYjAqCmGYZ+pBsJJTQf59DkjYnFHxnKI89NLygqi5CTiTZQcBggwxSd4
4IoNP34n7BHezX0kr4J3P1BHP/9Zf5ut6od/Y47omkcmj3IKOpXeiwnBTJ8VRgfn
K44uDfgncJvxpaI/mgW6AhmrK5H/7CSAgIYjc2zScIB5YodtzikBJFApUFQ8ZKi7
TmkCAwEAAaOBxTCBwjAJBgNVHRMEAjAAMBEGCWCGSAGG+EIBAQQEAwIFoDAzBglg
hkgBhvhCAQ0EJhYkT3BlblNTTCBHZW5lcmF0ZWQgQ2xpZW50IENlcnRpZmljYXRl
MB0GA1UdDgQWBBT4WlNEi5pCP1wnWHT0m0JfS8eRMDAfBgNVHSMEGDAWgBS55Pif
o246fRO++wqSLICLoJleuTAOBgNVHQ8BAf8EBAMCBeAwHQYDVR0lBBYwFAYIKwYB
BQUHAwIGCCsGAQUFBwMEMA0GCSqGSIb3DQEBCwUAA4IBAQCH0sFF5aDrLA6mtbge
a6aku2vK8LnWcgol8iUpBWQQ2C0H6sVMIabgFSKi9Pmsk04vq4y57dpn2CE5tpyG
77RFPeVuGh77ujKmu7gj5hYK5BJVVSZ5SSPAXoxAho9+APr+6wMsw9R2QQToNq8/
l1/SPl/JYQ+cOA7DX2xjofGQ7DtVcy1+yI1QAsACN1Iycc0f2f5Q3AtIDiTccsZP
INli2YOWe+Y7kvGGOqK6MLOHR4hluLjQ++g3tx814bLyXMcTmvodZG3KDt0pPO98
+d9wEFzDjYohhqSGTapqgCt64e1eRFmRJieIoLAdElla7KQTvnZyW7ifdbaS65R+
mVh9
-----END CERTIFICATE-----
