Certificate:
    Data:
        Version: 3 (0x2)
        Serial Number: 4100 (0x1004)
    Signature Algorithm: sha256WithRSAEncryption
        Issuer: C=CZ, ST=Jihomoravsky kraj, L=Brno, O=OpenStack Common Libraries, OU=Engineering, CN=Root CA
        Validity
            Not Before: Aug 10 16:28:10 2018 GMT
            Not After : Aug  7 16:28:10 2028 GMT
        Subject: C=CZ, ST=Jihomoravsky kraj, O=OpenStack Common Libraries, OU=Engineering, CN=Intermediate CA 005
        Subject Public Key Info:
            Public Key Algorithm: rsaEncryption
                Public-Key: (2048 bit)
                Modulus:
                    00:bc:dc:bb:ef:25:b1:44:0f:16:a1:a2:b6:95:37:
                    22:23:b0:58:7c:7b:c7:8c:a8:18:61:90:4c:e2:c9:
                    05:1b:2d:2a:7c:f3:6c:18:36:52:95:d2:e3:9b:36:
                    58:24:9c:74:f9:e1:49:84:51:57:0e:ed:19:9f:41:
                    39:83:dc:5e:fa:d7:33:e7:e8:be:07:7c:c9:14:74:
                    88:64:30:37:3c:ff:8f:2f:57:17:b0:f3:9e:42:c0:
                    ac:aa:84:e5:25:45:86:3e:5c:b6:a5:17:d8:9b:f6:
                    53:66:cf:a5:79:d9:9d:f1:5a:85:b9:bb:4a:9b:60:
                    b5:ec:2f:86:9e:03:26:d1:da:a9:63:9e:5a:ed:0d:
                    0d:05:14:5c:6c:b6:3a:76:b4:d7:96:fb:89:fd:8a:
                    42:a8:5c:35:6f:13:c0:70:1a:63:76:c6:ac:e8:4c:
                    fa:b1:a9:aa:30:95:9b:5c:32:e4:91:9f:8b:da:a4:
                    26:ed:ac:20:92:55:8b:cf:ac:01:0f:00:12:8b:32:
                    9d:35:c0:78:81:71:79:70:9d:de:92:37:97:d1:62:
                    e7:4a:00:06:f9:15:01:2c:52:fd:49:87:d1:f5:a4:
                    5f:58:fd:a8:a2:ab:84:7b:61:de:db:2b:e9:b6:ee:
                    70:09:22:02:99:95:77:c6:87:d3:92:07:b8:3d:da:
                    2b:a5
                Exponent: 65537 (0x10001)
        X509v3 extensions:
            X509v3 Subject Key Identifier: 
                51:C7:3A:46:B8:6B:5B:DD:AE:A2:ED:50:A1:9C:77:E9:B5:12:40:57
            X509v3 Authority Key Identifier: 
                keyid:FF:EE:5D:6F:A5:B1:66:52:28:CC:10:71:3F:41:50:11:96:97:E7:F9

            X509v3 Basic Constraints: critical
                CA:TRUE, pathlen:0
            X509v3 Key Usage: critical
                Digital Signature, Certificate Sign, CRL Sign
    Signature Algorithm: sha256WithRSAEncryption
         83:a1:71:71:09:1d:06:0d:cc:12:a9:13:3c:00:94:1b:12:18:
         77:e0:ab:60:86:84:a4:55:02:f3:81:b9:ce:cc:f2:d8:2c:9a:
         cc:63:39:0e:cf:0d:c1:9d:5f:a2:e2:45:ae:c3:fa:96:80:c9:
         15:ab:9e:0c:24:68:d6:df:99:fe:70:c8:5f:f2:86:20:5c:34:
         57:9d:64:8c:eb:83:54:1c:83:e6:cf:8b:59:4b:04:55:fb:44:
         ff:f1:12:b3:01:f3:e3:ae:cb:56:b9:2c:ad:90:8d:6c:5d:bb:
         c9:a2:db:ec:8e:97:3c:57:bd:17:9f:76:d4:7a:56:ca:af:cb:
         62:35:1f:bc:a7:15:67:ec:60:87:ef:af:f1:2c:eb:1d:23:8f:
         f3:e1:93:0a:35:da:a3:3a:00:51:6b:87:ff:b4:a9:0c:14:da:
         fd:0a:3d:25:e1:dc:55:95:f0:62:68:6f:49:e8:5d:54:08:8f:
         1e:24:7b:ae:60:49:3c:bd:07:0f:42:2f:43:40:66:a1:c8:12:
         c0:8c:63:bc:f4:26:2c:27:84:4b:f2:eb:48:40:e4:11:14:c0:
         f5:e0:06:7f:0e:71:24:31:4c:6d:a1:ee:4b:26:65:81:b4:c1:
         1e:da:89:05:18:fb:42:5d:61:96:86:39:de:da:c1:99:18:6d:
         aa:3c:2c:92
-----BEGIN CERTIFICATE-----
MIID6zCCAtOgAwIBAgICEAQwDQYJKoZIhvcNAQELBQAwgYUxCzAJBgNVBAYTAkNa
MRowGAYDVQQIDBFKaWhvbW9yYXZza3kga3JhajENMAsGA1UEBwwEQnJubzEjMCEG
A1UECgwaT3BlblN0YWNrIENvbW1vbiBMaWJyYXJpZXMxFDASBgNVBAsMC0VuZ2lu
ZWVyaW5nMRAwDgYDVQQDDAdSb290IENBMB4XDTE4MDgxMDE2MjgxMFoXDTI4MDgw
NzE2MjgxMFowgYIxCzAJBgNVBAYTAkNaMRowGAYDVQQIDBFKaWhvbW9yYXZza3kg
a3JhajEjMCEGA1UECgwaT3BlblN0YWNrIENvbW1vbiBMaWJyYXJpZXMxFDASBgNV
BAsMC0VuZ2luZWVyaW5nMRwwGgYDVQQDDBNJbnRlcm1lZGlhdGUgQ0EgMDA1MIIB
IjANBgkqhkiG9w0BAQEFAAOCAQ8AMIIBCgKCAQEAvNy77yWxRA8WoaK2lTciI7BY
fHvHjKgYYZBM4skFGy0qfPNsGDZSldLjmzZYJJx0+eFJhFFXDu0Zn0E5g9xe+tcz
5+i+B3zJFHSIZDA3PP+PL1cXsPOeQsCsqoTlJUWGPly2pRfYm/ZTZs+ledmd8VqF
ubtKm2C17C+GngMm0dqpY55a7Q0NBRRcbLY6drTXlvuJ/YpCqFw1bxPAcBpjdsas
6Ez6samqMJWbXDLkkZ+L2qQm7awgklWLz6wBDwASizKdNcB4gXF5cJ3ekjeX0WLn
SgAG+RUBLFL9SYfR9aRfWP2ooquEe2He2yvptu5wCSICmZV3xofTkge4PdorpQID
AQABo2YwZDAdBgNVHQ4EFgQUUcc6RrhrW92uou1QoZx36bUSQFcwHwYDVR0jBBgw
FoAU/+5db6WxZlIozBBxP0FQEZaX5/kwEgYDVR0TAQH/BAgwBgEB/wIBADAOBgNV
HQ8BAf8EBAMCAYYwDQYJKoZIhvcNAQELBQADggEBAIOhcXEJHQYNzBKpEzwAlBsS
GHfgq2CGhKRVAvOBuc7M8tgsmsxjOQ7PDcGdX6LiRa7D+paAyRWrngwkaNbfmf5w
yF/yhiBcNFedZIzrg1Qcg+bPi1lLBFX7RP/xErMB8+Ouy1a5LK2QjWxdu8mi2+yO
lzxXvRefdtR6Vsqvy2I1H7ynFWfsYIfvr/Es6x0jj/Phkwo12qM6AFFrh/+0qQwU
2v0KPSXh3FWV8GJob0noXVQIjx4ke65gSTy9Bw9CL0NAZqHIEsCMY7z0JiwnhEvy
60hA5BEUwPXgBn8OcSQxTG2h7ksmZYG0wR7aiQUY+0JdYZaGOd7awZkYbao8LJI=
-----END CERTIFICATE-----
