Certificate:
    Data:
        Version: 3 (0x2)
        Serial Number: 4096 (0x1000)
    Signature Algorithm: sha256WithRSAEncryption
        Issuer: C=CZ, ST=Jihomoravsky kraj, O=OpenStack Common Libraries, OU=Engineering, CN=Intermediate CA 005
        Validity
            Not Before: Aug 14 16:16:15 2018 GMT
            Not After : Sep  4 16:16:15 2018 GMT
        Subject: C=CZ, ST=Jihomoravsky kraj, L=Brno, O=OpenStack Common Libraries, OU=Engineering, CN=Node 005001
        Subject Public Key Info:
            Public Key Algorithm: rsaEncryption
                Public-Key: (2048 bit)
                Modulus:
                    00:b0:2c:e0:94:b8:d0:58:9e:58:0b:5e:e0:5a:9c:
                    18:1f:ad:49:8e:c7:1e:3a:3c:f0:b2:20:6a:eb:bf:
                    e4:06:08:e0:f2:c6:d6:77:f6:ce:13:98:f2:75:f7:
                    ef:c2:26:e9:8d:87:86:d2:47:e6:59:20:c4:fe:6d:
                    8d:fb:eb:87:71:17:6b:d2:b9:18:0b:20:41:d6:b4:
                    be:e5:2e:69:69:84:75:02:0e:83:df:04:b5:dc:ec:
                    77:29:aa:0f:8b:47:06:da:c2:b2:88:c4:d1:c6:c0:
                    be:89:34:7c:0f:80:6f:08:a4:1d:f7:41:ea:6b:99:
                    a3:c5:df:69:e6:13:80:ec:2f:97:27:26:cd:cc:fa:
                    e3:7f:65:e4:52:7e:79:d8:32:8d:41:b5:71:23:68:
                    db:ca:c3:6c:8b:d9:ca:90:e8:cc:5b:70:89:6b:28:
                    13:07:3f:ea:ab:52:5e:92:5e:c6:7a:48:5a:9b:70:
                    80:21:9d:5c:87:34:cb:93:17:10:ad:75:d0:4e:99:
                    06:cc:45:b4:44:34:27:91:66:12:fc:13:c0:72:4a:
                    d9:ce:d6:42:e0:1a:51:8e:1a:98:98:4e:84:f9:a0:
                    86:60:24:ba:b3:0a:25:72:68:c9:96:ff:79:20:4e:
                    f6:9c:fd:3b:ef:e5:bc:df:2e:89:f4:4a:a7:47:f2:
                    32:1b
                Exponent: 65537 (0x10001)
        X509v3 extensions:
            X509v3 Basic Constraints: 
                CA:FALSE
            Netscape Cert Type: 
                SSL Client, S/MIME
            Netscape Comment: 
                OpenSSL Generated Client Certificate
            X509v3 Subject Key Identifier: 
                F4:6D:34:A9:CC:C3:65:D5:C5:7F:F9:2B:87:BA:9C:A9:75:27:FB:A5
            X509v3 Authority Key Identifier: 
                keyid:6C:E7:FB:AD:5C:6E:B3:08:08:67:09:F8:B8:C7:98:86:BE:7D:0B:20

            X509v3 Key Usage: critical
                Digital Signature, Non Repudiation, Key Encipherment
            X509v3 Extended Key Usage: 
                TLS Web Client Authentication, E-mail Protection
    Signature Algorithm: sha256WithRSAEncryption
         50:0b:2f:3c:51:72:81:ec:51:40:37:fb:ff:36:2f:2f:9d:bf:
         b3:65:05:4c:33:34:7c:2f:35:7a:26:f2:24:55:79:cc:de:78:
         4a:5b:98:96:31:6e:89:f4:af:f5:be:ff:f0:11:55:af:4f:9c:
         51:32:20:ed:e3:19:b1:f7:2c:b9:d6:ec:fc:26:d1:90:65:d2:
         a5:33:5d:04:9c:49:b3:5a:c0:cb:dd:bc:b1:10:ad:87:cc:60:
         d9:f4:5e:33:77:b8:7c:11:76:ce:89:51:11:8a:54:29:fa:3e:
         7e:92:86:ea:d3:c3:39:69:1a:88:2e:48:29:8a:cd:f5:c6:d6:
         4e:18:a0:c8:3a:35:cb:bb:fc:58:6c:be:39:85:b2:8f:3e:cd:
         2c:6d:29:4f:28:13:4a:67:5d:57:12:7d:7b:a0:6a:d5:93:b0:
         de:85:e2:0c:99:4a:50:9e:db:91:d6:8b:ce:d3:e4:6a:0d:48:
         26:64:27:d2:6c:33:0c:0f:19:e0:2b:df:8c:11:74:90:3a:58:
         5a:57:46:cc:4c:d7:48:1a:0e:cf:00:73:6d:59:3d:e5:15:b0:
         5f:0b:17:db:ed:f0:74:6f:cd:2f:46:9a:bb:8c:38:36:ff:74:
         03:d8:55:81:ff:fe:02:03:f0:dc:38:1d:0d:b0:1e:d9:1a:fe:
         6e:2d:7e:71:6d:d0:b8:8a:41:6e:d8:df:fa:7d:09:16:b3:69:
         0d:b1:21:2e:3d:3f:86:f3:f9:f6:01:9a:d5:0f:5e:bc:2b:c6:
         90:04:55:30:5c:c2:09:a4:fb:cf:17:f7:10:d9:42:97:a9:14:
         f2:e0:31:18:a5:85:1a:50:49:93:3e:56:9c:05:fb:f4:12:6e:
         aa:9a:c9:e7:0d:72:06:90:6e:7b:fc:3f:2b:49:03:3d:4c:58:
         2b:9d:bb:9c:d5:4f:32:1d:f1:b9:c9:25:ae:7d:8d:e7:9c:da:
         58:86:95:6b:33:cb:e1:5b:bf:1a:ea:ef:e4:e9:3c:4a:ed:ea:
         d0:dc:28:ea:df:b6:43:58:8c:95:07:5f:7b:39:7e:16:61:45:
         cc:59:58:36:a2:5c:cf:c1:b9:d8:ba:0e:32:d1:8e:4d:97:6b:
         d2:9a:d7:29:ba:4e:4c:a3:cd:ee:cc:0a:3b:1d:66:d6:68:ed:
         dd:f5:c3:26:0b:5b:f7:68:7d:60:70:e1:47:64:d9:fb:67:ac:
         5e:a3:46:36:8d:2e:32:8b:7a:21:4a:ae:a9:12:a7:97:16:3b:
         73:96:cc:79:0d:4b:dc:19:6f:38:b8:1f:06:43:7c:51:e2:1c:
         45:0c:3b:e0:6d:bb:68:e0:c6:02:ce:94:af:31:94:2d:2e:5d:
         60:95:7f:40:55:85:34:18
-----BEGIN CERTIFICATE-----
MIIFTzCCAzegAwIBAgICEAAwDQYJKoZIhvcNAQELBQAwgYIxCzAJBgNVBAYTAkNa
MRowGAYDVQQIDBFKaWhvbW9yYXZza3kga3JhajEjMCEGA1UECgwaT3BlblN0YWNr
IENvbW1vbiBMaWJyYXJpZXMxFDASBgNVBAsMC0VuZ2luZWVyaW5nMRwwGgYDVQQD
DBNJbnRlcm1lZGlhdGUgQ0EgMDA1MB4XDTE4MDgxNDE2MTYxNVoXDTE4MDkwNDE2
MTYxNVowgYkxCzAJBgNVBAYTAkNaMRowGAYDVQQIDBFKaWhvbW9yYXZza3kga3Jh
ajENMAsGA1UEBwwEQnJubzEjMCEGA1UECgwaT3BlblN0YWNrIENvbW1vbiBMaWJy
YXJpZXMxFDASBgNVBAsMC0VuZ2luZWVyaW5nMRQwEgYDVQQDDAtOb2RlIDAwNTAw
MTCCASIwDQYJKoZIhvcNAQEBBQADggEPADCCAQoCggEBALAs4JS40FieWAte4Fqc
GB+tSY7HHjo88LIgauu/5AYI4PLG1nf2zhOY8nX378Im6Y2HhtJH5lkgxP5tjfvr
h3EXa9K5GAsgQda0vuUuaWmEdQIOg98EtdzsdymqD4tHBtrCsojE0cbAvok0fA+A
bwikHfdB6muZo8XfaeYTgOwvlycmzcz6439l5FJ+edgyjUG1cSNo28rDbIvZypDo
zFtwiWsoEwc/6qtSXpJexnpIWptwgCGdXIc0y5MXEK110E6ZBsxFtEQ0J5FmEvwT
wHJK2c7WQuAaUY4amJhOhPmghmAkurMKJXJoyZb/eSBO9pz9O+/lvN8uifRKp0fy
MhsCAwEAAaOBxTCBwjAJBgNVHRMEAjAAMBEGCWCGSAGG+EIBAQQEAwIFoDAzBglg
hkgBhvhCAQ0EJhYkT3BlblNTTCBHZW5lcmF0ZWQgQ2xpZW50IENlcnRpZmljYXRl
MB0GA1UdDgQWBBT0bTSpzMNl1cV/+SuHupypdSf7pTAfBgNVHSMEGDAWgBRs5/ut
XG6zCAhnCfi4x5iGvn0LIDAOBgNVHQ8BAf8EBAMCBeAwHQYDVR0lBBYwFAYIKwYB
BQUHAwIGCCsGAQUFBwMEMA0GCSqGSIb3DQEBCwUAA4ICAQBQCy88UXKB7FFAN/v/
Ni8vnb+zZQVMMzR8LzV6JvIkVXnM3nhKW5iWMW6J9K/1vv/wEVWvT5xRMiDt4xmx
9yy51uz8JtGQZdKlM10EnEmzWsDL3byxEK2HzGDZ9F4zd7h8EXbOiVERilQp+j5+
kobq08M5aRqILkgpis31xtZOGKDIOjXLu/xYbL45hbKPPs0sbSlPKBNKZ11XEn17
oGrVk7DeheIMmUpQntuR1ovO0+RqDUgmZCfSbDMMDxngK9+MEXSQOlhaV0bMTNdI
Gg7PAHNtWT3lFbBfCxfb7fB0b80vRpq7jDg2/3QD2FWB//4CA/DcOB0NsB7ZGv5u
LX5xbdC4ikFu2N/6fQkWs2kNsSEuPT+G8/n2AZrVD168K8aQBFUwXMIJpPvPF/cQ
2UKXqRTy4DEYpYUaUEmTPlacBfv0Em6qmsnnDXIGkG57/D8rSQM9TFgrnbuc1U8y
HfG5ySWufY3nnNpYhpVrM8vhW78a6u/k6TxK7erQ3Cjq37ZDWIyVB197OX4WYUXM
WVg2olzPwbnYug4y0Y5Nl2vSmtcpuk5Mo83uzAo7HWbWaO3d9cMmC1v3aH1gcOFH
ZNn7Z6xeo0Y2jS4yi3ohSq6pEqeXFjtzlsx5DUvcGW84uB8GQ3xR4hxFDDvgbbto
4MYCzpSvMZQtLl1glX9AVYU0GA==
-----END CERTIFICATE-----
Certificate:
    Data:
        Version: 3 (0x2)
        Serial Number: 4101 (0x1005)
    Signature Algorithm: sha256WithRSAEncryption
        Issuer: C=CZ, ST=Jihomoravsky kraj, L=Brno, O=OpenStack Common Libraries, OU=Engineering, CN=Root CA
        Validity
            Not Before: Aug 14 16:16:13 2018 GMT
            Not After : Aug 11 16:16:13 2028 GMT
        Subject: C=CZ, ST=Jihomoravsky kraj, O=OpenStack Common Libraries, OU=Engineering, CN=Intermediate CA 005
        Subject Public Key Info:
            Public Key Algorithm: rsaEncryption
                Public-Key: (4096 bit)
                Modulus:
                    00:f3:b1:11:67:9a:d1:1b:8a:23:b8:39:01:7e:7d:
                    8a:36:f3:42:1b:ec:e1:dd:cd:06:e7:cc:ab:d2:e7:
                    e9:46:72:5c:84:77:b3:7e:1b:54:d3:a6:4e:91:c2:
                    a8:74:b9:37:2b:63:ed:98:19:31:c1:54:1e:c4:dd:
                    eb:72:68:af:e6:ab:a8:d9:b8:4a:27:37:fd:e2:b6:
                    f5:67:ff:ff:3a:47:5a:e0:31:16:05:3d:c1:7f:48:
                    7c:24:47:df:39:4e:a7:c7:65:30:7b:b0:d9:3b:b1:
                    cd:0b:a8:c4:2b:6d:83:2f:c2:ad:fc:19:7d:40:03:
                    4d:2c:bf:44:b2:74:11:74:ff:62:e4:69:d1:55:2d:
                    9e:3b:c3:ca:48:e9:49:a0:dd:ec:d2:d0:37:44:c4:
                    e0:8f:fe:37:ce:09:52:54:f5:e1:79:39:7f:a7:25:
                    91:4c:71:70:27:de:de:3e:38:dc:9f:a1:bb:54:4f:
                    64:26:a6:71:96:18:2c:24:00:e7:13:7b:47:7b:93:
                    90:81:17:f4:84:e2:e2:9b:32:41:1e:e9:17:e9:2d:
                    6e:30:98:ea:20:67:4b:2b:d1:f1:03:e5:eb:d4:00:
                    f5:13:cd:85:d4:eb:8b:7f:2a:b8:f0:fa:9d:51:8c:
                    3b:0b:71:19:c5:f6:41:65:3d:91:0a:52:8b:c3:2a:
                    7a:b4:a5:8d:79:00:67:f6:de:00:3d:a6:7f:58:fc:
                    50:46:c0:92:11:61:05:72:aa:29:9a:3a:a0:74:46:
                    e5:92:2b:02:f2:19:c9:88:67:30:aa:1f:2b:30:b5:
                    19:8e:af:2d:68:b4:22:64:6c:9d:43:fb:2e:49:7f:
                    74:19:10:a7:dd:26:ee:e9:cc:10:b4:19:1e:9f:72:
                    0b:bf:2a:0c:10:25:a4:14:1d:1d:73:4c:23:86:4e:
                    7b:4e:b5:79:eb:0c:bc:0a:37:af:13:37:ed:31:63:
                    61:67:74:b7:73:53:e7:6d:79:c3:7e:24:25:02:ed:
                    39:a1:69:44:2f:a3:f2:4d:f9:2e:70:d8:ad:c3:dd:
                    f9:e4:b7:e4:ea:a9:4f:8c:90:a9:48:c4:b3:86:30:
                    89:a8:f0:90:be:58:70:75:d2:74:61:e0:b2:65:b4:
                    3d:41:e0:85:cf:16:31:81:0f:2a:84:e9:b2:38:9a:
                    23:41:25:16:d6:6c:61:1b:4e:9e:16:47:d7:07:e3:
                    25:3b:48:04:d9:95:8b:4f:eb:05:90:83:be:75:8b:
                    7b:d5:b4:e9:a6:1b:ff:58:99:f1:72:ae:e4:2c:e9:
                    85:bd:e8:cd:c3:da:6c:68:03:60:f2:17:e8:9e:20:
                    95:c3:de:ae:8b:c1:58:22:90:ab:c4:18:7a:a6:77:
                    a4:e9:c5
                Exponent: 65537 (0x10001)
        X509v3 extensions:
            X509v3 Subject Key Identifier: 
                6C:E7:FB:AD:5C:6E:B3:08:08:67:09:F8:B8:C7:98:86:BE:7D:0B:20
            X509v3 Authority Key Identifier: 
                keyid:93:83:48:92:23:B6:C3:DA:A7:15:85:08:41:75:30:67:97:A5:D4:9C

            X509v3 Basic Constraints: critical
                CA:TRUE, pathlen:0
            X509v3 Key Usage: critical
                Digital Signature, Certificate Sign, CRL Sign
    Signature Algorithm: sha256WithRSAEncryption
         71:74:9f:31:34:b9:da:8b:84:e7:d7:1a:39:23:e3:af:a9:e4:
         e2:d4:ab:d2:35:c0:63:4e:84:35:40:34:16:e4:4e:a2:13:52:
         97:b1:2e:e8:e7:43:f7:08:e0:c0:79:91:81:2d:78:60:ac:fd:
         cb:c7:3d:45:97:af:eb:e1:87:c4:6f:fc:22:4e:0f:17:00:ff:
         a5:09:d3:8e:3f:8c:0a:27:0f:72:31:65:2d:29:9f:4f:63:a8:
         05:36:6f:82:77:d3:e7:0e:e5:94:b3:d0:cd:bf:4d:54:99:6a:
         0e:35:a3:87:26:1c:a3:79:0b:a8:8f:11:cd:92:6c:60:40:3c:
         cc:9a:2b:14:5a:c1:a7:b0:d6:82:c1:c3:d2:39:6a:6a:97:03:
         f7:33:d7:93:ae:87:5f:a0:aa:3d:cc:5b:38:e1:7f:d6:ac:a3:
         7f:58:8a:cb:cd:60:c7:77:a8:1e:f0:37:4a:54:bd:fb:e1:9a:
         1a:9e:81:18:ce:21:3b:b4:de:d1:30:28:d8:bc:40:91:5d:85:
         da:ae:1f:1b:b5:c1:f0:b5:f6:a4:b5:20:00:a0:42:38:77:d8:
         ec:30:4c:ea:4c:f9:3d:19:6b:3c:e5:8c:c8:42:60:35:ff:1d:
         65:c8:1b:79:34:b0:1d:00:fa:dc:de:7b:60:74:57:f7:ea:58:
         d1:c0:3b:f5:a7:70:ac:6d:86:36:c9:bb:56:c1:e8:24:6e:67:
         12:39:56:06:ca:02:6e:13:e1:49:93:83:37:17:6c:72:f6:7d:
         64:6c:fb:97:2e:65:c9:d6:83:ed:c3:2f:ab:61:e1:28:2c:19:
         e3:61:b4:25:a7:9e:c7:b3:78:9c:2a:25:34:71:0c:05:6a:8f:
         83:c9:7e:79:cb:f3:69:7d:b5:ae:87:82:9d:98:f4:56:1b:2e:
         ea:d4:e5:71:fb:b8:3c:04:a4:99:7e:d3:4d:6d:da:c7:e2:35:
         4e:5d:d9:9a:ea:c4:7e:8a:ee:ba:9c:5a:98:3d:a0:26:bd:e7:
         cc:22:18:07:ae:63:5c:17:7b:fb:57:45:92:ce:7f:8e:78:42:
         64:b3:83:6f:b0:e0:25:66:10:23:4b:ea:f5:75:fe:69:81:fc:
         88:94:33:c7:f7:0f:07:b6:54:9f:27:b6:1b:47:37:40:d4:5b:
         51:04:74:77:d8:5d:da:51:46:a5:50:6e:48:ec:58:b2:3e:cc:
         57:25:54:76:0f:7d:2b:23:5b:3d:5a:29:a0:a2:f2:3b:26:3a:
         42:b1:ad:15:d4:84:14:b0:78:10:12:11:42:3a:10:60:ff:f2:
         4d:1c:09:26:d9:20:1b:f5:34:b8:50:12:32:df:e0:cf:cd:54:
         19:2c:30:34:e5:c7:13:06
-----BEGIN CERTIFICATE-----
MIIF6zCCA9OgAwIBAgICEAUwDQYJKoZIhvcNAQELBQAwgYUxCzAJBgNVBAYTAkNa
MRowGAYDVQQIDBFKaWhvbW9yYXZza3kga3JhajENMAsGA1UEBwwEQnJubzEjMCEG
A1UECgwaT3BlblN0YWNrIENvbW1vbiBMaWJyYXJpZXMxFDASBgNVBAsMC0VuZ2lu
ZWVyaW5nMRAwDgYDVQQDDAdSb290IENBMB4XDTE4MDgxNDE2MTYxM1oXDTI4MDgx
MTE2MTYxM1owgYIxCzAJBgNVBAYTAkNaMRowGAYDVQQIDBFKaWhvbW9yYXZza3kg
a3JhajEjMCEGA1UECgwaT3BlblN0YWNrIENvbW1vbiBMaWJyYXJpZXMxFDASBgNV
BAsMC0VuZ2luZWVyaW5nMRwwGgYDVQQDDBNJbnRlcm1lZGlhdGUgQ0EgMDA1MIIC
IjANBgkqhkiG9w0BAQEFAAOCAg8AMIICCgKCAgEA87ERZ5rRG4ojuDkBfn2KNvNC
G+zh3c0G58yr0ufpRnJchHezfhtU06ZOkcKodLk3K2PtmBkxwVQexN3rcmiv5quo
2bhKJzf94rb1Z///Okda4DEWBT3Bf0h8JEffOU6nx2Uwe7DZO7HNC6jEK22DL8Kt
/Bl9QANNLL9EsnQRdP9i5GnRVS2eO8PKSOlJoN3s0tA3RMTgj/43zglSVPXheTl/
pyWRTHFwJ97ePjjcn6G7VE9kJqZxlhgsJADnE3tHe5OQgRf0hOLimzJBHukX6S1u
MJjqIGdLK9HxA+Xr1AD1E82F1OuLfyq48PqdUYw7C3EZxfZBZT2RClKLwyp6tKWN
eQBn9t4APaZ/WPxQRsCSEWEFcqopmjqgdEblkisC8hnJiGcwqh8rMLUZjq8taLQi
ZGydQ/suSX90GRCn3Sbu6cwQtBken3ILvyoMECWkFB0dc0wjhk57TrV56wy8Cjev
EzftMWNhZ3S3c1PnbXnDfiQlAu05oWlEL6PyTfkucNitw9355Lfk6qlPjJCpSMSz
hjCJqPCQvlhwddJ0YeCyZbQ9QeCFzxYxgQ8qhOmyOJojQSUW1mxhG06eFkfXB+Ml
O0gE2ZWLT+sFkIO+dYt71bTpphv/WJnxcq7kLOmFvejNw9psaANg8hfoniCVw96u
i8FYIpCrxBh6pnek6cUCAwEAAaNmMGQwHQYDVR0OBBYEFGzn+61cbrMICGcJ+LjH
mIa+fQsgMB8GA1UdIwQYMBaAFJODSJIjtsPapxWFCEF1MGeXpdScMBIGA1UdEwEB
/wQIMAYBAf8CAQAwDgYDVR0PAQH/BAQDAgGGMA0GCSqGSIb3DQEBCwUAA4ICAQBx
dJ8xNLnai4Tn1xo5I+OvqeTi1KvSNcBjToQ1QDQW5E6iE1KXsS7o50P3CODAeZGB
LXhgrP3Lxz1Fl6/r4YfEb/wiTg8XAP+lCdOOP4wKJw9yMWUtKZ9PY6gFNm+Cd9Pn
DuWUs9DNv01UmWoONaOHJhyjeQuojxHNkmxgQDzMmisUWsGnsNaCwcPSOWpqlwP3
M9eTrodfoKo9zFs44X/WrKN/WIrLzWDHd6ge8DdKVL374ZoanoEYziE7tN7RMCjY
vECRXYXarh8btcHwtfaktSAAoEI4d9jsMEzqTPk9GWs85YzIQmA1/x1lyBt5NLAd
APrc3ntgdFf36ljRwDv1p3CsbYY2ybtWwegkbmcSOVYGygJuE+FJk4M3F2xy9n1k
bPuXLmXJ1oPtwy+rYeEoLBnjYbQlp57Hs3icKiU0cQwFao+DyX55y/NpfbWuh4Kd
mPRWGy7q1OVx+7g8BKSZftNNbdrH4jVOXdma6sR+iu66nFqYPaAmvefMIhgHrmNc
F3v7V0WSzn+OeEJks4NvsOAlZhAjS+r1df5pgfyIlDPH9w8HtlSfJ7YbRzdA1FtR
BHR32F3aUUalUG5I7FiyPsxXJVR2D30rI1s9WimgovI7JjpCsa0V1IQUsHgQEhFC
OhBg//JNHAkm2SAb9TS4UBIy3+DPzVQZLDA05ccTBg==
-----END CERTIFICATE-----
