Certificate:
    Data:
        Version: 3 (0x2)
        Serial Number: 4098 (0x1002)
    Signature Algorithm: sha256WithRSAEncryption
        Issuer: C=CZ, ST=Jihomoravsky kraj, O=OpenStack Common Libraries, OU=Engineering, CN=Intermediate CA 005
        Validity
            Not Before: Aug 10 16:28:36 2018 GMT
            Not After : Aug 31 16:28:36 2018 GMT
        Subject: C=CZ, ST=Jihomoravsky kraj, L=Brno, O=OpenStack Common Libraries, OU=Engineering, CN=Node 005003
        Subject Public Key Info:
            Public Key Algorithm: rsaEncryption
                Public-Key: (2048 bit)
                Modulus:
                    00:d7:66:77:91:bc:81:59:59:b5:b6:48:a8:3d:a1:
                    3f:86:8a:28:74:1e:e3:12:7e:7f:fd:77:6e:ed:26:
                    d1:28:4b:52:8a:b0:fd:89:a9:c0:8f:33:a5:6c:0e:
                    f0:43:b3:4c:67:e7:4f:b7:bc:3b:3a:4c:a5:fd:14:
                    af:b9:48:53:a8:e4:c2:7b:d8:fa:5c:0a:a1:69:53:
                    ad:80:f6:4f:a7:68:b1:bd:72:15:f3:fb:91:85:e9:
                    51:72:20:e7:88:58:93:92:9c:06:38:da:25:4c:43:
                    57:9e:ef:97:64:5e:1f:84:83:c7:bb:6e:37:a4:5d:
                    aa:0e:11:b4:ed:88:32:b0:1b:52:a9:e9:e8:0e:8d:
                    3b:9a:73:71:1c:f5:22:13:06:2d:43:ca:2d:ed:79:
                    3f:e5:d8:47:a6:47:f0:c3:8e:a0:c9:1a:5d:3d:d5:
                    19:8c:08:e7:75:a6:70:01:2b:2d:39:80:0e:07:14:
                    05:1d:52:a1:c5:a2:c4:97:3f:87:f4:03:87:9a:5b:
                    49:f7:b9:83:45:57:6d:6f:03:4b:a3:5f:09:f3:eb:
                    b3:81:36:4d:df:7d:8e:52:73:cc:2b:ec:3a:e6:c5:
                    ac:2f:8d:2c:f4:5c:ee:fc:a2:e9:f0:74:a0:91:23:
                    ea:49:5a:b0:f1:fc:ce:6b:f8:42:4a:3e:24:2e:95:
                    97:4f
                Exponent: 65537 (0x10001)
        X509v3 extensions:
            X509v3 Basic Constraints: 
                CA:FALSE
            Netscape Cert Type: 
                SSL Client, S/MIME
            Netscape Comment: 
                OpenSSL Generated Client Certificate
            X509v3 Subject Key Identifier: 
                60:CB:4F:E7:FA:A6:C8:FC:9A:9F:C8:BC:7B:B5:1E:42:5D:F2:39:FF
            X509v3 Authority Key Identifier: 
                keyid:51:C7:3A:46:B8:6B:5B:DD:AE:A2:ED:50:A1:9C:77:E9:B5:12:40:57

            X509v3 Key Usage: critical
                Digital Signature, Non Repudiation, Key Encipherment
            X509v3 Extended Key Usage: 
                TLS Web Client Authentication, E-mail Protection
    Signature Algorithm: sha256WithRSAEncryption
         28:14:3e:e8:fe:5c:06:68:f7:7f:d1:be:09:7c:a4:f9:54:e8:
         53:11:76:5b:f3:bf:a2:0b:84:d8:91:68:08:21:2a:7a:13:61:
         fd:40:fc:59:ab:72:0b:09:35:6a:9b:50:da:9d:bf:4e:5a:bc:
         6a:d2:41:1c:76:cf:dd:ec:0b:43:ac:ea:4f:82:f9:2d:2f:35:
         bd:ce:15:39:cc:58:13:35:73:75:d2:87:4d:ef:84:28:e1:49:
         30:2b:48:89:24:9f:90:fe:e8:89:84:4c:79:24:75:bd:51:8e:
         30:f0:cd:63:07:18:7b:1d:08:26:75:11:18:33:f3:73:fe:47:
         7f:41:13:0c:86:72:8f:c1:85:4a:58:df:2f:01:06:48:c5:80:
         3d:f4:24:1e:5e:50:5b:bb:e5:03:a0:e9:03:fe:f8:9b:1a:90:
         62:aa:3b:4a:b1:10:ba:b0:26:b3:ee:2a:99:e2:f4:46:25:fb:
         ed:d7:30:40:a6:a4:b6:26:48:c2:71:e8:07:42:41:c1:53:98:
         30:8b:7b:04:95:c6:d8:b4:e0:b6:da:dc:48:6c:c5:b1:4b:ed:
         2b:f1:14:3b:c0:ef:6c:ac:9b:72:c5:97:ce:3a:6e:33:18:30:
         b7:b2:30:f9:b6:bd:99:2d:a1:ce:b7:e2:03:fe:4c:00:75:a7:
         cc:8a:ad:d8
-----BEGIN CERTIFICATE-----
MIIETzCCAzegAwIBAgICEAIwDQYJKoZIhvcNAQELBQAwgYIxCzAJBgNVBAYTAkNa
MRowGAYDVQQIDBFKaWhvbW9yYXZza3kga3JhajEjMCEGA1UECgwaT3BlblN0YWNr
IENvbW1vbiBMaWJyYXJpZXMxFDASBgNVBAsMC0VuZ2luZWVyaW5nMRwwGgYDVQQD
DBNJbnRlcm1lZGlhdGUgQ0EgMDA1MB4XDTE4MDgxMDE2MjgzNloXDTE4MDgzMTE2
MjgzNlowgYkxCzAJBgNVBAYTAkNaMRowGAYDVQQIDBFKaWhvbW9yYXZza3kga3Jh
ajENMAsGA1UEBwwEQnJubzEjMCEGA1UECgwaT3BlblN0YWNrIENvbW1vbiBMaWJy
YXJpZXMxFDASBgNVBAsMC0VuZ2luZWVyaW5nMRQwEgYDVQQDDAtOb2RlIDAwNTAw
MzCCASIwDQYJKoZIhvcNAQEBBQADggEPADCCAQoCggEBANdmd5G8gVlZtbZIqD2h
P4aKKHQe4xJ+f/13bu0m0ShLUoqw/YmpwI8zpWwO8EOzTGfnT7e8OzpMpf0Ur7lI
U6jkwnvY+lwKoWlTrYD2T6dosb1yFfP7kYXpUXIg54hYk5KcBjjaJUxDV57vl2Re
H4SDx7tuN6Rdqg4RtO2IMrAbUqnp6A6NO5pzcRz1IhMGLUPKLe15P+XYR6ZH8MOO
oMkaXT3VGYwI53WmcAErLTmADgcUBR1SocWixJc/h/QDh5pbSfe5g0VXbW8DS6Nf
CfPrs4E2Td99jlJzzCvsOubFrC+NLPRc7vyi6fB0oJEj6klasPH8zmv4Qko+JC6V
l08CAwEAAaOBxTCBwjAJBgNVHRMEAjAAMBEGCWCGSAGG+EIBAQQEAwIFoDAzBglg
hkgBhvhCAQ0EJhYkT3BlblNTTCBHZW5lcmF0ZWQgQ2xpZW50IENlcnRpZmljYXRl
MB0GA1UdDgQWBBRgy0/n+qbI/JqfyLx7tR5CXfI5/zAfBgNVHSMEGDAWgBRRxzpG
uGtb3a6i7VChnHfptRJAVzAOBgNVHQ8BAf8EBAMCBeAwHQYDVR0lBBYwFAYIKwYB
BQUHAwIGCCsGAQUFBwMEMA0GCSqGSIb3DQEBCwUAA4IBAQAoFD7o/lwGaPd/0b4J
fKT5VOhTEXZb87+iC4TYkWgIISp6E2H9QPxZq3ILCTVqm1Danb9OWrxq0kEcds/d
7AtDrOpPgvktLzW9zhU5zFgTNXN10odN74Qo4UkwK0iJJJ+Q/uiJhEx5JHW9UY4w
8M1jBxh7HQgmdREYM/Nz/kd/QRMMhnKPwYVKWN8vAQZIxYA99CQeXlBbu+UDoOkD
/vibGpBiqjtKsRC6sCaz7iqZ4vRGJfvt1zBApqS2JkjCcegHQkHBU5gwi3sElcbY
tOC22txIbMWxS+0r8RQ7wO9srJtyxZfOOm4zGDC3sjD5tr2ZLaHOt+ID/kwAdafM
iq3Y
-----END CERTIFICATE-----
