Certificate:
    Data:
        Version: 3 (0x2)
        Serial Number: 4099 (0x1003)
    Signature Algorithm: sha256WithRSAEncryption
        Issuer: C=CZ, ST=Jihomoravsky kraj, O=OpenStack Common Libraries, OU=Engineering, CN=Intermediate CA 005
        Validity
            Not Before: Aug 10 16:28:37 2018 GMT
            Not After : Aug 31 16:28:37 2018 GMT
        Subject: C=CZ, ST=Jihomoravsky kraj, L=Brno, O=OpenStack Common Libraries, OU=Engineering, CN=Node 005004
        Subject Public Key Info:
            Public Key Algorithm: rsaEncryption
                Public-Key: (2048 bit)
                Modulus:
                    00:ba:f9:0c:bb:22:c3:e0:7d:93:29:4e:cc:3c:5e:
                    af:96:ed:26:39:7f:a8:8d:c5:17:85:88:44:b1:9f:
                    39:7c:e9:22:dc:e9:9b:ce:61:6a:05:73:7d:b3:5c:
                    cd:55:13:a7:a5:c7:4a:6d:7c:fa:4b:d6:a3:f1:c3:
                    e9:c1:8d:4d:63:61:2f:f8:7d:9b:2e:82:a5:bb:d5:
                    0a:b8:e0:d9:07:2b:c3:7b:b7:60:57:0c:5c:f0:7a:
                    86:56:a4:bf:27:78:fb:e9:60:06:89:77:58:a4:36:
                    0f:60:4e:2d:92:53:d3:bb:e3:fe:16:b9:8d:76:bc:
                    ff:f2:fd:a4:d5:4f:27:d9:c2:98:44:d8:38:4f:9a:
                    33:d1:f8:6c:a5:d7:70:23:17:35:39:00:9c:df:28:
                    05:4f:ab:fa:9e:0a:e4:3a:93:0c:42:3c:cd:b8:14:
                    cc:79:7b:e6:02:45:81:95:7e:5d:bd:c1:b6:1e:5c:
                    da:f9:2d:a4:28:c3:9e:24:f4:33:2a:5d:9a:e3:f0:
                    b2:70:c9:83:76:53:df:c7:dc:50:eb:1a:9d:b1:c4:
                    65:c5:31:f1:ed:e2:8d:ee:d3:88:57:03:dd:59:ed:
                    5e:56:26:a4:19:e2:49:48:39:be:24:01:b7:e9:56:
                    c6:06:a9:4e:b4:c4:10:da:7f:d1:14:ef:4e:fd:e2:
                    3c:83
                Exponent: 65537 (0x10001)
        X509v3 extensions:
            X509v3 Basic Constraints: 
                CA:FALSE
            Netscape Cert Type: 
                SSL Client, S/MIME
            Netscape Comment: 
                OpenSSL Generated Client Certificate
            X509v3 Subject Key Identifier: 
                6B:C2:19:85:10:21:0E:10:01:5B:E7:3C:51:6A:16:33:9E:72:6E:41
            X509v3 Authority Key Identifier: 
                keyid:51:C7:3A:46:B8:6B:5B:DD:AE:A2:ED:50:A1:9C:77:E9:B5:12:40:57

            X509v3 Key Usage: critical
                Digital Signature, Non Repudiation, Key Encipherment
            X509v3 Extended Key Usage: 
                TLS Web Client Authentication, E-mail Protection
    Signature Algorithm: sha256WithRSAEncryption
         85:cd:02:e4:d7:21:c4:a3:44:6a:19:73:69:25:a3:27:10:45:
         e0:dd:70:3a:1d:1e:dc:41:fe:36:58:08:9c:14:d2:5b:c0:b5:
         06:7d:1c:f9:9a:7a:f5:2d:27:7f:32:43:df:3a:c4:fb:7c:e8:
         86:62:a7:33:39:ad:5b:ca:3f:96:6c:23:fa:21:dd:46:38:b3:
         66:65:62:ea:63:7b:ac:31:c8:27:11:7c:d5:21:38:15:45:cd:
         a3:f4:a8:9b:87:22:78:97:9d:0a:45:42:20:7a:fb:48:62:c2:
         ed:c2:b4:fd:c4:0b:c9:e1:25:69:af:94:f6:ae:dd:2c:41:4d:
         d5:4e:73:34:0e:71:ce:ff:68:8b:da:92:87:90:9b:a0:24:5f:
         90:be:29:21:64:91:13:9f:a8:7b:9e:18:1e:03:0e:0a:25:6f:
         88:c1:1a:a1:94:18:46:a8:41:34:60:41:1e:b4:e1:ab:78:dc:
         31:e2:fa:96:2b:a2:d0:d3:ff:5c:06:cd:bd:1f:fd:16:67:48:
         9b:17:d8:98:e1:1c:79:d7:cc:af:2b:d0:e4:c4:24:5b:9f:41:
         26:e2:e4:bc:f0:36:b9:ab:7c:4b:1b:a2:88:bf:b1:49:af:5a:
         1f:ff:01:13:80:bc:e9:30:2f:35:94:6f:3c:a5:84:6d:68:f9:
         36:17:6c:bc
-----BEGIN CERTIFICATE-----
MIIETzCCAzegAwIBAgICEAMwDQYJKoZIhvcNAQELBQAwgYIxCzAJBgNVBAYTAkNa
MRowGAYDVQQIDBFKaWhvbW9yYXZza3kga3JhajEjMCEGA1UECgwaT3BlblN0YWNr
IENvbW1vbiBMaWJyYXJpZXMxFDASBgNVBAsMC0VuZ2luZWVyaW5nMRwwGgYDVQQD
DBNJbnRlcm1lZGlhdGUgQ0EgMDA1MB4XDTE4MDgxMDE2MjgzN1oXDTE4MDgzMTE2
MjgzN1owgYkxCzAJBgNVBAYTAkNaMRowGAYDVQQIDBFKaWhvbW9yYXZza3kga3Jh
ajENMAsGA1UEBwwEQnJubzEjMCEGA1UECgwaT3BlblN0YWNrIENvbW1vbiBMaWJy
YXJpZXMxFDASBgNVBAsMC0VuZ2luZWVyaW5nMRQwEgYDVQQDDAtOb2RlIDAwNTAw
NDCCASIwDQYJKoZIhvcNAQEBBQADggEPADCCAQoCggEBALr5DLsiw+B9kylOzDxe
r5btJjl/qI3FF4WIRLGfOXzpItzpm85hagVzfbNczVUTp6XHSm18+kvWo/HD6cGN
TWNhL/h9my6CpbvVCrjg2Qcrw3u3YFcMXPB6hlakvyd4++lgBol3WKQ2D2BOLZJT
07vj/ha5jXa8//L9pNVPJ9nCmETYOE+aM9H4bKXXcCMXNTkAnN8oBU+r+p4K5DqT
DEI8zbgUzHl75gJFgZV+Xb3Bth5c2vktpCjDniT0MypdmuPwsnDJg3ZT38fcUOsa
nbHEZcUx8e3ije7TiFcD3VntXlYmpBniSUg5viQBt+lWxgapTrTEENp/0RTvTv3i
PIMCAwEAAaOBxTCBwjAJBgNVHRMEAjAAMBEGCWCGSAGG+EIBAQQEAwIFoDAzBglg
hkgBhvhCAQ0EJhYkT3BlblNTTCBHZW5lcmF0ZWQgQ2xpZW50IENlcnRpZmljYXRl
MB0GA1UdDgQWBBRrwhmFECEOEAFb5zxRahYznnJuQTAfBgNVHSMEGDAWgBRRxzpG
uGtb3a6i7VChnHfptRJAVzAOBgNVHQ8BAf8EBAMCBeAwHQYDVR0lBBYwFAYIKwYB
BQUHAwIGCCsGAQUFBwMEMA0GCSqGSIb3DQEBCwUAA4IBAQCFzQLk1yHEo0RqGXNp
JaMnEEXg3XA6HR7cQf42WAicFNJbwLUGfRz5mnr1LSd/MkPfOsT7fOiGYqczOa1b
yj+WbCP6Id1GOLNmZWLqY3usMcgnEXzVITgVRc2j9KibhyJ4l50KRUIgevtIYsLt
wrT9xAvJ4SVpr5T2rt0sQU3VTnM0DnHO/2iL2pKHkJugJF+QvikhZJETn6h7nhge
Aw4KJW+IwRqhlBhGqEE0YEEetOGreNwx4vqWK6LQ0/9cBs29H/0WZ0ibF9iY4Rx5
18yvK9DkxCRbn0Em4uS88Da5q3xLG6KIv7FJr1of/wETgLzpMC81lG88pYRtaPk2
F2y8
-----END CERTIFICATE-----
