Certificate:
    Data:
        Version: 3 (0x2)
        Serial Number: 4097 (0x1001)
    Signature Algorithm: sha256WithRSAEncryption
        Issuer: C=CZ, ST=Jihomoravsky kraj, O=OpenStack Common Libraries, OU=Engineering, CN=Intermediate CA 005
        Validity
            Not Before: Aug 14 16:16:15 2018 GMT
            Not After : Sep  4 16:16:15 2018 GMT
        Subject: C=CZ, ST=Jihomoravsky kraj, L=Brno, O=OpenStack Common Libraries, OU=Engineering, CN=Node 005002
        Subject Public Key Info:
            Public Key Algorithm: rsaEncryption
                Public-Key: (2048 bit)
                Modulus:
                    00:c7:91:2a:cc:11:33:f6:ab:9c:90:60:f9:ce:41:
                    b6:f5:a6:e4:59:e4:14:27:5c:26:ca:65:31:17:aa:
                    82:f9:77:1e:f8:c5:13:c6:c4:02:c7:e9:79:05:96:
                    d6:da:2c:cc:5f:79:61:ce:16:b2:61:9a:7b:7a:62:
                    04:75:37:e6:3d:13:65:96:4d:eb:5a:04:f3:1c:d9:
                    6f:1d:9e:14:a2:ed:92:5e:66:b1:2c:ed:6c:62:7c:
                    96:f0:cd:f8:51:98:ef:c7:b0:33:2b:f1:66:5d:7a:
                    1f:ed:69:d9:3b:37:51:3d:16:c9:8e:67:69:43:d1:
                    1e:f2:b3:21:6d:bf:b7:d6:ca:d3:7c:c9:59:7a:19:
                    b6:6b:02:ee:ba:99:c2:7e:07:80:2f:f5:61:80:87:
                    49:f2:cb:b7:b8:bf:ae:37:ae:94:6e:c2:7a:e3:64:
                    a7:f2:1f:8f:c4:91:81:69:7e:82:73:cc:d0:35:a2:
                    ae:2f:a0:81:d5:ca:e3:ed:a8:a6:df:fd:91:1e:44:
                    22:d7:b0:8d:73:cd:66:28:e4:4b:b9:54:56:cf:f7:
                    30:8d:1c:7a:47:f2:f5:f7:ad:93:44:79:d2:29:9d:
                    35:76:f2:48:1f:b0:eb:f6:a0:ab:8b:f8:7f:25:da:
                    9e:a2:a3:16:18:6b:ea:b2:46:d4:36:c4:ec:6b:b0:
                    c2:e3
                Exponent: 65537 (0x10001)
        X509v3 extensions:
            X509v3 Basic Constraints: 
                CA:FALSE
            Netscape Cert Type: 
                SSL Client, S/MIME
            Netscape Comment: 
                OpenSSL Generated Client Certificate
            X509v3 Subject Key Identifier: 
                EA:D6:0A:D4:B0:9B:E5:EB:80:99:52:C8:24:3E:48:92:83:9E:17:31
            X509v3 Authority Key Identifier: 
                keyid:6C:E7:FB:AD:5C:6E:B3:08:08:67:09:F8:B8:C7:98:86:BE:7D:0B:20

            X509v3 Key Usage: critical
                Digital Signature, Non Repudiation, Key Encipherment
            X509v3 Extended Key Usage: 
                TLS Web Client Authentication, E-mail Protection
    Signature Algorithm: sha256WithRSAEncryption
         3b:4b:0a:7c:82:b9:63:f5:52:c6:40:67:79:98:16:f7:b4:b4:
         61:3d:8e:1a:ef:51:e7:f3:2b:68:31:42:ba:ff:94:27:74:9b:
         77:17:4f:9a:4a:a8:77:44:40:f0:7e:5d:fa:aa:80:95:b8:8b:
         ff:71:62:0d:0c:4a:a9:71:1a:4b:6c:47:07:e9:95:8d:6c:fd:
         ac:9b:26:27:01:10:06:c0:fd:a5:4d:3d:1d:8d:b6:91:13:cc:
         0e:de:34:72:0d:7d:72:97:fd:62:5d:89:c3:48:ea:cf:9e:49:
         c8:1b:a1:fd:91:4a:5d:18:4f:8d:0d:c2:56:b7:85:fc:a6:ad:
         81:0d:8f:52:ab:4f:80:bc:ca:9c:4c:e8:12:c3:8e:d6:2d:c2:
         e7:fb:65:42:a4:67:61:fd:e5:7c:4f:49:9f:7a:09:5d:ec:bb:
         07:61:71:5a:b1:a9:be:26:96:5d:b1:03:d7:a8:7e:b3:7f:3d:
         31:12:15:56:48:63:5b:14:76:a8:f8:65:03:9f:63:94:8f:3f:
         50:46:99:43:ca:c2:76:c9:8d:cd:56:5d:96:76:c8:aa:61:95:
         7e:89:9f:06:d3:8c:fc:d9:13:c4:d0:bf:d8:fb:24:32:54:05:
         9f:5a:76:1d:4c:18:a1:03:79:fd:e0:74:80:85:18:97:fb:bb:
         5e:54:35:af:95:82:9b:3d:91:0c:5f:b7:d3:a3:bd:b0:bf:b4:
         a1:96:15:40:d2:8b:2c:89:d3:9d:83:18:53:dd:4a:72:f4:00:
         9f:43:0a:80:eb:51:28:bf:d6:a4:7d:20:36:89:b0:87:ff:5d:
         ea:90:ef:65:1d:5a:8f:0c:ba:b7:da:d8:40:ef:3f:27:49:0b:
         83:3a:d2:ce:7d:a1:a0:a6:90:03:b2:35:25:e7:eb:2c:d7:ba:
         5f:72:47:c5:aa:78:f5:38:e7:51:eb:b8:ad:05:c1:c7:62:d1:
         88:37:d1:91:a7:50:d7:b1:13:d0:d9:c3:33:3c:60:22:21:92:
         73:55:0d:00:7c:40:f6:b3:60:ae:63:90:a9:9e:b8:89:4d:d5:
         a6:8a:f4:37:79:1a:a8:98:e7:83:75:bc:97:29:8c:fc:d3:2e:
         8d:e1:1a:17:77:1a:4e:af:b8:ce:2c:72:61:38:a9:8e:e6:d1:
         c4:3d:35:58:dd:13:70:a1:cf:af:52:8b:5a:76:90:47:5c:1f:
         69:6f:78:3d:89:f3:24:00:7f:6a:8d:af:5a:59:3c:f0:f9:a5:
         0a:a4:eb:82:ba:db:d4:79:2c:30:98:cb:77:3b:4a:1b:b2:74:
         92:6d:7a:5d:f1:18:2d:b9:49:21:47:92:0a:ce:59:fc:e9:fc:
         2b:d2:8d:50:84:57:b1:14
-----BEGIN CERTIFICATE-----
MIIFTzCCAzegAwIBAgICEAEwDQYJKoZIhvcNAQELBQAwgYIxCzAJBgNVBAYTAkNa
MRowGAYDVQQIDBFKaWhvbW9yYXZza3kga3JhajEjMCEGA1UECgwaT3BlblN0YWNr
IENvbW1vbiBMaWJyYXJpZXMxFDASBgNVBAsMC0VuZ2luZWVyaW5nMRwwGgYDVQQD
DBNJbnRlcm1lZGlhdGUgQ0EgMDA1MB4XDTE4MDgxNDE2MTYxNVoXDTE4MDkwNDE2
MTYxNVowgYkxCzAJBgNVBAYTAkNaMRowGAYDVQQIDBFKaWhvbW9yYXZza3kga3Jh
ajENMAsGA1UEBwwEQnJubzEjMCEGA1UECgwaT3BlblN0YWNrIENvbW1vbiBMaWJy
YXJpZXMxFDASBgNVBAsMC0VuZ2luZWVyaW5nMRQwEgYDVQQDDAtOb2RlIDAwNTAw
MjCCASIwDQYJKoZIhvcNAQEBBQADggEPADCCAQoCggEBAMeRKswRM/arnJBg+c5B
tvWm5FnkFCdcJsplMReqgvl3HvjFE8bEAsfpeQWW1toszF95Yc4WsmGae3piBHU3
5j0TZZZN61oE8xzZbx2eFKLtkl5msSztbGJ8lvDN+FGY78ewMyvxZl16H+1p2Ts3
UT0WyY5naUPRHvKzIW2/t9bK03zJWXoZtmsC7rqZwn4HgC/1YYCHSfLLt7i/rjeu
lG7CeuNkp/Ifj8SRgWl+gnPM0DWiri+ggdXK4+2opt/9kR5EItewjXPNZijkS7lU
Vs/3MI0cekfy9fetk0R50imdNXbySB+w6/agq4v4fyXanqKjFhhr6rJG1DbE7Guw
wuMCAwEAAaOBxTCBwjAJBgNVHRMEAjAAMBEGCWCGSAGG+EIBAQQEAwIFoDAzBglg
hkgBhvhCAQ0EJhYkT3BlblNTTCBHZW5lcmF0ZWQgQ2xpZW50IENlcnRpZmljYXRl
MB0GA1UdDgQWBBTq1grUsJvl64CZUsgkPkiSg54XMTAfBgNVHSMEGDAWgBRs5/ut
XG6zCAhnCfi4x5iGvn0LIDAOBgNVHQ8BAf8EBAMCBeAwHQYDVR0lBBYwFAYIKwYB
BQUHAwIGCCsGAQUFBwMEMA0GCSqGSIb3DQEBCwUAA4ICAQA7Swp8grlj9VLGQGd5
mBb3tLRhPY4a71Hn8ytoMUK6/5QndJt3F0+aSqh3REDwfl36qoCVuIv/cWINDEqp
cRpLbEcH6ZWNbP2smyYnARAGwP2lTT0djbaRE8wO3jRyDX1yl/1iXYnDSOrPnknI
G6H9kUpdGE+NDcJWt4X8pq2BDY9Sq0+AvMqcTOgSw47WLcLn+2VCpGdh/eV8T0mf
egld7LsHYXFasam+JpZdsQPXqH6zfz0xEhVWSGNbFHao+GUDn2OUjz9QRplDysJ2
yY3NVl2WdsiqYZV+iZ8G04z82RPE0L/Y+yQyVAWfWnYdTBihA3n94HSAhRiX+7te
VDWvlYKbPZEMX7fTo72wv7ShlhVA0ossidOdgxhT3Upy9ACfQwqA61Eov9akfSA2
ibCH/13qkO9lHVqPDLq32thA7z8nSQuDOtLOfaGgppADsjUl5+ss17pfckfFqnj1
OOdR67itBcHHYtGIN9GRp1DXsRPQ2cMzPGAiIZJzVQ0AfED2s2CuY5CpnriJTdWm
ivQ3eRqomOeDdbyXKYz80y6N4RoXdxpOr7jOLHJhOKmO5tHEPTVY3RNwoc+vUota
dpBHXB9pb3g9ifMkAH9qja9aWTzw+aUKpOuCutvUeSwwmMt3O0obsnSSbXpd8Rgt
uUkhR5IKzln86fwr0o1QhFexFA==
-----END CERTIFICATE-----
Certificate:
    Data:
        Version: 3 (0x2)
        Serial Number: 4101 (0x1005)
    Signature Algorithm: sha256WithRSAEncryption
        Issuer: C=CZ, ST=Jihomoravsky kraj, L=Brno, O=OpenStack Common Libraries, OU=Engineering, CN=Root CA
        Validity
            Not Before: Aug 14 16:16:13 2018 GMT
            Not After : Aug 11 16:16:13 2028 GMT
        Subject: C=CZ, ST=Jihomoravsky kraj, O=OpenStack Common Libraries, OU=Engineering, CN=Intermediate CA 005
        Subject Public Key Info:
            Public Key Algorithm: rsaEncryption
                Public-Key: (4096 bit)
                Modulus:
                    00:f3:b1:11:67:9a:d1:1b:8a:23:b8:39:01:7e:7d:
                    8a:36:f3:42:1b:ec:e1:dd:cd:06:e7:cc:ab:d2:e7:
                    e9:46:72:5c:84:77:b3:7e:1b:54:d3:a6:4e:91:c2:
                    a8:74:b9:37:2b:63:ed:98:19:31:c1:54:1e:c4:dd:
                    eb:72:68:af:e6:ab:a8:d9:b8:4a:27:37:fd:e2:b6:
                    f5:67:ff:ff:3a:47:5a:e0:31:16:05:3d:c1:7f:48:
                    7c:24:47:df:39:4e:a7:c7:65:30:7b:b0:d9:3b:b1:
                    cd:0b:a8:c4:2b:6d:83:2f:c2:ad:fc:19:7d:40:03:
                    4d:2c:bf:44:b2:74:11:74:ff:62:e4:69:d1:55:2d:
                    9e:3b:c3:ca:48:e9:49:a0:dd:ec:d2:d0:37:44:c4:
                    e0:8f:fe:37:ce:09:52:54:f5:e1:79:39:7f:a7:25:
                    91:4c:71:70:27:de:de:3e:38:dc:9f:a1:bb:54:4f:
                    64:26:a6:71:96:18:2c:24:00:e7:13:7b:47:7b:93:
                    90:81:17:f4:84:e2:e2:9b:32:41:1e:e9:17:e9:2d:
                    6e:30:98:ea:20:67:4b:2b:d1:f1:03:e5:eb:d4:00:
                    f5:13:cd:85:d4:eb:8b:7f:2a:b8:f0:fa:9d:51:8c:
                    3b:0b:71:19:c5:f6:41:65:3d:91:0a:52:8b:c3:2a:
                    7a:b4:a5:8d:79:00:67:f6:de:00:3d:a6:7f:58:fc:
                    50:46:c0:92:11:61:05:72:aa:29:9a:3a:a0:74:46:
                    e5:92:2b:02:f2:19:c9:88:67:30:aa:1f:2b:30:b5:
                    19:8e:af:2d:68:b4:22:64:6c:9d:43:fb:2e:49:7f:
                    74:19:10:a7:dd:26:ee:e9:cc:10:b4:19:1e:9f:72:
                    0b:bf:2a:0c:10:25:a4:14:1d:1d:73:4c:23:86:4e:
                    7b:4e:b5:79:eb:0c:bc:0a:37:af:13:37:ed:31:63:
                    61:67:74:b7:73:53:e7:6d:79:c3:7e:24:25:02:ed:
                    39:a1:69:44:2f:a3:f2:4d:f9:2e:70:d8:ad:c3:dd:
                    f9:e4:b7:e4:ea:a9:4f:8c:90:a9:48:c4:b3:86:30:
                    89:a8:f0:90:be:58:70:75:d2:74:61:e0:b2:65:b4:
                    3d:41:e0:85:cf:16:31:81:0f:2a:84:e9:b2:38:9a:
                    23:41:25:16:d6:6c:61:1b:4e:9e:16:47:d7:07:e3:
                    25:3b:48:04:d9:95:8b:4f:eb:05:90:83:be:75:8b:
                    7b:d5:b4:e9:a6:1b:ff:58:99:f1:72:ae:e4:2c:e9:
                    85:bd:e8:cd:c3:da:6c:68:03:60:f2:17:e8:9e:20:
                    95:c3:de:ae:8b:c1:58:22:90:ab:c4:18:7a:a6:77:
                    a4:e9:c5
                Exponent: 65537 (0x10001)
        X509v3 extensions:
            X509v3 Subject Key Identifier: 
                6C:E7:FB:AD:5C:6E:B3:08:08:67:09:F8:B8:C7:98:86:BE:7D:0B:20
            X509v3 Authority Key Identifier: 
                keyid:93:83:48:92:23:B6:C3:DA:A7:15:85:08:41:75:30:67:97:A5:D4:9C

            X509v3 Basic Constraints: critical
                CA:TRUE, pathlen:0
            X509v3 Key Usage: critical
                Digital Signature, Certificate Sign, CRL Sign
    Signature Algorithm: sha256WithRSAEncryption
         71:74:9f:31:34:b9:da:8b:84:e7:d7:1a:39:23:e3:af:a9:e4:
         e2:d4:ab:d2:35:c0:63:4e:84:35:40:34:16:e4:4e:a2:13:52:
         97:b1:2e:e8:e7:43:f7:08:e0:c0:79:91:81:2d:78:60:ac:fd:
         cb:c7:3d:45:97:af:eb:e1:87:c4:6f:fc:22:4e:0f:17:00:ff:
         a5:09:d3:8e:3f:8c:0a:27:0f:72:31:65:2d:29:9f:4f:63:a8:
         05:36:6f:82:77:d3:e7:0e:e5:94:b3:d0:cd:bf:4d:54:99:6a:
         0e:35:a3:87:26:1c:a3:79:0b:a8:8f:11:cd:92:6c:60:40:3c:
         cc:9a:2b:14:5a:c1:a7:b0:d6:82:c1:c3:d2:39:6a:6a:97:03:
         f7:33:d7:93:ae:87:5f:a0:aa:3d:cc:5b:38:e1:7f:d6:ac:a3:
         7f:58:8a:cb:cd:60:c7:77:a8:1e:f0:37:4a:54:bd:fb:e1:9a:
         1a:9e:81:18:ce:21:3b:b4:de:d1:30:28:d8:bc:40:91:5d:85:
         da:ae:1f:1b:b5:c1:f0:b5:f6:a4:b5:20:00:a0:42:38:77:d8:
         ec:30:4c:ea:4c:f9:3d:19:6b:3c:e5:8c:c8:42:60:35:ff:1d:
         65:c8:1b:79:34:b0:1d:00:fa:dc:de:7b:60:74:57:f7:ea:58:
         d1:c0:3b:f5:a7:70:ac:6d:86:36:c9:bb:56:c1:e8:24:6e:67:
         12:39:56:06:ca:02:6e:13:e1:49:93:83:37:17:6c:72:f6:7d:
         64:6c:fb:97:2e:65:c9:d6:83:ed:c3:2f:ab:61:e1:28:2c:19:
         e3:61:b4:25:a7:9e:c7:b3:78:9c:2a:25:34:71:0c:05:6a:8f:
         83:c9:7e:79:cb:f3:69:7d:b5:ae:87:82:9d:98:f4:56:1b:2e:
         ea:d4:e5:71:fb:b8:3c:04:a4:99:7e:d3:4d:6d:da:c7:e2:35:
         4e:5d:d9:9a:ea:c4:7e:8a:ee:ba:9c:5a:98:3d:a0:26:bd:e7:
         cc:22:18:07:ae:63:5c:17:7b:fb:57:45:92:ce:7f:8e:78:42:
         64:b3:83:6f:b0:e0:25:66:10:23:4b:ea:f5:75:fe:69:81:fc:
         88:94:33:c7:f7:0f:07:b6:54:9f:27:b6:1b:47:37:40:d4:5b:
         51:04:74:77:d8:5d:da:51:46:a5:50:6e:48:ec:58:b2:3e:cc:
         57:25:54:76:0f:7d:2b:23:5b:3d:5a:29:a0:a2:f2:3b:26:3a:
         42:b1:ad:15:d4:84:14:b0:78:10:12:11:42:3a:10:60:ff:f2:
         4d:1c:09:26:d9:20:1b:f5:34:b8:50:12:32:df:e0:cf:cd:54:
         19:2c:30:34:e5:c7:13:06
-----BEGIN CERTIFICATE-----
MIIF6zCCA9OgAwIBAgICEAUwDQYJKoZIhvcNAQELBQAwgYUxCzAJBgNVBAYTAkNa
MRowGAYDVQQIDBFKaWhvbW9yYXZza3kga3JhajENMAsGA1UEBwwEQnJubzEjMCEG
A1UECgwaT3BlblN0YWNrIENvbW1vbiBMaWJyYXJpZXMxFDASBgNVBAsMC0VuZ2lu
ZWVyaW5nMRAwDgYDVQQDDAdSb290IENBMB4XDTE4MDgxNDE2MTYxM1oXDTI4MDgx
MTE2MTYxM1owgYIxCzAJBgNVBAYTAkNaMRowGAYDVQQIDBFKaWhvbW9yYXZza3kg
a3JhajEjMCEGA1UECgwaT3BlblN0YWNrIENvbW1vbiBMaWJyYXJpZXMxFDASBgNV
BAsMC0VuZ2luZWVyaW5nMRwwGgYDVQQDDBNJbnRlcm1lZGlhdGUgQ0EgMDA1MIIC
IjANBgkqhkiG9w0BAQEFAAOCAg8AMIICCgKCAgEA87ERZ5rRG4ojuDkBfn2KNvNC
G+zh3c0G58yr0ufpRnJchHezfhtU06ZOkcKodLk3K2PtmBkxwVQexN3rcmiv5quo
2bhKJzf94rb1Z///Okda4DEWBT3Bf0h8JEffOU6nx2Uwe7DZO7HNC6jEK22DL8Kt
/Bl9QANNLL9EsnQRdP9i5GnRVS2eO8PKSOlJoN3s0tA3RMTgj/43zglSVPXheTl/
pyWRTHFwJ97ePjjcn6G7VE9kJqZxlhgsJADnE3tHe5OQgRf0hOLimzJBHukX6S1u
MJjqIGdLK9HxA+Xr1AD1E82F1OuLfyq48PqdUYw7C3EZxfZBZT2RClKLwyp6tKWN
eQBn9t4APaZ/WPxQRsCSEWEFcqopmjqgdEblkisC8hnJiGcwqh8rMLUZjq8taLQi
ZGydQ/suSX90GRCn3Sbu6cwQtBken3ILvyoMECWkFB0dc0wjhk57TrV56wy8Cjev
EzftMWNhZ3S3c1PnbXnDfiQlAu05oWlEL6PyTfkucNitw9355Lfk6qlPjJCpSMSz
hjCJqPCQvlhwddJ0YeCyZbQ9QeCFzxYxgQ8qhOmyOJojQSUW1mxhG06eFkfXB+Ml
O0gE2ZWLT+sFkIO+dYt71bTpphv/WJnxcq7kLOmFvejNw9psaANg8hfoniCVw96u
i8FYIpCrxBh6pnek6cUCAwEAAaNmMGQwHQYDVR0OBBYEFGzn+61cbrMICGcJ+LjH
mIa+fQsgMB8GA1UdIwQYMBaAFJODSJIjtsPapxWFCEF1MGeXpdScMBIGA1UdEwEB
/wQIMAYBAf8CAQAwDgYDVR0PAQH/BAQDAgGGMA0GCSqGSIb3DQEBCwUAA4ICAQBx
dJ8xNLnai4Tn1xo5I+OvqeTi1KvSNcBjToQ1QDQW5E6iE1KXsS7o50P3CODAeZGB
LXhgrP3Lxz1Fl6/r4YfEb/wiTg8XAP+lCdOOP4wKJw9yMWUtKZ9PY6gFNm+Cd9Pn
DuWUs9DNv01UmWoONaOHJhyjeQuojxHNkmxgQDzMmisUWsGnsNaCwcPSOWpqlwP3
M9eTrodfoKo9zFs44X/WrKN/WIrLzWDHd6ge8DdKVL374ZoanoEYziE7tN7RMCjY
vECRXYXarh8btcHwtfaktSAAoEI4d9jsMEzqTPk9GWs85YzIQmA1/x1lyBt5NLAd
APrc3ntgdFf36ljRwDv1p3CsbYY2ybtWwegkbmcSOVYGygJuE+FJk4M3F2xy9n1k
bPuXLmXJ1oPtwy+rYeEoLBnjYbQlp57Hs3icKiU0cQwFao+DyX55y/NpfbWuh4Kd
mPRWGy7q1OVx+7g8BKSZftNNbdrH4jVOXdma6sR+iu66nFqYPaAmvefMIhgHrmNc
F3v7V0WSzn+OeEJks4NvsOAlZhAjS+r1df5pgfyIlDPH9w8HtlSfJ7YbRzdA1FtR
BHR32F3aUUalUG5I7FiyPsxXJVR2D30rI1s9WimgovI7JjpCsa0V1IQUsHgQEhFC
OhBg//JNHAkm2SAb9TS4UBIy3+DPzVQZLDA05ccTBg==
-----END CERTIFICATE-----
