Certificate:
    Data:
        Version: 3 (0x2)
        Serial Number: 4100 (0x1004)
    Signature Algorithm: sha256WithRSAEncryption
        Issuer: C=CZ, ST=Jihomoravsky kraj, O=OpenStack Common Libraries, OU=Engineering, CN=Intermediate CA 005
        Validity
            Not Before: Aug 14 16:16:16 2018 GMT
            Not After : Sep  4 16:16:16 2018 GMT
        Subject: C=CZ, ST=Jihomoravsky kraj, L=Brno, O=OpenStack Common Libraries, OU=Engineering, CN=Node 005005
        Subject Public Key Info:
            Public Key Algorithm: rsaEncryption
                Public-Key: (2048 bit)
                Modulus:
                    00:ca:f9:63:49:be:a5:2b:f7:f1:18:7d:66:47:f6:
                    9b:fb:43:8b:f2:61:a4:41:be:1b:3f:8b:ec:e1:5b:
                    01:e0:fb:8c:37:7e:3c:58:b5:4a:9b:26:d7:be:ad:
                    32:64:2f:89:fb:60:cb:ba:dd:3b:9d:bc:c7:36:03:
                    1e:0d:d9:d2:dc:af:63:bf:bb:fa:97:f3:d0:a9:66:
                    11:a4:6e:43:f7:ba:f6:ad:ab:95:3b:d1:80:d5:b6:
                    dc:ce:80:67:52:72:6b:fe:57:08:3a:dc:91:50:71:
                    d0:6f:cc:a4:8f:78:76:26:c4:fc:fc:56:fd:0f:95:
                    e0:31:30:d0:cd:68:53:8c:4f:88:70:25:35:f5:30:
                    2a:1f:f4:13:b8:18:3f:8e:50:6c:78:36:bf:94:60:
                    19:ab:82:df:fb:51:80:bd:bc:77:de:1a:a3:2b:fc:
                    72:50:a0:b5:db:18:a8:4f:60:c8:73:d4:54:8d:c5:
                    92:2f:53:bb:53:6a:75:15:27:04:bd:78:5d:b3:95:
                    57:4d:73:4d:54:c0:d9:62:25:26:bf:a3:1c:73:fb:
                    9f:ca:6f:c2:fa:00:08:92:62:68:59:07:a2:85:a4:
                    dc:f8:3a:fb:c0:a8:44:33:cf:d6:c6:de:0a:02:20:
                    11:89:11:25:97:d5:d8:51:a2:90:6a:99:1d:7c:7f:
                    36:a9
                Exponent: 65537 (0x10001)
        X509v3 extensions:
            X509v3 Basic Constraints: 
                CA:FALSE
            Netscape Cert Type: 
                SSL Client, S/MIME
            Netscape Comment: 
                OpenSSL Generated Client Certificate
            X509v3 Subject Key Identifier: 
                80:01:9F:72:DD:D1:58:8C:CF:1F:41:66:40:9B:25:7F:1F:50:10:A4
            X509v3 Authority Key Identifier: 
                keyid:6C:E7:FB:AD:5C:6E:B3:08:08:67:09:F8:B8:C7:98:86:BE:7D:0B:20

            X509v3 Key Usage: critical
                Digital Signature, Non Repudiation, Key Encipherment
            X509v3 Extended Key Usage: 
                TLS Web Client Authentication, E-mail Protection
    Signature Algorithm: sha256WithRSAEncryption
         7e:65:ba:0b:e3:61:4b:28:c8:ac:4a:d5:7b:58:55:66:d3:30:
         47:d7:e9:06:87:6c:f9:c5:25:10:d6:32:5f:31:bd:9f:b4:f2:
         ab:31:20:d9:ac:55:dc:8b:ad:24:a9:98:7e:9a:b4:20:3c:ba:
         60:66:a4:2d:b7:6d:5f:cd:cf:d8:a2:e4:a0:91:ad:e2:d0:d8:
         8d:80:4b:92:65:97:24:c4:e0:1b:02:65:92:87:0c:fc:9e:c3:
         3c:7d:01:a1:ff:38:23:92:ba:00:c6:66:41:79:f4:fc:3d:09:
         f9:b9:58:ce:91:e8:2e:38:7a:c5:d8:4d:9b:7c:7b:88:f8:98:
         82:77:27:b1:93:a5:89:35:87:f7:97:db:21:c8:41:e2:af:fb:
         18:bb:92:36:3c:91:9f:98:98:f5:87:1d:11:80:68:70:4e:9b:
         22:82:69:ed:6b:c3:a1:42:6d:61:fd:a6:8a:ae:3d:7b:93:7f:
         40:36:de:9c:6a:6a:3d:b5:86:23:75:5f:e5:95:08:52:b9:ef:
         86:d6:3a:c9:91:a8:7c:db:1e:c5:6d:c1:b2:0f:9b:cb:22:17:
         88:e7:1b:a8:9f:3d:03:31:cb:fc:3b:55:97:9e:c5:49:c7:f7:
         c8:1a:cf:58:cb:76:69:d6:5b:b0:4d:05:80:5c:0e:cb:a4:e3:
         6f:3f:77:b3:3d:c7:15:a1:39:d2:e1:7f:65:33:4a:1c:2b:ee:
         c4:ad:d8:b0:02:ce:17:30:db:b7:82:9e:48:6c:d0:54:f1:bc:
         6f:48:f6:b2:b0:2c:9a:4b:e1:bb:57:ad:09:bb:cd:bc:1d:ac:
         3e:20:52:87:7e:fc:6b:d9:6b:50:63:d9:00:0a:61:1e:bc:eb:
         ba:4f:ba:0a:35:e8:ff:a5:c5:26:a5:0e:04:78:c7:ae:d9:0c:
         41:12:f7:83:a7:28:76:3e:0f:99:2a:d6:c5:0e:41:de:66:2b:
         53:f5:ca:24:40:e2:3e:7c:db:e1:b9:c6:49:75:2d:e7:72:da:
         4a:57:ec:0a:76:c0:d0:ba:7b:44:ad:a8:d0:d1:b1:df:00:27:
         12:43:a2:5f:5e:97:54:7e:16:85:75:5e:9a:3b:89:cc:b8:e4:
         b8:7a:e5:5b:0d:21:96:9c:4b:3c:7c:78:24:c0:91:0e:31:4d:
         f4:a6:57:1c:83:ee:a3:b3:78:b2:f0:cb:d8:79:d8:9f:19:55:
         a3:5c:41:cf:ee:61:35:af:ae:9d:81:bf:13:6b:80:c5:82:d8:
         d2:c7:d5:00:53:f4:0a:1d:32:6f:54:1f:bc:5c:29:d1:8b:05:
         8c:d8:65:dd:8d:f0:79:eb:24:f9:b9:24:99:fc:68:a0:cc:bd:
         82:2b:88:47:fb:70:7b:22
-----BEGIN CERTIFICATE-----
MIIFTzCCAzegAwIBAgICEAQwDQYJKoZIhvcNAQELBQAwgYIxCzAJBgNVBAYTAkNa
MRowGAYDVQQIDBFKaWhvbW9yYXZza3kga3JhajEjMCEGA1UECgwaT3BlblN0YWNr
IENvbW1vbiBMaWJyYXJpZXMxFDASBgNVBAsMC0VuZ2luZWVyaW5nMRwwGgYDVQQD
DBNJbnRlcm1lZGlhdGUgQ0EgMDA1MB4XDTE4MDgxNDE2MTYxNloXDTE4MDkwNDE2
MTYxNlowgYkxCzAJBgNVBAYTAkNaMRowGAYDVQQIDBFKaWhvbW9yYXZza3kga3Jh
ajENMAsGA1UEBwwEQnJubzEjMCEGA1UECgwaT3BlblN0YWNrIENvbW1vbiBMaWJy
YXJpZXMxFDASBgNVBAsMC0VuZ2luZWVyaW5nMRQwEgYDVQQDDAtOb2RlIDAwNTAw
NTCCASIwDQYJKoZIhvcNAQEBBQADggEPADCCAQoCggEBAMr5Y0m+pSv38Rh9Zkf2
m/tDi/JhpEG+Gz+L7OFbAeD7jDd+PFi1Spsm176tMmQviftgy7rdO528xzYDHg3Z
0tyvY7+7+pfz0KlmEaRuQ/e69q2rlTvRgNW23M6AZ1Jya/5XCDrckVBx0G/MpI94
dibE/PxW/Q+V4DEw0M1oU4xPiHAlNfUwKh/0E7gYP45QbHg2v5RgGauC3/tRgL28
d94aoyv8clCgtdsYqE9gyHPUVI3Fki9Tu1NqdRUnBL14XbOVV01zTVTA2WIlJr+j
HHP7n8pvwvoACJJiaFkHooWk3Pg6+8CoRDPP1sbeCgIgEYkRJZfV2FGikGqZHXx/
NqkCAwEAAaOBxTCBwjAJBgNVHRMEAjAAMBEGCWCGSAGG+EIBAQQEAwIFoDAzBglg
hkgBhvhCAQ0EJhYkT3BlblNTTCBHZW5lcmF0ZWQgQ2xpZW50IENlcnRpZmljYXRl
MB0GA1UdDgQWBBSAAZ9y3dFYjM8fQWZAmyV/H1AQpDAfBgNVHSMEGDAWgBRs5/ut
XG6zCAhnCfi4x5iGvn0LIDAOBgNVHQ8BAf8EBAMCBeAwHQYDVR0lBBYwFAYIKwYB
BQUHAwIGCCsGAQUFBwMEMA0GCSqGSIb3DQEBCwUAA4ICAQB+ZboL42FLKMisStV7
WFVm0zBH1+kGh2z5xSUQ1jJfMb2ftPKrMSDZrFXci60kqZh+mrQgPLpgZqQtt21f
zc/YouSgka3i0NiNgEuSZZckxOAbAmWShwz8nsM8fQGh/zgjkroAxmZBefT8PQn5
uVjOkeguOHrF2E2bfHuI+JiCdyexk6WJNYf3l9shyEHir/sYu5I2PJGfmJj1hx0R
gGhwTpsigmnta8OhQm1h/aaKrj17k39ANt6camo9tYYjdV/llQhSue+G1jrJkah8
2x7FbcGyD5vLIheI5xuonz0DMcv8O1WXnsVJx/fIGs9Yy3Zp1luwTQWAXA7LpONv
P3ezPccVoTnS4X9lM0ocK+7ErdiwAs4XMNu3gp5IbNBU8bxvSPaysCyaS+G7V60J
u828Haw+IFKHfvxr2WtQY9kACmEevOu6T7oKNej/pcUmpQ4EeMeu2QxBEveDpyh2
Pg+ZKtbFDkHeZitT9cokQOI+fNvhucZJdS3nctpKV+wKdsDQuntErajQ0bHfACcS
Q6JfXpdUfhaFdV6aO4nMuOS4euVbDSGWnEs8fHgkwJEOMU30plccg+6js3iy8MvY
edifGVWjXEHP7mE1r66dgb8Ta4DFgtjSx9UAU/QKHTJvVB+8XCnRiwWM2GXdjfB5
6yT5uSSZ/GigzL2CK4hH+3B7Ig==
-----END CERTIFICATE-----
Certificate:
    Data:
        Version: 3 (0x2)
        Serial Number: 4101 (0x1005)
    Signature Algorithm: sha256WithRSAEncryption
        Issuer: C=CZ, ST=Jihomoravsky kraj, L=Brno, O=OpenStack Common Libraries, OU=Engineering, CN=Root CA
        Validity
            Not Before: Aug 14 16:16:13 2018 GMT
            Not After : Aug 11 16:16:13 2028 GMT
        Subject: C=CZ, ST=Jihomoravsky kraj, O=OpenStack Common Libraries, OU=Engineering, CN=Intermediate CA 005
        Subject Public Key Info:
            Public Key Algorithm: rsaEncryption
                Public-Key: (4096 bit)
                Modulus:
                    00:f3:b1:11:67:9a:d1:1b:8a:23:b8:39:01:7e:7d:
                    8a:36:f3:42:1b:ec:e1:dd:cd:06:e7:cc:ab:d2:e7:
                    e9:46:72:5c:84:77:b3:7e:1b:54:d3:a6:4e:91:c2:
                    a8:74:b9:37:2b:63:ed:98:19:31:c1:54:1e:c4:dd:
                    eb:72:68:af:e6:ab:a8:d9:b8:4a:27:37:fd:e2:b6:
                    f5:67:ff:ff:3a:47:5a:e0:31:16:05:3d:c1:7f:48:
                    7c:24:47:df:39:4e:a7:c7:65:30:7b:b0:d9:3b:b1:
                    cd:0b:a8:c4:2b:6d:83:2f:c2:ad:fc:19:7d:40:03:
                    4d:2c:bf:44:b2:74:11:74:ff:62:e4:69:d1:55:2d:
                    9e:3b:c3:ca:48:e9:49:a0:dd:ec:d2:d0:37:44:c4:
                    e0:8f:fe:37:ce:09:52:54:f5:e1:79:39:7f:a7:25:
                    91:4c:71:70:27:de:de:3e:38:dc:9f:a1:bb:54:4f:
                    64:26:a6:71:96:18:2c:24:00:e7:13:7b:47:7b:93:
                    90:81:17:f4:84:e2:e2:9b:32:41:1e:e9:17:e9:2d:
                    6e:30:98:ea:20:67:4b:2b:d1:f1:03:e5:eb:d4:00:
                    f5:13:cd:85:d4:eb:8b:7f:2a:b8:f0:fa:9d:51:8c:
                    3b:0b:71:19:c5:f6:41:65:3d:91:0a:52:8b:c3:2a:
                    7a:b4:a5:8d:79:00:67:f6:de:00:3d:a6:7f:58:fc:
                    50:46:c0:92:11:61:05:72:aa:29:9a:3a:a0:74:46:
                    e5:92:2b:02:f2:19:c9:88:67:30:aa:1f:2b:30:b5:
                    19:8e:af:2d:68:b4:22:64:6c:9d:43:fb:2e:49:7f:
                    74:19:10:a7:dd:26:ee:e9:cc:10:b4:19:1e:9f:72:
                    0b:bf:2a:0c:10:25:a4:14:1d:1d:73:4c:23:86:4e:
                    7b:4e:b5:79:eb:0c:bc:0a:37:af:13:37:ed:31:63:
                    61:67:74:b7:73:53:e7:6d:79:c3:7e:24:25:02:ed:
                    39:a1:69:44:2f:a3:f2:4d:f9:2e:70:d8:ad:c3:dd:
                    f9:e4:b7:e4:ea:a9:4f:8c:90:a9:48:c4:b3:86:30:
                    89:a8:f0:90:be:58:70:75:d2:74:61:e0:b2:65:b4:
                    3d:41:e0:85:cf:16:31:81:0f:2a:84:e9:b2:38:9a:
                    23:41:25:16:d6:6c:61:1b:4e:9e:16:47:d7:07:e3:
                    25:3b:48:04:d9:95:8b:4f:eb:05:90:83:be:75:8b:
                    7b:d5:b4:e9:a6:1b:ff:58:99:f1:72:ae:e4:2c:e9:
                    85:bd:e8:cd:c3:da:6c:68:03:60:f2:17:e8:9e:20:
                    95:c3:de:ae:8b:c1:58:22:90:ab:c4:18:7a:a6:77:
                    a4:e9:c5
                Exponent: 65537 (0x10001)
        X509v3 extensions:
            X509v3 Subject Key Identifier: 
                6C:E7:FB:AD:5C:6E:B3:08:08:67:09:F8:B8:C7:98:86:BE:7D:0B:20
            X509v3 Authority Key Identifier: 
                keyid:93:83:48:92:23:B6:C3:DA:A7:15:85:08:41:75:30:67:97:A5:D4:9C

            X509v3 Basic Constraints: critical
                CA:TRUE, pathlen:0
            X509v3 Key Usage: critical
                Digital Signature, Certificate Sign, CRL Sign
    Signature Algorithm: sha256WithRSAEncryption
         71:74:9f:31:34:b9:da:8b:84:e7:d7:1a:39:23:e3:af:a9:e4:
         e2:d4:ab:d2:35:c0:63:4e:84:35:40:34:16:e4:4e:a2:13:52:
         97:b1:2e:e8:e7:43:f7:08:e0:c0:79:91:81:2d:78:60:ac:fd:
         cb:c7:3d:45:97:af:eb:e1:87:c4:6f:fc:22:4e:0f:17:00:ff:
         a5:09:d3:8e:3f:8c:0a:27:0f:72:31:65:2d:29:9f:4f:63:a8:
         05:36:6f:82:77:d3:e7:0e:e5:94:b3:d0:cd:bf:4d:54:99:6a:
         0e:35:a3:87:26:1c:a3:79:0b:a8:8f:11:cd:92:6c:60:40:3c:
         cc:9a:2b:14:5a:c1:a7:b0:d6:82:c1:c3:d2:39:6a:6a:97:03:
         f7:33:d7:93:ae:87:5f:a0:aa:3d:cc:5b:38:e1:7f:d6:ac:a3:
         7f:58:8a:cb:cd:60:c7:77:a8:1e:f0:37:4a:54:bd:fb:e1:9a:
         1a:9e:81:18:ce:21:3b:b4:de:d1:30:28:d8:bc:40:91:5d:85:
         da:ae:1f:1b:b5:c1:f0:b5:f6:a4:b5:20:00:a0:42:38:77:d8:
         ec:30:4c:ea:4c:f9:3d:19:6b:3c:e5:8c:c8:42:60:35:ff:1d:
         65:c8:1b:79:34:b0:1d:00:fa:dc:de:7b:60:74:57:f7:ea:58:
         d1:c0:3b:f5:a7:70:ac:6d:86:36:c9:bb:56:c1:e8:24:6e:67:
         12:39:56:06:ca:02:6e:13:e1:49:93:83:37:17:6c:72:f6:7d:
         64:6c:fb:97:2e:65:c9:d6:83:ed:c3:2f:ab:61:e1:28:2c:19:
         e3:61:b4:25:a7:9e:c7:b3:78:9c:2a:25:34:71:0c:05:6a:8f:
         83:c9:7e:79:cb:f3:69:7d:b5:ae:87:82:9d:98:f4:56:1b:2e:
         ea:d4:e5:71:fb:b8:3c:04:a4:99:7e:d3:4d:6d:da:c7:e2:35:
         4e:5d:d9:9a:ea:c4:7e:8a:ee:ba:9c:5a:98:3d:a0:26:bd:e7:
         cc:22:18:07:ae:63:5c:17:7b:fb:57:45:92:ce:7f:8e:78:42:
         64:b3:83:6f:b0:e0:25:66:10:23:4b:ea:f5:75:fe:69:81:fc:
         88:94:33:c7:f7:0f:07:b6:54:9f:27:b6:1b:47:37:40:d4:5b:
         51:04:74:77:d8:5d:da:51:46:a5:50:6e:48:ec:58:b2:3e:cc:
         57:25:54:76:0f:7d:2b:23:5b:3d:5a:29:a0:a2:f2:3b:26:3a:
         42:b1:ad:15:d4:84:14:b0:78:10:12:11:42:3a:10:60:ff:f2:
         4d:1c:09:26:d9:20:1b:f5:34:b8:50:12:32:df:e0:cf:cd:54:
         19:2c:30:34:e5:c7:13:06
-----BEGIN CERTIFICATE-----
MIIF6zCCA9OgAwIBAgICEAUwDQYJKoZIhvcNAQELBQAwgYUxCzAJBgNVBAYTAkNa
MRowGAYDVQQIDBFKaWhvbW9yYXZza3kga3JhajENMAsGA1UEBwwEQnJubzEjMCEG
A1UECgwaT3BlblN0YWNrIENvbW1vbiBMaWJyYXJpZXMxFDASBgNVBAsMC0VuZ2lu
ZWVyaW5nMRAwDgYDVQQDDAdSb290IENBMB4XDTE4MDgxNDE2MTYxM1oXDTI4MDgx
MTE2MTYxM1owgYIxCzAJBgNVBAYTAkNaMRowGAYDVQQIDBFKaWhvbW9yYXZza3kg
a3JhajEjMCEGA1UECgwaT3BlblN0YWNrIENvbW1vbiBMaWJyYXJpZXMxFDASBgNV
BAsMC0VuZ2luZWVyaW5nMRwwGgYDVQQDDBNJbnRlcm1lZGlhdGUgQ0EgMDA1MIIC
IjANBgkqhkiG9w0BAQEFAAOCAg8AMIICCgKCAgEA87ERZ5rRG4ojuDkBfn2KNvNC
G+zh3c0G58yr0ufpRnJchHezfhtU06ZOkcKodLk3K2PtmBkxwVQexN3rcmiv5quo
2bhKJzf94rb1Z///Okda4DEWBT3Bf0h8JEffOU6nx2Uwe7DZO7HNC6jEK22DL8Kt
/Bl9QANNLL9EsnQRdP9i5GnRVS2eO8PKSOlJoN3s0tA3RMTgj/43zglSVPXheTl/
pyWRTHFwJ97ePjjcn6G7VE9kJqZxlhgsJADnE3tHe5OQgRf0hOLimzJBHukX6S1u
MJjqIGdLK9HxA+Xr1AD1E82F1OuLfyq48PqdUYw7C3EZxfZBZT2RClKLwyp6tKWN
eQBn9t4APaZ/WPxQRsCSEWEFcqopmjqgdEblkisC8hnJiGcwqh8rMLUZjq8taLQi
ZGydQ/suSX90GRCn3Sbu6cwQtBken3ILvyoMECWkFB0dc0wjhk57TrV56wy8Cjev
EzftMWNhZ3S3c1PnbXnDfiQlAu05oWlEL6PyTfkucNitw9355Lfk6qlPjJCpSMSz
hjCJqPCQvlhwddJ0YeCyZbQ9QeCFzxYxgQ8qhOmyOJojQSUW1mxhG06eFkfXB+Ml
O0gE2ZWLT+sFkIO+dYt71bTpphv/WJnxcq7kLOmFvejNw9psaANg8hfoniCVw96u
i8FYIpCrxBh6pnek6cUCAwEAAaNmMGQwHQYDVR0OBBYEFGzn+61cbrMICGcJ+LjH
mIa+fQsgMB8GA1UdIwQYMBaAFJODSJIjtsPapxWFCEF1MGeXpdScMBIGA1UdEwEB
/wQIMAYBAf8CAQAwDgYDVR0PAQH/BAQDAgGGMA0GCSqGSIb3DQEBCwUAA4ICAQBx
dJ8xNLnai4Tn1xo5I+OvqeTi1KvSNcBjToQ1QDQW5E6iE1KXsS7o50P3CODAeZGB
LXhgrP3Lxz1Fl6/r4YfEb/wiTg8XAP+lCdOOP4wKJw9yMWUtKZ9PY6gFNm+Cd9Pn
DuWUs9DNv01UmWoONaOHJhyjeQuojxHNkmxgQDzMmisUWsGnsNaCwcPSOWpqlwP3
M9eTrodfoKo9zFs44X/WrKN/WIrLzWDHd6ge8DdKVL374ZoanoEYziE7tN7RMCjY
vECRXYXarh8btcHwtfaktSAAoEI4d9jsMEzqTPk9GWs85YzIQmA1/x1lyBt5NLAd
APrc3ntgdFf36ljRwDv1p3CsbYY2ybtWwegkbmcSOVYGygJuE+FJk4M3F2xy9n1k
bPuXLmXJ1oPtwy+rYeEoLBnjYbQlp57Hs3icKiU0cQwFao+DyX55y/NpfbWuh4Kd
mPRWGy7q1OVx+7g8BKSZftNNbdrH4jVOXdma6sR+iu66nFqYPaAmvefMIhgHrmNc
F3v7V0WSzn+OeEJks4NvsOAlZhAjS+r1df5pgfyIlDPH9w8HtlSfJ7YbRzdA1FtR
BHR32F3aUUalUG5I7FiyPsxXJVR2D30rI1s9WimgovI7JjpCsa0V1IQUsHgQEhFC
OhBg//JNHAkm2SAb9TS4UBIy3+DPzVQZLDA05ccTBg==
-----END CERTIFICATE-----
