Certificate:
    Data:
        Version: 3 (0x2)
        Serial Number: 4100 (0x1004)
    Signature Algorithm: sha256WithRSAEncryption
        Issuer: C=CZ, ST=Jihomoravsky kraj, O=OpenStack Common Libraries, OU=Engineering, CN=Intermediate CA 005
        Validity
            Not Before: Aug 14 16:16:16 2018 GMT
            Not After : Sep  4 16:16:16 2018 GMT
        Subject: C=CZ, ST=Jihomoravsky kraj, L=Brno, O=OpenStack Common Libraries, OU=Engineering, CN=Node 005005
        Subject Public Key Info:
            Public Key Algorithm: rsaEncryption
                Public-Key: (2048 bit)
                Modulus:
                    00:ca:f9:63:49:be:a5:2b:f7:f1:18:7d:66:47:f6:
                    9b:fb:43:8b:f2:61:a4:41:be:1b:3f:8b:ec:e1:5b:
                    01:e0:fb:8c:37:7e:3c:58:b5:4a:9b:26:d7:be:ad:
                    32:64:2f:89:fb:60:cb:ba:dd:3b:9d:bc:c7:36:03:
                    1e:0d:d9:d2:dc:af:63:bf:bb:fa:97:f3:d0:a9:66:
                    11:a4:6e:43:f7:ba:f6:ad:ab:95:3b:d1:80:d5:b6:
                    dc:ce:80:67:52:72:6b:fe:57:08:3a:dc:91:50:71:
                    d0:6f:cc:a4:8f:78:76:26:c4:fc:fc:56:fd:0f:95:
                    e0:31:30:d0:cd:68:53:8c:4f:88:70:25:35:f5:30:
                    2a:1f:f4:13:b8:18:3f:8e:50:6c:78:36:bf:94:60:
                    19:ab:82:df:fb:51:80:bd:bc:77:de:1a:a3:2b:fc:
                    72:50:a0:b5:db:18:a8:4f:60:c8:73:d4:54:8d:c5:
                    92:2f:53:bb:53:6a:75:15:27:04:bd:78:5d:b3:95:
                    57:4d:73:4d:54:c0:d9:62:25:26:bf:a3:1c:73:fb:
                    9f:ca:6f:c2:fa:00:08:92:62:68:59:07:a2:85:a4:
                    dc:f8:3a:fb:c0:a8:44:33:cf:d6:c6:de:0a:02:20:
                    11:89:11:25:97:d5:d8:51:a2:90:6a:99:1d:7c:7f:
                    36:a9
                Exponent: 65537 (0x10001)
        X509v3 extensions:
            X509v3 Basic Constraints: 
                CA:FALSE
            Netscape Cert Type: 
                SSL Client, S/MIME
            Netscape Comment: 
                OpenSSL Generated Client Certificate
            X509v3 Subject Key Identifier: 
                80:01:9F:72:DD:D1:58:8C:CF:1F:41:66:40:9B:25:7F:1F:50:10:A4
            X509v3 Authority Key Identifier: 
                keyid:6C:E7:FB:AD:5C:6E:B3:08:08:67:09:F8:B8:C7:98:86:BE:7D:0B:20

            X509v3 Key Usage: critical
                Digital Signature, Non Repudiation, Key Encipherment
            X509v3 Extended Key Usage: 
                TLS Web Client Authentication, E-mail Protection
    Signature Algorithm: sha256WithRSAEncryption
         7e:65:ba:0b:e3:61:4b:28:c8:ac:4a:d5:7b:58:55:66:d3:30:
         47:d7:e9:06:87:6c:f9:c5:25:10:d6:32:5f:31:bd:9f:b4:f2:
         ab:31:20:d9:ac:55:dc:8b:ad:24:a9:98:7e:9a:b4:20:3c:ba:
         60:66:a4:2d:b7:6d:5f:cd:cf:d8:a2:e4:a0:91:ad:e2:d0:d8:
         8d:80:4b:92:65:97:24:c4:e0:1b:02:65:92:87:0c:fc:9e:c3:
         3c:7d:01:a1:ff:38:23:92:ba:00:c6:66:41:79:f4:fc:3d:09:
         f9:b9:58:ce:91:e8:2e:38:7a:c5:d8:4d:9b:7c:7b:88:f8:98:
         82:77:27:b1:93:a5:89:35:87:f7:97:db:21:c8:41:e2:af:fb:
         18:bb:92:36:3c:91:9f:98:98:f5:87:1d:11:80:68:70:4e:9b:
         22:82:69:ed:6b:c3:a1:42:6d:61:fd:a6:8a:ae:3d:7b:93:7f:
         40:36:de:9c:6a:6a:3d:b5:86:23:75:5f:e5:95:08:52:b9:ef:
         86:d6:3a:c9:91:a8:7c:db:1e:c5:6d:c1:b2:0f:9b:cb:22:17:
         88:e7:1b:a8:9f:3d:03:31:cb:fc:3b:55:97:9e:c5:49:c7:f7:
         c8:1a:cf:58:cb:76:69:d6:5b:b0:4d:05:80:5c:0e:cb:a4:e3:
         6f:3f:77:b3:3d:c7:15:a1:39:d2:e1:7f:65:33:4a:1c:2b:ee:
         c4:ad:d8:b0:02:ce:17:30:db:b7:82:9e:48:6c:d0:54:f1:bc:
         6f:48:f6:b2:b0:2c:9a:4b:e1:bb:57:ad:09:bb:cd:bc:1d:ac:
         3e:20:52:87:7e:fc:6b:d9:6b:50:63:d9:00:0a:61:1e:bc:eb:
         ba:4f:ba:0a:35:e8:ff:a5:c5:26:a5:0e:04:78:c7:ae:d9:0c:
         41:12:f7:83:a7:28:76:3e:0f:99:2a:d6:c5:0e:41:de:66:2b:
         53:f5:ca:24:40:e2:3e:7c:db:e1:b9:c6:49:75:2d:e7:72:da:
         4a:57:ec:0a:76:c0:d0:ba:7b:44:ad:a8:d0:d1:b1:df:00:27:
         12:43:a2:5f:5e:97:54:7e:16:85:75:5e:9a:3b:89:cc:b8:e4:
         b8:7a:e5:5b:0d:21:96:9c:4b:3c:7c:78:24:c0:91:0e:31:4d:
         f4:a6:57:1c:83:ee:a3:b3:78:b2:f0:cb:d8:79:d8:9f:19:55:
         a3:5c:41:cf:ee:61:35:af:ae:9d:81:bf:13:6b:80:c5:82:d8:
         d2:c7:d5:00:53:f4:0a:1d:32:6f:54:1f:bc:5c:29:d1:8b:05:
         8c:d8:65:dd:8d:f0:79:eb:24:f9:b9:24:99:fc:68:a0:cc:bd:
         82:2b:88:47:fb:70:7b:22
-----BEGIN CERTIFICATE-----
MIIFTzCCAzegAwIBAgICEAQwDQYJKoZIhvcNAQELBQAwgYIxCzAJBgNVBAYTAkNa
MRowGAYDVQQIDBFKaWhvbW9yYXZza3kga3JhajEjMCEGA1UECgwaT3BlblN0YWNr
IENvbW1vbiBMaWJyYXJpZXMxFDASBgNVBAsMC0VuZ2luZWVyaW5nMRwwGgYDVQQD
DBNJbnRlcm1lZGlhdGUgQ0EgMDA1MB4XDTE4MDgxNDE2MTYxNloXDTE4MDkwNDE2
MTYxNlowgYkxCzAJBgNVBAYTAkNaMRowGAYDVQQIDBFKaWhvbW9yYXZza3kga3Jh
ajENMAsGA1UEBwwEQnJubzEjMCEGA1UECgwaT3BlblN0YWNrIENvbW1vbiBMaWJy
YXJpZXMxFDASBgNVBAsMC0VuZ2luZWVyaW5nMRQwEgYDVQQDDAtOb2RlIDAwNTAw
NTCCASIwDQYJKoZIhvcNAQEBBQADggEPADCCAQoCggEBAMr5Y0m+pSv38Rh9Zkf2
m/tDi/JhpEG+Gz+L7OFbAeD7jDd+PFi1Spsm176tMmQviftgy7rdO528xzYDHg3Z
0tyvY7+7+pfz0KlmEaRuQ/e69q2rlTvRgNW23M6AZ1Jya/5XCDrckVBx0G/MpI94
dibE/PxW/Q+V4DEw0M1oU4xPiHAlNfUwKh/0E7gYP45QbHg2v5RgGauC3/tRgL28
d94aoyv8clCgtdsYqE9gyHPUVI3Fki9Tu1NqdRUnBL14XbOVV01zTVTA2WIlJr+j
HHP7n8pvwvoACJJiaFkHooWk3Pg6+8CoRDPP1sbeCgIgEYkRJZfV2FGikGqZHXx/
NqkCAwEAAaOBxTCBwjAJBgNVHRMEAjAAMBEGCWCGSAGG+EIBAQQEAwIFoDAzBglg
hkgBhvhCAQ0EJhYkT3BlblNTTCBHZW5lcmF0ZWQgQ2xpZW50IENlcnRpZmljYXRl
MB0GA1UdDgQWBBSAAZ9y3dFYjM8fQWZAmyV/H1AQpDAfBgNVHSMEGDAWgBRs5/ut
XG6zCAhnCfi4x5iGvn0LIDAOBgNVHQ8BAf8EBAMCBeAwHQYDVR0lBBYwFAYIKwYB
BQUHAwIGCCsGAQUFBwMEMA0GCSqGSIb3DQEBCwUAA4ICAQB+ZboL42FLKMisStV7
WFVm0zBH1+kGh2z5xSUQ1jJfMb2ftPKrMSDZrFXci60kqZh+mrQgPLpgZqQtt21f
zc/YouSgka3i0NiNgEuSZZckxOAbAmWShwz8nsM8fQGh/zgjkroAxmZBefT8PQn5
uVjOkeguOHrF2E2bfHuI+JiCdyexk6WJNYf3l9shyEHir/sYu5I2PJGfmJj1hx0R
gGhwTpsigmnta8OhQm1h/aaKrj17k39ANt6camo9tYYjdV/llQhSue+G1jrJkah8
2x7FbcGyD5vLIheI5xuonz0DMcv8O1WXnsVJx/fIGs9Yy3Zp1luwTQWAXA7LpONv
P3ezPccVoTnS4X9lM0ocK+7ErdiwAs4XMNu3gp5IbNBU8bxvSPaysCyaS+G7V60J
u828Haw+IFKHfvxr2WtQY9kACmEevOu6T7oKNej/pcUmpQ4EeMeu2QxBEveDpyh2
Pg+ZKtbFDkHeZitT9cokQOI+fNvhucZJdS3nctpKV+wKdsDQuntErajQ0bHfACcS
Q6JfXpdUfhaFdV6aO4nMuOS4euVbDSGWnEs8fHgkwJEOMU30plccg+6js3iy8MvY
edifGVWjXEHP7mE1r66dgb8Ta4DFgtjSx9UAU/QKHTJvVB+8XCnRiwWM2GXdjfB5
6yT5uSSZ/GigzL2CK4hH+3B7Ig==
-----END CERTIFICATE-----
