Certificate:
    Data:
        Version: 3 (0x2)
        Serial Number: 4098 (0x1002)
    Signature Algorithm: sha256WithRSAEncryption
        Issuer: C=CZ, ST=Jihomoravsky kraj, O=OpenStack Common Libraries, OU=Engineering, CN=Intermediate CA 005
        Validity
            Not Before: Aug 14 16:16:15 2018 GMT
            Not After : Sep  4 16:16:15 2018 GMT
        Subject: C=CZ, ST=Jihomoravsky kraj, L=Brno, O=OpenStack Common Libraries, OU=Engineering, CN=Node 005003
        Subject Public Key Info:
            Public Key Algorithm: rsaEncryption
                Public-Key: (2048 bit)
                Modulus:
                    00:9c:ba:ac:36:c1:5e:ff:0d:fd:fe:87:e2:5c:09:
                    9f:22:a0:3c:97:50:52:52:63:01:6a:30:a0:72:e1:
                    1b:63:25:90:a3:0a:a2:a9:04:39:78:3d:c7:03:38:
                    0e:83:ae:7e:47:1e:cb:4d:9c:a7:d8:f8:fe:5b:c9:
                    e6:f7:49:91:2f:33:bd:69:68:14:2b:ad:a5:8b:40:
                    b8:4a:a1:60:bb:dc:74:20:0c:f8:a5:ca:3f:1e:9f:
                    fd:82:3f:99:7f:b5:86:05:8b:a0:37:50:e7:d3:a1:
                    b2:47:fc:8f:e8:6b:3d:39:88:62:c8:dc:22:6a:74:
                    e9:24:5e:5f:00:6c:5e:fe:ac:d4:46:b2:a5:bb:ba:
                    c9:27:c6:83:fc:d1:57:9d:30:c3:52:3a:3b:69:ca:
                    77:16:01:14:2d:c6:bd:8b:ef:11:94:b7:c1:06:b5:
                    f8:57:16:90:a6:b3:b4:7b:68:65:29:0b:cb:64:c8:
                    2c:a0:f6:dc:33:8c:8e:49:e8:fc:2a:1a:ab:6b:a9:
                    91:65:90:7d:2a:14:5b:40:7a:32:aa:78:52:69:9a:
                    f5:b9:54:45:46:1d:f5:46:f6:94:7a:a2:f5:c3:12:
                    5a:56:93:ac:f9:74:6e:82:d4:8e:82:ee:01:c2:14:
                    7f:f5:9f:49:2a:33:84:ad:5b:df:a7:7c:85:39:11:
                    ff:2b
                Exponent: 65537 (0x10001)
        X509v3 extensions:
            X509v3 Basic Constraints: 
                CA:FALSE
            Netscape Cert Type: 
                SSL Client, S/MIME
            Netscape Comment: 
                OpenSSL Generated Client Certificate
            X509v3 Subject Key Identifier: 
                60:77:F8:6C:6A:91:DA:27:4B:45:03:F5:6A:85:B7:E0:2F:55:8E:E2
            X509v3 Authority Key Identifier: 
                keyid:6C:E7:FB:AD:5C:6E:B3:08:08:67:09:F8:B8:C7:98:86:BE:7D:0B:20

            X509v3 Key Usage: critical
                Digital Signature, Non Repudiation, Key Encipherment
            X509v3 Extended Key Usage: 
                TLS Web Client Authentication, E-mail Protection
    Signature Algorithm: sha256WithRSAEncryption
         41:a4:33:e5:4b:cd:36:0b:b1:8e:e4:c1:36:ab:a5:21:d7:36:
         8c:9a:78:0a:97:88:83:ee:a2:e7:45:a5:c6:d0:f7:68:81:ff:
         fd:44:de:cb:ca:2c:60:0f:b9:ad:ab:23:42:ee:3d:d2:c9:90:
         e9:01:05:03:bd:14:1a:94:96:d8:6d:c1:70:f2:97:e0:85:84:
         eb:df:a8:ff:cf:94:22:13:6c:77:e7:d0:09:96:07:22:a2:b6:
         c5:60:79:19:e5:f2:76:4d:0d:30:2f:83:52:0a:29:4f:f9:56:
         85:01:f3:43:49:32:36:44:d7:e3:1b:5a:56:ea:e1:55:4e:4f:
         ac:ea:17:84:7b:47:fc:cf:f4:40:c7:c6:c3:dd:b8:5f:6f:60:
         26:f6:df:a4:ce:f1:e0:e7:47:cd:0b:3a:99:56:f8:7c:6b:25:
         9f:d3:73:a6:66:70:6f:f1:6d:d5:cb:59:19:ef:40:6e:59:e4:
         45:7c:12:7a:92:92:5c:3d:e0:4d:58:7c:af:fc:76:28:cf:49:
         2b:90:43:76:52:5b:a3:fc:61:e8:e9:37:7c:c7:e7:c4:80:56:
         61:7f:3a:ee:87:cb:ab:42:42:6d:a7:a9:75:32:de:9f:ee:7a:
         7e:f0:14:b0:cd:25:35:74:6a:ad:6a:ff:e2:0d:1d:d8:90:48:
         76:85:4e:bb:8f:90:f3:14:43:0e:91:1b:49:a2:ac:8e:bd:70:
         71:84:70:51:50:79:75:a3:37:9d:04:c5:c0:d4:93:d6:2a:5a:
         f3:16:4d:ff:11:48:98:a3:81:34:c8:24:bd:69:ec:7d:c6:5a:
         ff:e1:50:28:94:5c:63:25:8c:23:96:e5:93:b9:f1:91:ec:f4:
         98:9b:ba:83:70:07:29:7c:05:d4:53:57:83:dc:9c:cb:b4:e6:
         97:1e:83:85:39:cf:ed:4f:9f:37:f9:b0:56:0a:22:70:9c:69:
         57:09:db:b7:4b:48:e5:34:ee:99:f1:95:83:af:bb:f7:ec:84:
         ab:0b:69:13:2e:73:a2:59:99:b7:bc:06:bc:a1:62:40:24:17:
         8d:ba:0a:4a:72:a6:ff:1f:5a:c1:7c:50:d4:86:cf:72:de:13:
         fa:73:24:d4:ea:69:b3:dd:73:f9:cb:11:20:d6:d5:69:62:69:
         b0:06:6e:e8:a8:2a:76:a8:37:b6:40:b7:eb:fd:0e:6a:db:ec:
         2d:4e:e5:2e:56:93:cd:08:3d:b5:12:a5:ca:69:e3:15:f0:36:
         b1:3c:e1:73:06:52:69:66:6d:2e:6f:1d:98:ed:16:dd:58:34:
         ae:14:9d:b2:43:08:55:8a:01:a9:1f:4d:10:a9:7f:c6:ec:f9:
         d1:54:c5:3f:fc:6e:b3:c1
-----BEGIN CERTIFICATE-----
MIIFTzCCAzegAwIBAgICEAIwDQYJKoZIhvcNAQELBQAwgYIxCzAJBgNVBAYTAkNa
MRowGAYDVQQIDBFKaWhvbW9yYXZza3kga3JhajEjMCEGA1UECgwaT3BlblN0YWNr
IENvbW1vbiBMaWJyYXJpZXMxFDASBgNVBAsMC0VuZ2luZWVyaW5nMRwwGgYDVQQD
DBNJbnRlcm1lZGlhdGUgQ0EgMDA1MB4XDTE4MDgxNDE2MTYxNVoXDTE4MDkwNDE2
MTYxNVowgYkxCzAJBgNVBAYTAkNaMRowGAYDVQQIDBFKaWhvbW9yYXZza3kga3Jh
ajENMAsGA1UEBwwEQnJubzEjMCEGA1UECgwaT3BlblN0YWNrIENvbW1vbiBMaWJy
YXJpZXMxFDASBgNVBAsMC0VuZ2luZWVyaW5nMRQwEgYDVQQDDAtOb2RlIDAwNTAw
MzCCASIwDQYJKoZIhvcNAQEBBQADggEPADCCAQoCggEBAJy6rDbBXv8N/f6H4lwJ
nyKgPJdQUlJjAWowoHLhG2MlkKMKoqkEOXg9xwM4DoOufkcey02cp9j4/lvJ5vdJ
kS8zvWloFCutpYtAuEqhYLvcdCAM+KXKPx6f/YI/mX+1hgWLoDdQ59Ohskf8j+hr
PTmIYsjcImp06SReXwBsXv6s1Eaypbu6ySfGg/zRV50ww1I6O2nKdxYBFC3GvYvv
EZS3wQa1+FcWkKaztHtoZSkLy2TILKD23DOMjkno/Coaq2upkWWQfSoUW0B6Mqp4
Umma9blURUYd9Ub2lHqi9cMSWlaTrPl0boLUjoLuAcIUf/WfSSozhK1b36d8hTkR
/ysCAwEAAaOBxTCBwjAJBgNVHRMEAjAAMBEGCWCGSAGG+EIBAQQEAwIFoDAzBglg
hkgBhvhCAQ0EJhYkT3BlblNTTCBHZW5lcmF0ZWQgQ2xpZW50IENlcnRpZmljYXRl
MB0GA1UdDgQWBBRgd/hsapHaJ0tFA/VqhbfgL1WO4jAfBgNVHSMEGDAWgBRs5/ut
XG6zCAhnCfi4x5iGvn0LIDAOBgNVHQ8BAf8EBAMCBeAwHQYDVR0lBBYwFAYIKwYB
BQUHAwIGCCsGAQUFBwMEMA0GCSqGSIb3DQEBCwUAA4ICAQBBpDPlS802C7GO5ME2
q6Uh1zaMmngKl4iD7qLnRaXG0Pdogf/9RN7LyixgD7mtqyNC7j3SyZDpAQUDvRQa
lJbYbcFw8pfghYTr36j/z5QiE2x359AJlgciorbFYHkZ5fJ2TQ0wL4NSCilP+VaF
AfNDSTI2RNfjG1pW6uFVTk+s6heEe0f8z/RAx8bD3bhfb2Am9t+kzvHg50fNCzqZ
Vvh8ayWf03OmZnBv8W3Vy1kZ70BuWeRFfBJ6kpJcPeBNWHyv/HYoz0krkEN2Uluj
/GHo6Td8x+fEgFZhfzruh8urQkJtp6l1Mt6f7np+8BSwzSU1dGqtav/iDR3YkEh2
hU67j5DzFEMOkRtJoqyOvXBxhHBRUHl1ozedBMXA1JPWKlrzFk3/EUiYo4E0yCS9
aex9xlr/4VAolFxjJYwjluWTufGR7PSYm7qDcAcpfAXUU1eD3JzLtOaXHoOFOc/t
T583+bBWCiJwnGlXCdu3S0jlNO6Z8ZWDr7v37ISrC2kTLnOiWZm3vAa8oWJAJBeN
ugpKcqb/H1rBfFDUhs9y3hP6cyTU6mmz3XP5yxEg1tVpYmmwBm7oqCp2qDe2QLfr
/Q5q2+wtTuUuVpPNCD21EqXKaeMV8DaxPOFzBlJpZm0ubx2Y7RbdWDSuFJ2yQwhV
igGpH00QqX/G7PnRVMU//G6zwQ==
-----END CERTIFICATE-----
Certificate:
    Data:
        Version: 3 (0x2)
        Serial Number: 4101 (0x1005)
    Signature Algorithm: sha256WithRSAEncryption
        Issuer: C=CZ, ST=Jihomoravsky kraj, L=Brno, O=OpenStack Common Libraries, OU=Engineering, CN=Root CA
        Validity
            Not Before: Aug 14 16:16:13 2018 GMT
            Not After : Aug 11 16:16:13 2028 GMT
        Subject: C=CZ, ST=Jihomoravsky kraj, O=OpenStack Common Libraries, OU=Engineering, CN=Intermediate CA 005
        Subject Public Key Info:
            Public Key Algorithm: rsaEncryption
                Public-Key: (4096 bit)
                Modulus:
                    00:f3:b1:11:67:9a:d1:1b:8a:23:b8:39:01:7e:7d:
                    8a:36:f3:42:1b:ec:e1:dd:cd:06:e7:cc:ab:d2:e7:
                    e9:46:72:5c:84:77:b3:7e:1b:54:d3:a6:4e:91:c2:
                    a8:74:b9:37:2b:63:ed:98:19:31:c1:54:1e:c4:dd:
                    eb:72:68:af:e6:ab:a8:d9:b8:4a:27:37:fd:e2:b6:
                    f5:67:ff:ff:3a:47:5a:e0:31:16:05:3d:c1:7f:48:
                    7c:24:47:df:39:4e:a7:c7:65:30:7b:b0:d9:3b:b1:
                    cd:0b:a8:c4:2b:6d:83:2f:c2:ad:fc:19:7d:40:03:
                    4d:2c:bf:44:b2:74:11:74:ff:62:e4:69:d1:55:2d:
                    9e:3b:c3:ca:48:e9:49:a0:dd:ec:d2:d0:37:44:c4:
                    e0:8f:fe:37:ce:09:52:54:f5:e1:79:39:7f:a7:25:
                    91:4c:71:70:27:de:de:3e:38:dc:9f:a1:bb:54:4f:
                    64:26:a6:71:96:18:2c:24:00:e7:13:7b:47:7b:93:
                    90:81:17:f4:84:e2:e2:9b:32:41:1e:e9:17:e9:2d:
                    6e:30:98:ea:20:67:4b:2b:d1:f1:03:e5:eb:d4:00:
                    f5:13:cd:85:d4:eb:8b:7f:2a:b8:f0:fa:9d:51:8c:
                    3b:0b:71:19:c5:f6:41:65:3d:91:0a:52:8b:c3:2a:
                    7a:b4:a5:8d:79:00:67:f6:de:00:3d:a6:7f:58:fc:
                    50:46:c0:92:11:61:05:72:aa:29:9a:3a:a0:74:46:
                    e5:92:2b:02:f2:19:c9:88:67:30:aa:1f:2b:30:b5:
                    19:8e:af:2d:68:b4:22:64:6c:9d:43:fb:2e:49:7f:
                    74:19:10:a7:dd:26:ee:e9:cc:10:b4:19:1e:9f:72:
                    0b:bf:2a:0c:10:25:a4:14:1d:1d:73:4c:23:86:4e:
                    7b:4e:b5:79:eb:0c:bc:0a:37:af:13:37:ed:31:63:
                    61:67:74:b7:73:53:e7:6d:79:c3:7e:24:25:02:ed:
                    39:a1:69:44:2f:a3:f2:4d:f9:2e:70:d8:ad:c3:dd:
                    f9:e4:b7:e4:ea:a9:4f:8c:90:a9:48:c4:b3:86:30:
                    89:a8:f0:90:be:58:70:75:d2:74:61:e0:b2:65:b4:
                    3d:41:e0:85:cf:16:31:81:0f:2a:84:e9:b2:38:9a:
                    23:41:25:16:d6:6c:61:1b:4e:9e:16:47:d7:07:e3:
                    25:3b:48:04:d9:95:8b:4f:eb:05:90:83:be:75:8b:
                    7b:d5:b4:e9:a6:1b:ff:58:99:f1:72:ae:e4:2c:e9:
                    85:bd:e8:cd:c3:da:6c:68:03:60:f2:17:e8:9e:20:
                    95:c3:de:ae:8b:c1:58:22:90:ab:c4:18:7a:a6:77:
                    a4:e9:c5
                Exponent: 65537 (0x10001)
        X509v3 extensions:
            X509v3 Subject Key Identifier: 
                6C:E7:FB:AD:5C:6E:B3:08:08:67:09:F8:B8:C7:98:86:BE:7D:0B:20
            X509v3 Authority Key Identifier: 
                keyid:93:83:48:92:23:B6:C3:DA:A7:15:85:08:41:75:30:67:97:A5:D4:9C

            X509v3 Basic Constraints: critical
                CA:TRUE, pathlen:0
            X509v3 Key Usage: critical
                Digital Signature, Certificate Sign, CRL Sign
    Signature Algorithm: sha256WithRSAEncryption
         71:74:9f:31:34:b9:da:8b:84:e7:d7:1a:39:23:e3:af:a9:e4:
         e2:d4:ab:d2:35:c0:63:4e:84:35:40:34:16:e4:4e:a2:13:52:
         97:b1:2e:e8:e7:43:f7:08:e0:c0:79:91:81:2d:78:60:ac:fd:
         cb:c7:3d:45:97:af:eb:e1:87:c4:6f:fc:22:4e:0f:17:00:ff:
         a5:09:d3:8e:3f:8c:0a:27:0f:72:31:65:2d:29:9f:4f:63:a8:
         05:36:6f:82:77:d3:e7:0e:e5:94:b3:d0:cd:bf:4d:54:99:6a:
         0e:35:a3:87:26:1c:a3:79:0b:a8:8f:11:cd:92:6c:60:40:3c:
         cc:9a:2b:14:5a:c1:a7:b0:d6:82:c1:c3:d2:39:6a:6a:97:03:
         f7:33:d7:93:ae:87:5f:a0:aa:3d:cc:5b:38:e1:7f:d6:ac:a3:
         7f:58:8a:cb:cd:60:c7:77:a8:1e:f0:37:4a:54:bd:fb:e1:9a:
         1a:9e:81:18:ce:21:3b:b4:de:d1:30:28:d8:bc:40:91:5d:85:
         da:ae:1f:1b:b5:c1:f0:b5:f6:a4:b5:20:00:a0:42:38:77:d8:
         ec:30:4c:ea:4c:f9:3d:19:6b:3c:e5:8c:c8:42:60:35:ff:1d:
         65:c8:1b:79:34:b0:1d:00:fa:dc:de:7b:60:74:57:f7:ea:58:
         d1:c0:3b:f5:a7:70:ac:6d:86:36:c9:bb:56:c1:e8:24:6e:67:
         12:39:56:06:ca:02:6e:13:e1:49:93:83:37:17:6c:72:f6:7d:
         64:6c:fb:97:2e:65:c9:d6:83:ed:c3:2f:ab:61:e1:28:2c:19:
         e3:61:b4:25:a7:9e:c7:b3:78:9c:2a:25:34:71:0c:05:6a:8f:
         83:c9:7e:79:cb:f3:69:7d:b5:ae:87:82:9d:98:f4:56:1b:2e:
         ea:d4:e5:71:fb:b8:3c:04:a4:99:7e:d3:4d:6d:da:c7:e2:35:
         4e:5d:d9:9a:ea:c4:7e:8a:ee:ba:9c:5a:98:3d:a0:26:bd:e7:
         cc:22:18:07:ae:63:5c:17:7b:fb:57:45:92:ce:7f:8e:78:42:
         64:b3:83:6f:b0:e0:25:66:10:23:4b:ea:f5:75:fe:69:81:fc:
         88:94:33:c7:f7:0f:07:b6:54:9f:27:b6:1b:47:37:40:d4:5b:
         51:04:74:77:d8:5d:da:51:46:a5:50:6e:48:ec:58:b2:3e:cc:
         57:25:54:76:0f:7d:2b:23:5b:3d:5a:29:a0:a2:f2:3b:26:3a:
         42:b1:ad:15:d4:84:14:b0:78:10:12:11:42:3a:10:60:ff:f2:
         4d:1c:09:26:d9:20:1b:f5:34:b8:50:12:32:df:e0:cf:cd:54:
         19:2c:30:34:e5:c7:13:06
-----BEGIN CERTIFICATE-----
MIIF6zCCA9OgAwIBAgICEAUwDQYJKoZIhvcNAQELBQAwgYUxCzAJBgNVBAYTAkNa
MRowGAYDVQQIDBFKaWhvbW9yYXZza3kga3JhajENMAsGA1UEBwwEQnJubzEjMCEG
A1UECgwaT3BlblN0YWNrIENvbW1vbiBMaWJyYXJpZXMxFDASBgNVBAsMC0VuZ2lu
ZWVyaW5nMRAwDgYDVQQDDAdSb290IENBMB4XDTE4MDgxNDE2MTYxM1oXDTI4MDgx
MTE2MTYxM1owgYIxCzAJBgNVBAYTAkNaMRowGAYDVQQIDBFKaWhvbW9yYXZza3kg
a3JhajEjMCEGA1UECgwaT3BlblN0YWNrIENvbW1vbiBMaWJyYXJpZXMxFDASBgNV
BAsMC0VuZ2luZWVyaW5nMRwwGgYDVQQDDBNJbnRlcm1lZGlhdGUgQ0EgMDA1MIIC
IjANBgkqhkiG9w0BAQEFAAOCAg8AMIICCgKCAgEA87ERZ5rRG4ojuDkBfn2KNvNC
G+zh3c0G58yr0ufpRnJchHezfhtU06ZOkcKodLk3K2PtmBkxwVQexN3rcmiv5quo
2bhKJzf94rb1Z///Okda4DEWBT3Bf0h8JEffOU6nx2Uwe7DZO7HNC6jEK22DL8Kt
/Bl9QANNLL9EsnQRdP9i5GnRVS2eO8PKSOlJoN3s0tA3RMTgj/43zglSVPXheTl/
pyWRTHFwJ97ePjjcn6G7VE9kJqZxlhgsJADnE3tHe5OQgRf0hOLimzJBHukX6S1u
MJjqIGdLK9HxA+Xr1AD1E82F1OuLfyq48PqdUYw7C3EZxfZBZT2RClKLwyp6tKWN
eQBn9t4APaZ/WPxQRsCSEWEFcqopmjqgdEblkisC8hnJiGcwqh8rMLUZjq8taLQi
ZGydQ/suSX90GRCn3Sbu6cwQtBken3ILvyoMECWkFB0dc0wjhk57TrV56wy8Cjev
EzftMWNhZ3S3c1PnbXnDfiQlAu05oWlEL6PyTfkucNitw9355Lfk6qlPjJCpSMSz
hjCJqPCQvlhwddJ0YeCyZbQ9QeCFzxYxgQ8qhOmyOJojQSUW1mxhG06eFkfXB+Ml
O0gE2ZWLT+sFkIO+dYt71bTpphv/WJnxcq7kLOmFvejNw9psaANg8hfoniCVw96u
i8FYIpCrxBh6pnek6cUCAwEAAaNmMGQwHQYDVR0OBBYEFGzn+61cbrMICGcJ+LjH
mIa+fQsgMB8GA1UdIwQYMBaAFJODSJIjtsPapxWFCEF1MGeXpdScMBIGA1UdEwEB
/wQIMAYBAf8CAQAwDgYDVR0PAQH/BAQDAgGGMA0GCSqGSIb3DQEBCwUAA4ICAQBx
dJ8xNLnai4Tn1xo5I+OvqeTi1KvSNcBjToQ1QDQW5E6iE1KXsS7o50P3CODAeZGB
LXhgrP3Lxz1Fl6/r4YfEb/wiTg8XAP+lCdOOP4wKJw9yMWUtKZ9PY6gFNm+Cd9Pn
DuWUs9DNv01UmWoONaOHJhyjeQuojxHNkmxgQDzMmisUWsGnsNaCwcPSOWpqlwP3
M9eTrodfoKo9zFs44X/WrKN/WIrLzWDHd6ge8DdKVL374ZoanoEYziE7tN7RMCjY
vECRXYXarh8btcHwtfaktSAAoEI4d9jsMEzqTPk9GWs85YzIQmA1/x1lyBt5NLAd
APrc3ntgdFf36ljRwDv1p3CsbYY2ybtWwegkbmcSOVYGygJuE+FJk4M3F2xy9n1k
bPuXLmXJ1oPtwy+rYeEoLBnjYbQlp57Hs3icKiU0cQwFao+DyX55y/NpfbWuh4Kd
mPRWGy7q1OVx+7g8BKSZftNNbdrH4jVOXdma6sR+iu66nFqYPaAmvefMIhgHrmNc
F3v7V0WSzn+OeEJks4NvsOAlZhAjS+r1df5pgfyIlDPH9w8HtlSfJ7YbRzdA1FtR
BHR32F3aUUalUG5I7FiyPsxXJVR2D30rI1s9WimgovI7JjpCsa0V1IQUsHgQEhFC
OhBg//JNHAkm2SAb9TS4UBIy3+DPzVQZLDA05ccTBg==
-----END CERTIFICATE-----
