Certificate:
    Data:
        Version: 3 (0x2)
        Serial Number: 4096 (0x1000)
    Signature Algorithm: sha256WithRSAEncryption
        Issuer: C=CZ, ST=Jihomoravsky kraj, O=OpenStack Common Libraries, OU=Engineering, CN=Intermediate CA 005
        Validity
            Not Before: Aug 10 16:28:35 2018 GMT
            Not After : Aug 31 16:28:35 2018 GMT
        Subject: C=CZ, ST=Jihomoravsky kraj, L=Brno, O=OpenStack Common Libraries, OU=Engineering, CN=Node 005001
        Subject Public Key Info:
            Public Key Algorithm: rsaEncryption
                Public-Key: (2048 bit)
                Modulus:
                    00:b6:4f:ac:d1:bb:61:4b:e8:73:3a:a0:e1:cf:59:
                    f8:3a:ab:c7:20:1e:00:2b:88:6b:2b:14:3d:a3:e6:
                    c1:be:04:09:b5:59:aa:1f:c1:6b:11:38:5b:a0:fc:
                    67:66:9a:50:95:99:7a:1d:86:02:b2:a4:30:ff:13:
                    30:1a:96:ac:e2:ef:8e:56:4a:e2:47:0c:18:bd:f1:
                    ed:69:93:79:10:b0:e2:e9:7f:1d:62:70:d6:95:3e:
                    ad:de:1a:73:02:95:a3:4b:3f:f3:15:aa:87:d0:91:
                    e9:c9:55:08:47:ba:ba:d1:a0:9e:0a:ea:9a:f6:e8:
                    76:75:1a:3e:d3:85:fb:a0:fd:14:a3:26:22:b6:80:
                    de:d9:1f:ad:3b:72:ca:ee:38:d8:36:06:12:42:f6:
                    f1:73:b4:0f:38:a2:a5:c6:9f:d7:a1:b0:a4:7e:de:
                    4b:3c:72:9e:f1:3a:5a:c9:c9:f8:d9:b7:a0:d2:d3:
                    ff:77:50:6d:ee:11:79:cc:ef:21:09:de:21:f1:5f:
                    c4:1f:e7:a4:b9:d8:f7:40:49:fa:26:ee:2f:6a:48:
                    7b:a1:71:0d:c6:0a:9b:2b:dc:be:8d:96:51:1a:48:
                    db:06:44:43:25:f8:fa:8f:d1:fb:66:5e:7a:30:23:
                    c7:b8:e5:11:55:1f:d6:28:af:b4:82:a5:ed:8a:fb:
                    f8:47
                Exponent: 65537 (0x10001)
        X509v3 extensions:
            X509v3 Basic Constraints: 
                CA:FALSE
            Netscape Cert Type: 
                SSL Client, S/MIME
            Netscape Comment: 
                OpenSSL Generated Client Certificate
            X509v3 Subject Key Identifier: 
                F3:9D:33:BB:42:80:85:E8:0F:6E:40:61:BC:E1:90:5A:2F:01:B7:86
            X509v3 Authority Key Identifier: 
                keyid:51:C7:3A:46:B8:6B:5B:DD:AE:A2:ED:50:A1:9C:77:E9:B5:12:40:57

            X509v3 Key Usage: critical
                Digital Signature, Non Repudiation, Key Encipherment
            X509v3 Extended Key Usage: 
                TLS Web Client Authentication, E-mail Protection
    Signature Algorithm: sha256WithRSAEncryption
         29:68:af:42:7b:57:f1:e3:0c:2d:fe:56:9b:14:3b:bc:24:4c:
         bd:50:6e:d4:a3:17:a9:10:53:23:a7:e8:ef:ca:69:a5:8c:02:
         6d:18:ba:f3:e6:0b:9b:f0:81:03:8d:05:bd:89:35:b0:10:40:
         44:65:bf:36:d4:a6:e5:ac:f8:14:b4:18:1a:18:72:60:07:d2:
         d7:30:6e:26:7f:3f:67:a7:05:d7:e7:22:10:b7:7c:42:88:39:
         8f:fc:82:89:a3:3c:b8:5a:02:21:a0:ec:67:3a:00:19:d1:9d:
         2b:6f:81:7a:b1:6e:d8:4e:5b:f2:04:fb:78:3c:3c:8e:1f:ee:
         c7:4d:8a:25:49:eb:04:d2:2d:7b:2f:44:bd:b5:fb:a4:9b:3c:
         eb:3a:ca:ce:ca:9a:0b:c9:f2:24:0c:cf:ab:05:e0:d8:e3:27:
         f6:52:0d:2c:55:85:a8:70:dd:fe:e7:f1:26:6c:da:dd:e8:ed:
         9f:e7:70:ab:70:d7:36:ba:09:1d:d8:73:03:ce:ce:7f:25:bb:
         1d:07:41:2d:db:b2:db:d8:0c:c6:b8:8b:90:9f:0f:50:ce:3d:
         51:a8:f1:fa:9d:70:7c:a2:81:76:6a:c4:36:2c:0b:cf:18:b6:
         60:73:6b:cc:fe:51:34:4b:dd:d4:08:c1:39:ed:cb:95:50:c2:
         17:28:62:be
-----BEGIN CERTIFICATE-----
MIIETzCCAzegAwIBAgICEAAwDQYJKoZIhvcNAQELBQAwgYIxCzAJBgNVBAYTAkNa
MRowGAYDVQQIDBFKaWhvbW9yYXZza3kga3JhajEjMCEGA1UECgwaT3BlblN0YWNr
IENvbW1vbiBMaWJyYXJpZXMxFDASBgNVBAsMC0VuZ2luZWVyaW5nMRwwGgYDVQQD
DBNJbnRlcm1lZGlhdGUgQ0EgMDA1MB4XDTE4MDgxMDE2MjgzNVoXDTE4MDgzMTE2
MjgzNVowgYkxCzAJBgNVBAYTAkNaMRowGAYDVQQIDBFKaWhvbW9yYXZza3kga3Jh
ajENMAsGA1UEBwwEQnJubzEjMCEGA1UECgwaT3BlblN0YWNrIENvbW1vbiBMaWJy
YXJpZXMxFDASBgNVBAsMC0VuZ2luZWVyaW5nMRQwEgYDVQQDDAtOb2RlIDAwNTAw
MTCCASIwDQYJKoZIhvcNAQEBBQADggEPADCCAQoCggEBALZPrNG7YUvoczqg4c9Z
+DqrxyAeACuIaysUPaPmwb4ECbVZqh/BaxE4W6D8Z2aaUJWZeh2GArKkMP8TMBqW
rOLvjlZK4kcMGL3x7WmTeRCw4ul/HWJw1pU+rd4acwKVo0s/8xWqh9CR6clVCEe6
utGgngrqmvbodnUaPtOF+6D9FKMmIraA3tkfrTtyyu442DYGEkL28XO0Dziipcaf
16GwpH7eSzxynvE6WsnJ+Nm3oNLT/3dQbe4ReczvIQneIfFfxB/npLnY90BJ+ibu
L2pIe6FxDcYKmyvcvo2WURpI2wZEQyX4+o/R+2ZeejAjx7jlEVUf1iivtIKl7Yr7
+EcCAwEAAaOBxTCBwjAJBgNVHRMEAjAAMBEGCWCGSAGG+EIBAQQEAwIFoDAzBglg
hkgBhvhCAQ0EJhYkT3BlblNTTCBHZW5lcmF0ZWQgQ2xpZW50IENlcnRpZmljYXRl
MB0GA1UdDgQWBBTznTO7QoCF6A9uQGG84ZBaLwG3hjAfBgNVHSMEGDAWgBRRxzpG
uGtb3a6i7VChnHfptRJAVzAOBgNVHQ8BAf8EBAMCBeAwHQYDVR0lBBYwFAYIKwYB
BQUHAwIGCCsGAQUFBwMEMA0GCSqGSIb3DQEBCwUAA4IBAQApaK9Ce1fx4wwt/lab
FDu8JEy9UG7UoxepEFMjp+jvymmljAJtGLrz5gub8IEDjQW9iTWwEEBEZb821Kbl
rPgUtBgaGHJgB9LXMG4mfz9npwXX5yIQt3xCiDmP/IKJozy4WgIhoOxnOgAZ0Z0r
b4F6sW7YTlvyBPt4PDyOH+7HTYolSesE0i17L0S9tfukmzzrOsrOypoLyfIkDM+r
BeDY4yf2Ug0sVYWocN3+5/EmbNrd6O2f53CrcNc2ugkd2HMDzs5/JbsdB0Et27Lb
2AzGuIuQnw9Qzj1RqPH6nXB8ooF2asQ2LAvPGLZgc2vM/lE0S93UCME57cuVUMIX
KGK+
-----END CERTIFICATE-----
