Certificate:
    Data:
        Version: 3 (0x2)
        Serial Number: 4097 (0x1001)
    Signature Algorithm: sha256WithRSAEncryption
        Issuer: C=CZ, ST=Jihomoravsky kraj, O=OpenStack Common Libraries, OU=Engineering, CN=Intermediate CA 005
        Validity
            Not Before: Aug 14 16:16:15 2018 GMT
            Not After : Sep  4 16:16:15 2018 GMT
        Subject: C=CZ, ST=Jihomoravsky kraj, L=Brno, O=OpenStack Common Libraries, OU=Engineering, CN=Node 005002
        Subject Public Key Info:
            Public Key Algorithm: rsaEncryption
                Public-Key: (2048 bit)
                Modulus:
                    00:c7:91:2a:cc:11:33:f6:ab:9c:90:60:f9:ce:41:
                    b6:f5:a6:e4:59:e4:14:27:5c:26:ca:65:31:17:aa:
                    82:f9:77:1e:f8:c5:13:c6:c4:02:c7:e9:79:05:96:
                    d6:da:2c:cc:5f:79:61:ce:16:b2:61:9a:7b:7a:62:
                    04:75:37:e6:3d:13:65:96:4d:eb:5a:04:f3:1c:d9:
                    6f:1d:9e:14:a2:ed:92:5e:66:b1:2c:ed:6c:62:7c:
                    96:f0:cd:f8:51:98:ef:c7:b0:33:2b:f1:66:5d:7a:
                    1f:ed:69:d9:3b:37:51:3d:16:c9:8e:67:69:43:d1:
                    1e:f2:b3:21:6d:bf:b7:d6:ca:d3:7c:c9:59:7a:19:
                    b6:6b:02:ee:ba:99:c2:7e:07:80:2f:f5:61:80:87:
                    49:f2:cb:b7:b8:bf:ae:37:ae:94:6e:c2:7a:e3:64:
                    a7:f2:1f:8f:c4:91:81:69:7e:82:73:cc:d0:35:a2:
                    ae:2f:a0:81:d5:ca:e3:ed:a8:a6:df:fd:91:1e:44:
                    22:d7:b0:8d:73:cd:66:28:e4:4b:b9:54:56:cf:f7:
                    30:8d:1c:7a:47:f2:f5:f7:ad:93:44:79:d2:29:9d:
                    35:76:f2:48:1f:b0:eb:f6:a0:ab:8b:f8:7f:25:da:
                    9e:a2:a3:16:18:6b:ea:b2:46:d4:36:c4:ec:6b:b0:
                    c2:e3
                Exponent: 65537 (0x10001)
        X509v3 extensions:
            X509v3 Basic Constraints: 
                CA:FALSE
            Netscape Cert Type: 
                SSL Client, S/MIME
            Netscape Comment: 
                OpenSSL Generated Client Certificate
            X509v3 Subject Key Identifier: 
                EA:D6:0A:D4:B0:9B:E5:EB:80:99:52:C8:24:3E:48:92:83:9E:17:31
            X509v3 Authority Key Identifier: 
                keyid:6C:E7:FB:AD:5C:6E:B3:08:08:67:09:F8:B8:C7:98:86:BE:7D:0B:20

            X509v3 Key Usage: critical
                Digital Signature, Non Repudiation, Key Encipherment
            X509v3 Extended Key Usage: 
                TLS Web Client Authentication, E-mail Protection
    Signature Algorithm: sha256WithRSAEncryption
         3b:4b:0a:7c:82:b9:63:f5:52:c6:40:67:79:98:16:f7:b4:b4:
         61:3d:8e:1a:ef:51:e7:f3:2b:68:31:42:ba:ff:94:27:74:9b:
         77:17:4f:9a:4a:a8:77:44:40:f0:7e:5d:fa:aa:80:95:b8:8b:
         ff:71:62:0d:0c:4a:a9:71:1a:4b:6c:47:07:e9:95:8d:6c:fd:
         ac:9b:26:27:01:10:06:c0:fd:a5:4d:3d:1d:8d:b6:91:13:cc:
         0e:de:34:72:0d:7d:72:97:fd:62:5d:89:c3:48:ea:cf:9e:49:
         c8:1b:a1:fd:91:4a:5d:18:4f:8d:0d:c2:56:b7:85:fc:a6:ad:
         81:0d:8f:52:ab:4f:80:bc:ca:9c:4c:e8:12:c3:8e:d6:2d:c2:
         e7:fb:65:42:a4:67:61:fd:e5:7c:4f:49:9f:7a:09:5d:ec:bb:
         07:61:71:5a:b1:a9:be:26:96:5d:b1:03:d7:a8:7e:b3:7f:3d:
         31:12:15:56:48:63:5b:14:76:a8:f8:65:03:9f:63:94:8f:3f:
         50:46:99:43:ca:c2:76:c9:8d:cd:56:5d:96:76:c8:aa:61:95:
         7e:89:9f:06:d3:8c:fc:d9:13:c4:d0:bf:d8:fb:24:32:54:05:
         9f:5a:76:1d:4c:18:a1:03:79:fd:e0:74:80:85:18:97:fb:bb:
         5e:54:35:af:95:82:9b:3d:91:0c:5f:b7:d3:a3:bd:b0:bf:b4:
         a1:96:15:40:d2:8b:2c:89:d3:9d:83:18:53:dd:4a:72:f4:00:
         9f:43:0a:80:eb:51:28:bf:d6:a4:7d:20:36:89:b0:87:ff:5d:
         ea:90:ef:65:1d:5a:8f:0c:ba:b7:da:d8:40:ef:3f:27:49:0b:
         83:3a:d2:ce:7d:a1:a0:a6:90:03:b2:35:25:e7:eb:2c:d7:ba:
         5f:72:47:c5:aa:78:f5:38:e7:51:eb:b8:ad:05:c1:c7:62:d1:
         88:37:d1:91:a7:50:d7:b1:13:d0:d9:c3:33:3c:60:22:21:92:
         73:55:0d:00:7c:40:f6:b3:60:ae:63:90:a9:9e:b8:89:4d:d5:
         a6:8a:f4:37:79:1a:a8:98:e7:83:75:bc:97:29:8c:fc:d3:2e:
         8d:e1:1a:17:77:1a:4e:af:b8:ce:2c:72:61:38:a9:8e:e6:d1:
         c4:3d:35:58:dd:13:70:a1:cf:af:52:8b:5a:76:90:47:5c:1f:
         69:6f:78:3d:89:f3:24:00:7f:6a:8d:af:5a:59:3c:f0:f9:a5:
         0a:a4:eb:82:ba:db:d4:79:2c:30:98:cb:77:3b:4a:1b:b2:74:
         92:6d:7a:5d:f1:18:2d:b9:49:21:47:92:0a:ce:59:fc:e9:fc:
         2b:d2:8d:50:84:57:b1:14
-----BEGIN CERTIFICATE-----
MIIFTzCCAzegAwIBAgICEAEwDQYJKoZIhvcNAQELBQAwgYIxCzAJBgNVBAYTAkNa
MRowGAYDVQQIDBFKaWhvbW9yYXZza3kga3JhajEjMCEGA1UECgwaT3BlblN0YWNr
IENvbW1vbiBMaWJyYXJpZXMxFDASBgNVBAsMC0VuZ2luZWVyaW5nMRwwGgYDVQQD
DBNJbnRlcm1lZGlhdGUgQ0EgMDA1MB4XDTE4MDgxNDE2MTYxNVoXDTE4MDkwNDE2
MTYxNVowgYkxCzAJBgNVBAYTAkNaMRowGAYDVQQIDBFKaWhvbW9yYXZza3kga3Jh
ajENMAsGA1UEBwwEQnJubzEjMCEGA1UECgwaT3BlblN0YWNrIENvbW1vbiBMaWJy
YXJpZXMxFDASBgNVBAsMC0VuZ2luZWVyaW5nMRQwEgYDVQQDDAtOb2RlIDAwNTAw
MjCCASIwDQYJKoZIhvcNAQEBBQADggEPADCCAQoCggEBAMeRKswRM/arnJBg+c5B
tvWm5FnkFCdcJsplMReqgvl3HvjFE8bEAsfpeQWW1toszF95Yc4WsmGae3piBHU3
5j0TZZZN61oE8xzZbx2eFKLtkl5msSztbGJ8lvDN+FGY78ewMyvxZl16H+1p2Ts3
UT0WyY5naUPRHvKzIW2/t9bK03zJWXoZtmsC7rqZwn4HgC/1YYCHSfLLt7i/rjeu
lG7CeuNkp/Ifj8SRgWl+gnPM0DWiri+ggdXK4+2opt/9kR5EItewjXPNZijkS7lU
Vs/3MI0cekfy9fetk0R50imdNXbySB+w6/agq4v4fyXanqKjFhhr6rJG1DbE7Guw
wuMCAwEAAaOBxTCBwjAJBgNVHRMEAjAAMBEGCWCGSAGG+EIBAQQEAwIFoDAzBglg
hkgBhvhCAQ0EJhYkT3BlblNTTCBHZW5lcmF0ZWQgQ2xpZW50IENlcnRpZmljYXRl
MB0GA1UdDgQWBBTq1grUsJvl64CZUsgkPkiSg54XMTAfBgNVHSMEGDAWgBRs5/ut
XG6zCAhnCfi4x5iGvn0LIDAOBgNVHQ8BAf8EBAMCBeAwHQYDVR0lBBYwFAYIKwYB
BQUHAwIGCCsGAQUFBwMEMA0GCSqGSIb3DQEBCwUAA4ICAQA7Swp8grlj9VLGQGd5
mBb3tLRhPY4a71Hn8ytoMUK6/5QndJt3F0+aSqh3REDwfl36qoCVuIv/cWINDEqp
cRpLbEcH6ZWNbP2smyYnARAGwP2lTT0djbaRE8wO3jRyDX1yl/1iXYnDSOrPnknI
G6H9kUpdGE+NDcJWt4X8pq2BDY9Sq0+AvMqcTOgSw47WLcLn+2VCpGdh/eV8T0mf
egld7LsHYXFasam+JpZdsQPXqH6zfz0xEhVWSGNbFHao+GUDn2OUjz9QRplDysJ2
yY3NVl2WdsiqYZV+iZ8G04z82RPE0L/Y+yQyVAWfWnYdTBihA3n94HSAhRiX+7te
VDWvlYKbPZEMX7fTo72wv7ShlhVA0ossidOdgxhT3Upy9ACfQwqA61Eov9akfSA2
ibCH/13qkO9lHVqPDLq32thA7z8nSQuDOtLOfaGgppADsjUl5+ss17pfckfFqnj1
OOdR67itBcHHYtGIN9GRp1DXsRPQ2cMzPGAiIZJzVQ0AfED2s2CuY5CpnriJTdWm
ivQ3eRqomOeDdbyXKYz80y6N4RoXdxpOr7jOLHJhOKmO5tHEPTVY3RNwoc+vUota
dpBHXB9pb3g9ifMkAH9qja9aWTzw+aUKpOuCutvUeSwwmMt3O0obsnSSbXpd8Rgt
uUkhR5IKzln86fwr0o1QhFexFA==
-----END CERTIFICATE-----
