Certificate:
    Data:
        Version: 3 (0x2)
        Serial Number: 4100 (0x1004)
    Signature Algorithm: sha256WithRSAEncryption
        Issuer: C=CZ, ST=Jihomoravsky kraj, O=OpenStack Common Libraries, OU=Engineering, CN=Intermediate CA 005
        Validity
            Not Before: Aug 10 16:28:39 2018 GMT
            Not After : Aug 31 16:28:39 2018 GMT
        Subject: C=CZ, ST=Jihomoravsky kraj, L=Brno, O=OpenStack Common Libraries, OU=Engineering, CN=Node 005005
        Subject Public Key Info:
            Public Key Algorithm: rsaEncryption
                Public-Key: (2048 bit)
                Modulus:
                    00:e5:c9:b4:71:26:b9:e4:49:32:d4:32:d9:bc:d8:
                    cf:64:77:f4:a6:9f:cb:95:98:41:b4:ef:01:97:59:
                    f0:d8:f7:69:1e:f1:0c:ee:41:2e:c2:cf:71:68:e6:
                    17:9a:9f:dd:ec:fe:a1:d3:6d:8d:81:63:c8:81:11:
                    e6:a7:34:2c:d3:96:3d:6d:c2:da:e8:cf:8a:30:af:
                    4c:9f:a6:5d:98:c0:91:f5:f8:d2:5d:bd:42:9a:7d:
                    78:ba:05:1d:3a:bc:f4:2e:7c:62:f6:4f:21:43:2f:
                    26:a0:5e:b7:cb:5f:0d:db:0e:10:ac:c9:53:5b:68:
                    60:e2:13:10:61:c3:dd:0a:a0:f5:4c:be:cd:e5:4d:
                    b4:bc:b6:1b:3b:31:0f:90:a5:fa:d5:0a:1b:05:c8:
                    07:67:59:e6:7f:4f:d5:3e:e8:00:6f:bf:cc:77:ae:
                    35:5a:1a:c1:86:4e:eb:27:3c:4e:74:4b:b8:76:5e:
                    64:f6:e0:08:22:bd:d0:5b:1e:4b:2f:1c:ae:b7:a6:
                    0f:5e:73:45:4e:fa:27:bf:c7:ec:bf:fe:bb:d4:e6:
                    50:b3:0a:23:65:30:29:57:61:17:82:05:51:c0:f4:
                    6c:f3:4c:c3:75:d9:20:8b:5e:86:78:eb:2b:17:f1:
                    a8:8d:07:bf:b1:aa:d0:42:7f:3b:25:49:2e:d8:e4:
                    c7:15
                Exponent: 65537 (0x10001)
        X509v3 extensions:
            X509v3 Basic Constraints: 
                CA:FALSE
            Netscape Cert Type: 
                SSL Client, S/MIME
            Netscape Comment: 
                OpenSSL Generated Client Certificate
            X509v3 Subject Key Identifier: 
                11:02:C0:15:88:13:F3:A1:16:08:ED:97:AF:2C:75:CA:2C:CA:0E:32
            X509v3 Authority Key Identifier: 
                keyid:51:C7:3A:46:B8:6B:5B:DD:AE:A2:ED:50:A1:9C:77:E9:B5:12:40:57

            X509v3 Key Usage: critical
                Digital Signature, Non Repudiation, Key Encipherment
            X509v3 Extended Key Usage: 
                TLS Web Client Authentication, E-mail Protection
    Signature Algorithm: sha256WithRSAEncryption
         60:1d:23:33:61:01:52:0a:64:68:93:26:98:ca:64:80:8e:ec:
         3d:b7:45:4a:05:db:14:4f:08:49:77:cd:0e:82:0d:1b:e7:05:
         3c:a6:29:3e:ee:9c:f7:f1:36:d4:c8:d6:97:e6:3e:ec:11:a8:
         2c:52:fb:22:95:59:e3:18:8e:e9:1e:fc:2b:67:33:c2:02:1e:
         45:c5:dd:cc:61:51:d8:3f:c9:9e:17:27:e9:0c:e1:f3:95:bc:
         df:6a:c4:c1:39:5e:dd:99:93:bb:fa:c4:28:96:3c:1b:3d:25:
         39:44:39:18:af:b5:4d:27:b6:23:bb:27:31:bd:3c:63:df:f4:
         2f:94:de:99:2c:63:a0:d8:24:ae:40:aa:5f:ac:6a:24:fa:ad:
         93:9a:6e:8d:84:a6:15:12:90:aa:b4:06:3b:ba:ff:a4:68:f2:
         d2:ce:51:a3:57:82:3c:31:2d:32:3b:d9:fe:4e:23:08:e8:8e:
         e8:31:ad:b0:61:34:bd:37:f7:de:c4:f2:14:3e:6f:4b:e2:5f:
         69:d6:2e:70:ea:2a:a7:e9:80:5b:96:0c:9b:fe:9e:bc:4a:4b:
         17:da:e4:ee:eb:90:35:93:b3:74:05:63:7b:e5:52:b7:b8:9f:
         ff:b3:2d:54:3f:80:90:a7:7f:37:ac:53:28:2f:bd:6d:d8:78:
         b4:df:68:a3
-----BEGIN CERTIFICATE-----
MIIETzCCAzegAwIBAgICEAQwDQYJKoZIhvcNAQELBQAwgYIxCzAJBgNVBAYTAkNa
MRowGAYDVQQIDBFKaWhvbW9yYXZza3kga3JhajEjMCEGA1UECgwaT3BlblN0YWNr
IENvbW1vbiBMaWJyYXJpZXMxFDASBgNVBAsMC0VuZ2luZWVyaW5nMRwwGgYDVQQD
DBNJbnRlcm1lZGlhdGUgQ0EgMDA1MB4XDTE4MDgxMDE2MjgzOVoXDTE4MDgzMTE2
MjgzOVowgYkxCzAJBgNVBAYTAkNaMRowGAYDVQQIDBFKaWhvbW9yYXZza3kga3Jh
ajENMAsGA1UEBwwEQnJubzEjMCEGA1UECgwaT3BlblN0YWNrIENvbW1vbiBMaWJy
YXJpZXMxFDASBgNVBAsMC0VuZ2luZWVyaW5nMRQwEgYDVQQDDAtOb2RlIDAwNTAw
NTCCASIwDQYJKoZIhvcNAQEBBQADggEPADCCAQoCggEBAOXJtHEmueRJMtQy2bzY
z2R39Kafy5WYQbTvAZdZ8Nj3aR7xDO5BLsLPcWjmF5qf3ez+odNtjYFjyIER5qc0
LNOWPW3C2ujPijCvTJ+mXZjAkfX40l29Qpp9eLoFHTq89C58YvZPIUMvJqBet8tf
DdsOEKzJU1toYOITEGHD3Qqg9Uy+zeVNtLy2GzsxD5Cl+tUKGwXIB2dZ5n9P1T7o
AG+/zHeuNVoawYZO6yc8TnRLuHZeZPbgCCK90FseSy8crremD15zRU76J7/H7L/+
u9TmULMKI2UwKVdhF4IFUcD0bPNMw3XZIItehnjrKxfxqI0Hv7Gq0EJ/OyVJLtjk
xxUCAwEAAaOBxTCBwjAJBgNVHRMEAjAAMBEGCWCGSAGG+EIBAQQEAwIFoDAzBglg
hkgBhvhCAQ0EJhYkT3BlblNTTCBHZW5lcmF0ZWQgQ2xpZW50IENlcnRpZmljYXRl
MB0GA1UdDgQWBBQRAsAViBPzoRYI7ZevLHXKLMoOMjAfBgNVHSMEGDAWgBRRxzpG
uGtb3a6i7VChnHfptRJAVzAOBgNVHQ8BAf8EBAMCBeAwHQYDVR0lBBYwFAYIKwYB
BQUHAwIGCCsGAQUFBwMEMA0GCSqGSIb3DQEBCwUAA4IBAQBgHSMzYQFSCmRokyaY
ymSAjuw9t0VKBdsUTwhJd80Ogg0b5wU8pik+7pz38TbUyNaX5j7sEagsUvsilVnj
GI7pHvwrZzPCAh5Fxd3MYVHYP8meFyfpDOHzlbzfasTBOV7dmZO7+sQoljwbPSU5
RDkYr7VNJ7YjuycxvTxj3/QvlN6ZLGOg2CSuQKpfrGok+q2Tmm6NhKYVEpCqtAY7
uv+kaPLSzlGjV4I8MS0yO9n+TiMI6I7oMa2wYTS9N/fexPIUPm9L4l9p1i5w6iqn
6YBblgyb/p68SksX2uTu65A1k7N0BWN75VK3uJ//sy1UP4CQp383rFMoL71t2Hi0
32ij
-----END CERTIFICATE-----
