Certificate:
    Data:
        Version: 3 (0x2)
        Serial Number: 4096 (0x1000)
    Signature Algorithm: sha256WithRSAEncryption
        Issuer: C=CZ, ST=Jihomoravsky kraj, O=OpenStack Common Libraries, OU=Engineering, CN=Intermediate CA 005
        Validity
            Not Before: Aug 14 16:16:15 2018 GMT
            Not After : Sep  4 16:16:15 2018 GMT
        Subject: C=CZ, ST=Jihomoravsky kraj, L=Brno, O=OpenStack Common Libraries, OU=Engineering, CN=Node 005001
        Subject Public Key Info:
            Public Key Algorithm: rsaEncryption
                Public-Key: (2048 bit)
                Modulus:
                    00:b0:2c:e0:94:b8:d0:58:9e:58:0b:5e:e0:5a:9c:
                    18:1f:ad:49:8e:c7:1e:3a:3c:f0:b2:20:6a:eb:bf:
                    e4:06:08:e0:f2:c6:d6:77:f6:ce:13:98:f2:75:f7:
                    ef:c2:26:e9:8d:87:86:d2:47:e6:59:20:c4:fe:6d:
                    8d:fb:eb:87:71:17:6b:d2:b9:18:0b:20:41:d6:b4:
                    be:e5:2e:69:69:84:75:02:0e:83:df:04:b5:dc:ec:
                    77:29:aa:0f:8b:47:06:da:c2:b2:88:c4:d1:c6:c0:
                    be:89:34:7c:0f:80:6f:08:a4:1d:f7:41:ea:6b:99:
                    a3:c5:df:69:e6:13:80:ec:2f:97:27:26:cd:cc:fa:
                    e3:7f:65:e4:52:7e:79:d8:32:8d:41:b5:71:23:68:
                    db:ca:c3:6c:8b:d9:ca:90:e8:cc:5b:70:89:6b:28:
                    13:07:3f:ea:ab:52:5e:92:5e:c6:7a:48:5a:9b:70:
                    80:21:9d:5c:87:34:cb:93:17:10:ad:75:d0:4e:99:
                    06:cc:45:b4:44:34:27:91:66:12:fc:13:c0:72:4a:
                    d9:ce:d6:42:e0:1a:51:8e:1a:98:98:4e:84:f9:a0:
                    86:60:24:ba:b3:0a:25:72:68:c9:96:ff:79:20:4e:
                    f6:9c:fd:3b:ef:e5:bc:df:2e:89:f4:4a:a7:47:f2:
                    32:1b
                Exponent: 65537 (0x10001)
        X509v3 extensions:
            X509v3 Basic Constraints: 
                CA:FALSE
            Netscape Cert Type: 
                SSL Client, S/MIME
            Netscape Comment: 
                OpenSSL Generated Client Certificate
            X509v3 Subject Key Identifier: 
                F4:6D:34:A9:CC:C3:65:D5:C5:7F:F9:2B:87:BA:9C:A9:75:27:FB:A5
            X509v3 Authority Key Identifier: 
                keyid:6C:E7:FB:AD:5C:6E:B3:08:08:67:09:F8:B8:C7:98:86:BE:7D:0B:20

            X509v3 Key Usage: critical
                Digital Signature, Non Repudiation, Key Encipherment
            X509v3 Extended Key Usage: 
                TLS Web Client Authentication, E-mail Protection
    Signature Algorithm: sha256WithRSAEncryption
         50:0b:2f:3c:51:72:81:ec:51:40:37:fb:ff:36:2f:2f:9d:bf:
         b3:65:05:4c:33:34:7c:2f:35:7a:26:f2:24:55:79:cc:de:78:
         4a:5b:98:96:31:6e:89:f4:af:f5:be:ff:f0:11:55:af:4f:9c:
         51:32:20:ed:e3:19:b1:f7:2c:b9:d6:ec:fc:26:d1:90:65:d2:
         a5:33:5d:04:9c:49:b3:5a:c0:cb:dd:bc:b1:10:ad:87:cc:60:
         d9:f4:5e:33:77:b8:7c:11:76:ce:89:51:11:8a:54:29:fa:3e:
         7e:92:86:ea:d3:c3:39:69:1a:88:2e:48:29:8a:cd:f5:c6:d6:
         4e:18:a0:c8:3a:35:cb:bb:fc:58:6c:be:39:85:b2:8f:3e:cd:
         2c:6d:29:4f:28:13:4a:67:5d:57:12:7d:7b:a0:6a:d5:93:b0:
         de:85:e2:0c:99:4a:50:9e:db:91:d6:8b:ce:d3:e4:6a:0d:48:
         26:64:27:d2:6c:33:0c:0f:19:e0:2b:df:8c:11:74:90:3a:58:
         5a:57:46:cc:4c:d7:48:1a:0e:cf:00:73:6d:59:3d:e5:15:b0:
         5f:0b:17:db:ed:f0:74:6f:cd:2f:46:9a:bb:8c:38:36:ff:74:
         03:d8:55:81:ff:fe:02:03:f0:dc:38:1d:0d:b0:1e:d9:1a:fe:
         6e:2d:7e:71:6d:d0:b8:8a:41:6e:d8:df:fa:7d:09:16:b3:69:
         0d:b1:21:2e:3d:3f:86:f3:f9:f6:01:9a:d5:0f:5e:bc:2b:c6:
         90:04:55:30:5c:c2:09:a4:fb:cf:17:f7:10:d9:42:97:a9:14:
         f2:e0:31:18:a5:85:1a:50:49:93:3e:56:9c:05:fb:f4:12:6e:
         aa:9a:c9:e7:0d:72:06:90:6e:7b:fc:3f:2b:49:03:3d:4c:58:
         2b:9d:bb:9c:d5:4f:32:1d:f1:b9:c9:25:ae:7d:8d:e7:9c:da:
         58:86:95:6b:33:cb:e1:5b:bf:1a:ea:ef:e4:e9:3c:4a:ed:ea:
         d0:dc:28:ea:df:b6:43:58:8c:95:07:5f:7b:39:7e:16:61:45:
         cc:59:58:36:a2:5c:cf:c1:b9:d8:ba:0e:32:d1:8e:4d:97:6b:
         d2:9a:d7:29:ba:4e:4c:a3:cd:ee:cc:0a:3b:1d:66:d6:68:ed:
         dd:f5:c3:26:0b:5b:f7:68:7d:60:70:e1:47:64:d9:fb:67:ac:
         5e:a3:46:36:8d:2e:32:8b:7a:21:4a:ae:a9:12:a7:97:16:3b:
         73:96:cc:79:0d:4b:dc:19:6f:38:b8:1f:06:43:7c:51:e2:1c:
         45:0c:3b:e0:6d:bb:68:e0:c6:02:ce:94:af:31:94:2d:2e:5d:
         60:95:7f:40:55:85:34:18
-----BEGIN CERTIFICATE-----
MIIFTzCCAzegAwIBAgICEAAwDQYJKoZIhvcNAQELBQAwgYIxCzAJBgNVBAYTAkNa
MRowGAYDVQQIDBFKaWhvbW9yYXZza3kga3JhajEjMCEGA1UECgwaT3BlblN0YWNr
IENvbW1vbiBMaWJyYXJpZXMxFDASBgNVBAsMC0VuZ2luZWVyaW5nMRwwGgYDVQQD
DBNJbnRlcm1lZGlhdGUgQ0EgMDA1MB4XDTE4MDgxNDE2MTYxNVoXDTE4MDkwNDE2
MTYxNVowgYkxCzAJBgNVBAYTAkNaMRowGAYDVQQIDBFKaWhvbW9yYXZza3kga3Jh
ajENMAsGA1UEBwwEQnJubzEjMCEGA1UECgwaT3BlblN0YWNrIENvbW1vbiBMaWJy
YXJpZXMxFDASBgNVBAsMC0VuZ2luZWVyaW5nMRQwEgYDVQQDDAtOb2RlIDAwNTAw
MTCCASIwDQYJKoZIhvcNAQEBBQADggEPADCCAQoCggEBALAs4JS40FieWAte4Fqc
GB+tSY7HHjo88LIgauu/5AYI4PLG1nf2zhOY8nX378Im6Y2HhtJH5lkgxP5tjfvr
h3EXa9K5GAsgQda0vuUuaWmEdQIOg98EtdzsdymqD4tHBtrCsojE0cbAvok0fA+A
bwikHfdB6muZo8XfaeYTgOwvlycmzcz6439l5FJ+edgyjUG1cSNo28rDbIvZypDo
zFtwiWsoEwc/6qtSXpJexnpIWptwgCGdXIc0y5MXEK110E6ZBsxFtEQ0J5FmEvwT
wHJK2c7WQuAaUY4amJhOhPmghmAkurMKJXJoyZb/eSBO9pz9O+/lvN8uifRKp0fy
MhsCAwEAAaOBxTCBwjAJBgNVHRMEAjAAMBEGCWCGSAGG+EIBAQQEAwIFoDAzBglg
hkgBhvhCAQ0EJhYkT3BlblNTTCBHZW5lcmF0ZWQgQ2xpZW50IENlcnRpZmljYXRl
MB0GA1UdDgQWBBT0bTSpzMNl1cV/+SuHupypdSf7pTAfBgNVHSMEGDAWgBRs5/ut
XG6zCAhnCfi4x5iGvn0LIDAOBgNVHQ8BAf8EBAMCBeAwHQYDVR0lBBYwFAYIKwYB
BQUHAwIGCCsGAQUFBwMEMA0GCSqGSIb3DQEBCwUAA4ICAQBQCy88UXKB7FFAN/v/
Ni8vnb+zZQVMMzR8LzV6JvIkVXnM3nhKW5iWMW6J9K/1vv/wEVWvT5xRMiDt4xmx
9yy51uz8JtGQZdKlM10EnEmzWsDL3byxEK2HzGDZ9F4zd7h8EXbOiVERilQp+j5+
kobq08M5aRqILkgpis31xtZOGKDIOjXLu/xYbL45hbKPPs0sbSlPKBNKZ11XEn17
oGrVk7DeheIMmUpQntuR1ovO0+RqDUgmZCfSbDMMDxngK9+MEXSQOlhaV0bMTNdI
Gg7PAHNtWT3lFbBfCxfb7fB0b80vRpq7jDg2/3QD2FWB//4CA/DcOB0NsB7ZGv5u
LX5xbdC4ikFu2N/6fQkWs2kNsSEuPT+G8/n2AZrVD168K8aQBFUwXMIJpPvPF/cQ
2UKXqRTy4DEYpYUaUEmTPlacBfv0Em6qmsnnDXIGkG57/D8rSQM9TFgrnbuc1U8y
HfG5ySWufY3nnNpYhpVrM8vhW78a6u/k6TxK7erQ3Cjq37ZDWIyVB197OX4WYUXM
WVg2olzPwbnYug4y0Y5Nl2vSmtcpuk5Mo83uzAo7HWbWaO3d9cMmC1v3aH1gcOFH
ZNn7Z6xeo0Y2jS4yi3ohSq6pEqeXFjtzlsx5DUvcGW84uB8GQ3xR4hxFDDvgbbto
4MYCzpSvMZQtLl1glX9AVYU0GA==
-----END CERTIFICATE-----
