Certificate:
    Data:
        Version: 3 (0x2)
        Serial Number: 4099 (0x1003)
    Signature Algorithm: sha256WithRSAEncryption
        Issuer: C=CZ, ST=Jihomoravsky kraj, O=OpenStack Common Libraries, OU=Engineering, CN=Intermediate CA 005
        Validity
            Not Before: Aug 14 16:16:16 2018 GMT
            Not After : Sep  4 16:16:16 2018 GMT
        Subject: C=CZ, ST=Jihomoravsky kraj, L=Brno, O=OpenStack Common Libraries, OU=Engineering, CN=Node 005004
        Subject Public Key Info:
            Public Key Algorithm: rsaEncryption
                Public-Key: (2048 bit)
                Modulus:
                    00:b2:04:b3:d8:12:f4:55:41:d6:b9:59:d1:7e:e0:
                    11:20:b6:59:00:3f:fc:6e:84:7b:ed:33:73:9b:8f:
                    60:ba:18:8f:70:bc:10:d4:70:f8:13:3d:91:9d:c9:
                    97:e7:18:95:47:53:a1:04:72:c8:e2:81:16:4f:0e:
                    6d:d1:0f:74:23:f4:6a:5a:f9:06:66:2b:23:c5:f2:
                    95:12:7e:26:30:91:71:09:d0:a7:85:e8:a9:20:e1:
                    cc:34:20:c6:01:ce:de:00:e2:fc:b2:7e:50:89:bd:
                    05:a9:85:4e:52:c5:77:d1:32:e4:2e:4f:af:82:bb:
                    2e:f1:be:99:f7:5c:de:dd:b6:1b:13:9a:8e:f2:3f:
                    5b:b1:00:1d:86:32:df:23:2f:7a:fb:79:71:09:35:
                    fb:d9:b5:54:69:ca:b9:5f:96:8e:06:24:69:20:f3:
                    67:4d:7e:95:b2:70:8a:d3:fd:1e:b6:7f:8c:ca:1f:
                    dd:08:16:99:8b:30:ed:90:05:97:15:0b:d2:8e:e4:
                    fc:cb:90:e6:18:f2:04:44:89:e1:63:94:eb:75:59:
                    8d:c7:68:2e:5d:e1:5a:f4:91:8a:f6:16:3e:f6:dc:
                    2e:35:45:88:ca:22:cc:2d:74:93:93:5f:0f:d4:e0:
                    31:9d:e9:4c:23:41:04:08:8d:32:df:96:28:f3:e0:
                    8b:3f
                Exponent: 65537 (0x10001)
        X509v3 extensions:
            X509v3 Basic Constraints: 
                CA:FALSE
            Netscape Cert Type: 
                SSL Client, S/MIME
            Netscape Comment: 
                OpenSSL Generated Client Certificate
            X509v3 Subject Key Identifier: 
                4C:65:8A:C6:9E:0A:9B:DA:04:5E:8E:18:F2:09:5A:02:5C:7F:C5:92
            X509v3 Authority Key Identifier: 
                keyid:6C:E7:FB:AD:5C:6E:B3:08:08:67:09:F8:B8:C7:98:86:BE:7D:0B:20

            X509v3 Key Usage: critical
                Digital Signature, Non Repudiation, Key Encipherment
            X509v3 Extended Key Usage: 
                TLS Web Client Authentication, E-mail Protection
    Signature Algorithm: sha256WithRSAEncryption
         71:89:fa:c9:42:fe:28:47:77:51:6f:07:35:35:03:de:97:1b:
         57:ca:1d:c1:e9:fa:0d:0a:38:24:89:d0:8a:4f:b9:21:c1:a9:
         d7:12:30:81:4f:32:ae:cc:70:d9:2a:f2:57:54:d3:01:b2:9a:
         4f:f5:7c:11:4c:40:f6:dd:74:ba:9f:45:73:af:c4:18:e2:aa:
         ee:d3:c3:19:a2:fc:5b:74:b8:06:d7:11:20:e4:68:77:c3:9b:
         ed:51:d9:5e:c1:51:df:d3:4a:1f:60:9f:16:b9:43:f0:46:e0:
         93:41:0a:70:c2:b4:9e:37:79:45:78:e0:9a:b8:69:1f:fa:d6:
         49:3c:65:45:31:63:63:72:95:74:23:82:b5:5a:2a:c0:d8:f6:
         b4:c4:bd:59:a7:27:12:bc:21:9a:aa:2d:7c:32:f7:c3:6b:78:
         34:e7:af:1b:6a:48:d2:10:96:97:c7:42:82:83:c4:89:ae:67:
         69:67:7a:b1:cc:3a:45:90:a8:ac:93:ce:40:ac:8f:82:42:33:
         89:90:64:de:38:9c:ed:e7:86:43:3f:89:18:19:c3:b4:00:58:
         a8:de:62:73:b2:24:47:07:a7:e3:ed:0e:37:e4:c6:8b:75:57:
         5c:4b:ad:b9:32:01:4e:d1:fe:91:9c:c6:8d:5b:59:5a:16:33:
         db:5f:cf:48:c3:23:32:b9:d5:ea:31:9f:95:bc:36:50:53:e2:
         a0:af:5f:54:db:9f:b3:30:d1:f5:31:6a:7d:d7:e7:08:df:1d:
         bf:8e:c2:69:13:42:da:36:0b:44:27:66:94:d0:70:10:1a:cd:
         28:2c:f1:fa:38:ef:2c:07:71:be:da:32:0c:2e:f0:75:fc:96:
         13:ac:b9:be:39:f2:04:6b:03:f1:c0:93:07:ed:cd:b1:fc:a1:
         c6:77:71:c9:ae:a4:c1:1d:46:d9:c8:fc:17:1d:f3:93:a6:aa:
         cf:9a:f5:25:ce:76:d2:7a:5f:ae:aa:9b:62:06:28:99:1c:ab:
         c9:29:c6:c5:ea:83:43:54:48:81:d0:40:fe:af:5b:0f:66:71:
         04:09:c7:c2:fd:f9:5c:9a:3f:02:02:1b:f8:a2:3f:9f:af:3e:
         31:05:5c:21:7b:f5:37:a7:2f:af:fa:0b:75:de:d3:5a:20:d9:
         ab:b1:e3:a1:d3:4a:e6:91:15:6d:a1:e4:5a:79:86:3e:4f:94:
         93:96:ed:37:0a:b0:9a:ab:1b:96:db:4d:87:4f:4d:6b:c1:f9:
         3f:99:e9:a9:e8:0a:47:28:98:a9:8c:71:d9:01:cb:b6:24:8d:
         ca:dc:1a:d8:07:bd:96:7f:23:f4:ee:84:a2:d9:0d:51:73:a2:
         24:c9:61:5d:ed:10:ac:9b
-----BEGIN CERTIFICATE-----
MIIFTzCCAzegAwIBAgICEAMwDQYJKoZIhvcNAQELBQAwgYIxCzAJBgNVBAYTAkNa
MRowGAYDVQQIDBFKaWhvbW9yYXZza3kga3JhajEjMCEGA1UECgwaT3BlblN0YWNr
IENvbW1vbiBMaWJyYXJpZXMxFDASBgNVBAsMC0VuZ2luZWVyaW5nMRwwGgYDVQQD
DBNJbnRlcm1lZGlhdGUgQ0EgMDA1MB4XDTE4MDgxNDE2MTYxNloXDTE4MDkwNDE2
MTYxNlowgYkxCzAJBgNVBAYTAkNaMRowGAYDVQQIDBFKaWhvbW9yYXZza3kga3Jh
ajENMAsGA1UEBwwEQnJubzEjMCEGA1UECgwaT3BlblN0YWNrIENvbW1vbiBMaWJy
YXJpZXMxFDASBgNVBAsMC0VuZ2luZWVyaW5nMRQwEgYDVQQDDAtOb2RlIDAwNTAw
NDCCASIwDQYJKoZIhvcNAQEBBQADggEPADCCAQoCggEBALIEs9gS9FVB1rlZ0X7g
ESC2WQA//G6Ee+0zc5uPYLoYj3C8ENRw+BM9kZ3Jl+cYlUdToQRyyOKBFk8ObdEP
dCP0alr5BmYrI8XylRJ+JjCRcQnQp4XoqSDhzDQgxgHO3gDi/LJ+UIm9BamFTlLF
d9Ey5C5Pr4K7LvG+mfdc3t22GxOajvI/W7EAHYYy3yMvevt5cQk1+9m1VGnKuV+W
jgYkaSDzZ01+lbJwitP9HrZ/jMof3QgWmYsw7ZAFlxUL0o7k/MuQ5hjyBESJ4WOU
63VZjcdoLl3hWvSRivYWPvbcLjVFiMoizC10k5NfD9TgMZ3pTCNBBAiNMt+WKPPg
iz8CAwEAAaOBxTCBwjAJBgNVHRMEAjAAMBEGCWCGSAGG+EIBAQQEAwIFoDAzBglg
hkgBhvhCAQ0EJhYkT3BlblNTTCBHZW5lcmF0ZWQgQ2xpZW50IENlcnRpZmljYXRl
MB0GA1UdDgQWBBRMZYrGngqb2gRejhjyCVoCXH/FkjAfBgNVHSMEGDAWgBRs5/ut
XG6zCAhnCfi4x5iGvn0LIDAOBgNVHQ8BAf8EBAMCBeAwHQYDVR0lBBYwFAYIKwYB
BQUHAwIGCCsGAQUFBwMEMA0GCSqGSIb3DQEBCwUAA4ICAQBxifrJQv4oR3dRbwc1
NQPelxtXyh3B6foNCjgkidCKT7khwanXEjCBTzKuzHDZKvJXVNMBsppP9XwRTED2
3XS6n0Vzr8QY4qru08MZovxbdLgG1xEg5Gh3w5vtUdlewVHf00ofYJ8WuUPwRuCT
QQpwwrSeN3lFeOCauGkf+tZJPGVFMWNjcpV0I4K1WirA2Pa0xL1ZpycSvCGaqi18
MvfDa3g0568bakjSEJaXx0KCg8SJrmdpZ3qxzDpFkKisk85ArI+CQjOJkGTeOJzt
54ZDP4kYGcO0AFio3mJzsiRHB6fj7Q435MaLdVdcS625MgFO0f6RnMaNW1laFjPb
X89IwyMyudXqMZ+VvDZQU+Kgr19U25+zMNH1MWp91+cI3x2/jsJpE0LaNgtEJ2aU
0HAQGs0oLPH6OO8sB3G+2jIMLvB1/JYTrLm+OfIEawPxwJMH7c2x/KHGd3HJrqTB
HUbZyPwXHfOTpqrPmvUlznbSel+uqptiBiiZHKvJKcbF6oNDVEiB0ED+r1sPZnEE
CcfC/flcmj8CAhv4oj+frz4xBVwhe/U3py+v+gt13tNaINmrseOh00rmkRVtoeRa
eYY+T5STlu03CrCaqxuW202HT01rwfk/memp6ApHKJipjHHZAcu2JI3K3BrYB72W
fyP07oSi2Q1Rc6IkyWFd7RCsmw==
-----END CERTIFICATE-----
Certificate:
    Data:
        Version: 3 (0x2)
        Serial Number: 4101 (0x1005)
    Signature Algorithm: sha256WithRSAEncryption
        Issuer: C=CZ, ST=Jihomoravsky kraj, L=Brno, O=OpenStack Common Libraries, OU=Engineering, CN=Root CA
        Validity
            Not Before: Aug 14 16:16:13 2018 GMT
            Not After : Aug 11 16:16:13 2028 GMT
        Subject: C=CZ, ST=Jihomoravsky kraj, O=OpenStack Common Libraries, OU=Engineering, CN=Intermediate CA 005
        Subject Public Key Info:
            Public Key Algorithm: rsaEncryption
                Public-Key: (4096 bit)
                Modulus:
                    00:f3:b1:11:67:9a:d1:1b:8a:23:b8:39:01:7e:7d:
                    8a:36:f3:42:1b:ec:e1:dd:cd:06:e7:cc:ab:d2:e7:
                    e9:46:72:5c:84:77:b3:7e:1b:54:d3:a6:4e:91:c2:
                    a8:74:b9:37:2b:63:ed:98:19:31:c1:54:1e:c4:dd:
                    eb:72:68:af:e6:ab:a8:d9:b8:4a:27:37:fd:e2:b6:
                    f5:67:ff:ff:3a:47:5a:e0:31:16:05:3d:c1:7f:48:
                    7c:24:47:df:39:4e:a7:c7:65:30:7b:b0:d9:3b:b1:
                    cd:0b:a8:c4:2b:6d:83:2f:c2:ad:fc:19:7d:40:03:
                    4d:2c:bf:44:b2:74:11:74:ff:62:e4:69:d1:55:2d:
                    9e:3b:c3:ca:48:e9:49:a0:dd:ec:d2:d0:37:44:c4:
                    e0:8f:fe:37:ce:09:52:54:f5:e1:79:39:7f:a7:25:
                    91:4c:71:70:27:de:de:3e:38:dc:9f:a1:bb:54:4f:
                    64:26:a6:71:96:18:2c:24:00:e7:13:7b:47:7b:93:
                    90:81:17:f4:84:e2:e2:9b:32:41:1e:e9:17:e9:2d:
                    6e:30:98:ea:20:67:4b:2b:d1:f1:03:e5:eb:d4:00:
                    f5:13:cd:85:d4:eb:8b:7f:2a:b8:f0:fa:9d:51:8c:
                    3b:0b:71:19:c5:f6:41:65:3d:91:0a:52:8b:c3:2a:
                    7a:b4:a5:8d:79:00:67:f6:de:00:3d:a6:7f:58:fc:
                    50:46:c0:92:11:61:05:72:aa:29:9a:3a:a0:74:46:
                    e5:92:2b:02:f2:19:c9:88:67:30:aa:1f:2b:30:b5:
                    19:8e:af:2d:68:b4:22:64:6c:9d:43:fb:2e:49:7f:
                    74:19:10:a7:dd:26:ee:e9:cc:10:b4:19:1e:9f:72:
                    0b:bf:2a:0c:10:25:a4:14:1d:1d:73:4c:23:86:4e:
                    7b:4e:b5:79:eb:0c:bc:0a:37:af:13:37:ed:31:63:
                    61:67:74:b7:73:53:e7:6d:79:c3:7e:24:25:02:ed:
                    39:a1:69:44:2f:a3:f2:4d:f9:2e:70:d8:ad:c3:dd:
                    f9:e4:b7:e4:ea:a9:4f:8c:90:a9:48:c4:b3:86:30:
                    89:a8:f0:90:be:58:70:75:d2:74:61:e0:b2:65:b4:
                    3d:41:e0:85:cf:16:31:81:0f:2a:84:e9:b2:38:9a:
                    23:41:25:16:d6:6c:61:1b:4e:9e:16:47:d7:07:e3:
                    25:3b:48:04:d9:95:8b:4f:eb:05:90:83:be:75:8b:
                    7b:d5:b4:e9:a6:1b:ff:58:99:f1:72:ae:e4:2c:e9:
                    85:bd:e8:cd:c3:da:6c:68:03:60:f2:17:e8:9e:20:
                    95:c3:de:ae:8b:c1:58:22:90:ab:c4:18:7a:a6:77:
                    a4:e9:c5
                Exponent: 65537 (0x10001)
        X509v3 extensions:
            X509v3 Subject Key Identifier: 
                6C:E7:FB:AD:5C:6E:B3:08:08:67:09:F8:B8:C7:98:86:BE:7D:0B:20
            X509v3 Authority Key Identifier: 
                keyid:93:83:48:92:23:B6:C3:DA:A7:15:85:08:41:75:30:67:97:A5:D4:9C

            X509v3 Basic Constraints: critical
                CA:TRUE, pathlen:0
            X509v3 Key Usage: critical
                Digital Signature, Certificate Sign, CRL Sign
    Signature Algorithm: sha256WithRSAEncryption
         71:74:9f:31:34:b9:da:8b:84:e7:d7:1a:39:23:e3:af:a9:e4:
         e2:d4:ab:d2:35:c0:63:4e:84:35:40:34:16:e4:4e:a2:13:52:
         97:b1:2e:e8:e7:43:f7:08:e0:c0:79:91:81:2d:78:60:ac:fd:
         cb:c7:3d:45:97:af:eb:e1:87:c4:6f:fc:22:4e:0f:17:00:ff:
         a5:09:d3:8e:3f:8c:0a:27:0f:72:31:65:2d:29:9f:4f:63:a8:
         05:36:6f:82:77:d3:e7:0e:e5:94:b3:d0:cd:bf:4d:54:99:6a:
         0e:35:a3:87:26:1c:a3:79:0b:a8:8f:11:cd:92:6c:60:40:3c:
         cc:9a:2b:14:5a:c1:a7:b0:d6:82:c1:c3:d2:39:6a:6a:97:03:
         f7:33:d7:93:ae:87:5f:a0:aa:3d:cc:5b:38:e1:7f:d6:ac:a3:
         7f:58:8a:cb:cd:60:c7:77:a8:1e:f0:37:4a:54:bd:fb:e1:9a:
         1a:9e:81:18:ce:21:3b:b4:de:d1:30:28:d8:bc:40:91:5d:85:
         da:ae:1f:1b:b5:c1:f0:b5:f6:a4:b5:20:00:a0:42:38:77:d8:
         ec:30:4c:ea:4c:f9:3d:19:6b:3c:e5:8c:c8:42:60:35:ff:1d:
         65:c8:1b:79:34:b0:1d:00:fa:dc:de:7b:60:74:57:f7:ea:58:
         d1:c0:3b:f5:a7:70:ac:6d:86:36:c9:bb:56:c1:e8:24:6e:67:
         12:39:56:06:ca:02:6e:13:e1:49:93:83:37:17:6c:72:f6:7d:
         64:6c:fb:97:2e:65:c9:d6:83:ed:c3:2f:ab:61:e1:28:2c:19:
         e3:61:b4:25:a7:9e:c7:b3:78:9c:2a:25:34:71:0c:05:6a:8f:
         83:c9:7e:79:cb:f3:69:7d:b5:ae:87:82:9d:98:f4:56:1b:2e:
         ea:d4:e5:71:fb:b8:3c:04:a4:99:7e:d3:4d:6d:da:c7:e2:35:
         4e:5d:d9:9a:ea:c4:7e:8a:ee:ba:9c:5a:98:3d:a0:26:bd:e7:
         cc:22:18:07:ae:63:5c:17:7b:fb:57:45:92:ce:7f:8e:78:42:
         64:b3:83:6f:b0:e0:25:66:10:23:4b:ea:f5:75:fe:69:81:fc:
         88:94:33:c7:f7:0f:07:b6:54:9f:27:b6:1b:47:37:40:d4:5b:
         51:04:74:77:d8:5d:da:51:46:a5:50:6e:48:ec:58:b2:3e:cc:
         57:25:54:76:0f:7d:2b:23:5b:3d:5a:29:a0:a2:f2:3b:26:3a:
         42:b1:ad:15:d4:84:14:b0:78:10:12:11:42:3a:10:60:ff:f2:
         4d:1c:09:26:d9:20:1b:f5:34:b8:50:12:32:df:e0:cf:cd:54:
         19:2c:30:34:e5:c7:13:06
-----BEGIN CERTIFICATE-----
MIIF6zCCA9OgAwIBAgICEAUwDQYJKoZIhvcNAQELBQAwgYUxCzAJBgNVBAYTAkNa
MRowGAYDVQQIDBFKaWhvbW9yYXZza3kga3JhajENMAsGA1UEBwwEQnJubzEjMCEG
A1UECgwaT3BlblN0YWNrIENvbW1vbiBMaWJyYXJpZXMxFDASBgNVBAsMC0VuZ2lu
ZWVyaW5nMRAwDgYDVQQDDAdSb290IENBMB4XDTE4MDgxNDE2MTYxM1oXDTI4MDgx
MTE2MTYxM1owgYIxCzAJBgNVBAYTAkNaMRowGAYDVQQIDBFKaWhvbW9yYXZza3kg
a3JhajEjMCEGA1UECgwaT3BlblN0YWNrIENvbW1vbiBMaWJyYXJpZXMxFDASBgNV
BAsMC0VuZ2luZWVyaW5nMRwwGgYDVQQDDBNJbnRlcm1lZGlhdGUgQ0EgMDA1MIIC
IjANBgkqhkiG9w0BAQEFAAOCAg8AMIICCgKCAgEA87ERZ5rRG4ojuDkBfn2KNvNC
G+zh3c0G58yr0ufpRnJchHezfhtU06ZOkcKodLk3K2PtmBkxwVQexN3rcmiv5quo
2bhKJzf94rb1Z///Okda4DEWBT3Bf0h8JEffOU6nx2Uwe7DZO7HNC6jEK22DL8Kt
/Bl9QANNLL9EsnQRdP9i5GnRVS2eO8PKSOlJoN3s0tA3RMTgj/43zglSVPXheTl/
pyWRTHFwJ97ePjjcn6G7VE9kJqZxlhgsJADnE3tHe5OQgRf0hOLimzJBHukX6S1u
MJjqIGdLK9HxA+Xr1AD1E82F1OuLfyq48PqdUYw7C3EZxfZBZT2RClKLwyp6tKWN
eQBn9t4APaZ/WPxQRsCSEWEFcqopmjqgdEblkisC8hnJiGcwqh8rMLUZjq8taLQi
ZGydQ/suSX90GRCn3Sbu6cwQtBken3ILvyoMECWkFB0dc0wjhk57TrV56wy8Cjev
EzftMWNhZ3S3c1PnbXnDfiQlAu05oWlEL6PyTfkucNitw9355Lfk6qlPjJCpSMSz
hjCJqPCQvlhwddJ0YeCyZbQ9QeCFzxYxgQ8qhOmyOJojQSUW1mxhG06eFkfXB+Ml
O0gE2ZWLT+sFkIO+dYt71bTpphv/WJnxcq7kLOmFvejNw9psaANg8hfoniCVw96u
i8FYIpCrxBh6pnek6cUCAwEAAaNmMGQwHQYDVR0OBBYEFGzn+61cbrMICGcJ+LjH
mIa+fQsgMB8GA1UdIwQYMBaAFJODSJIjtsPapxWFCEF1MGeXpdScMBIGA1UdEwEB
/wQIMAYBAf8CAQAwDgYDVR0PAQH/BAQDAgGGMA0GCSqGSIb3DQEBCwUAA4ICAQBx
dJ8xNLnai4Tn1xo5I+OvqeTi1KvSNcBjToQ1QDQW5E6iE1KXsS7o50P3CODAeZGB
LXhgrP3Lxz1Fl6/r4YfEb/wiTg8XAP+lCdOOP4wKJw9yMWUtKZ9PY6gFNm+Cd9Pn
DuWUs9DNv01UmWoONaOHJhyjeQuojxHNkmxgQDzMmisUWsGnsNaCwcPSOWpqlwP3
M9eTrodfoKo9zFs44X/WrKN/WIrLzWDHd6ge8DdKVL374ZoanoEYziE7tN7RMCjY
vECRXYXarh8btcHwtfaktSAAoEI4d9jsMEzqTPk9GWs85YzIQmA1/x1lyBt5NLAd
APrc3ntgdFf36ljRwDv1p3CsbYY2ybtWwegkbmcSOVYGygJuE+FJk4M3F2xy9n1k
bPuXLmXJ1oPtwy+rYeEoLBnjYbQlp57Hs3icKiU0cQwFao+DyX55y/NpfbWuh4Kd
mPRWGy7q1OVx+7g8BKSZftNNbdrH4jVOXdma6sR+iu66nFqYPaAmvefMIhgHrmNc
F3v7V0WSzn+OeEJks4NvsOAlZhAjS+r1df5pgfyIlDPH9w8HtlSfJ7YbRzdA1FtR
BHR32F3aUUalUG5I7FiyPsxXJVR2D30rI1s9WimgovI7JjpCsa0V1IQUsHgQEhFC
OhBg//JNHAkm2SAb9TS4UBIy3+DPzVQZLDA05ccTBg==
-----END CERTIFICATE-----
