Certificate:
    Data:
        Version: 3 (0x2)
        Serial Number: 4097 (0x1001)
    Signature Algorithm: sha256WithRSAEncryption
        Issuer: C=CZ, ST=Jihomoravsky kraj, O=OpenStack Common Libraries, OU=Engineering, CN=Intermediate CA 005
        Validity
            Not Before: Aug 10 16:28:35 2018 GMT
            Not After : Aug 31 16:28:35 2018 GMT
        Subject: C=CZ, ST=Jihomoravsky kraj, L=Brno, O=OpenStack Common Libraries, OU=Engineering, CN=Node 005002
        Subject Public Key Info:
            Public Key Algorithm: rsaEncryption
                Public-Key: (2048 bit)
                Modulus:
                    00:da:ee:cc:82:05:ca:03:1a:4a:df:46:64:ce:73:
                    76:6e:d2:56:2a:49:a2:df:ed:d2:ba:f4:a4:97:31:
                    2c:0c:26:b7:c2:b8:c0:7c:89:fd:46:5e:62:02:14:
                    b5:29:f4:1d:9a:2e:95:26:b7:55:9a:33:7f:58:a9:
                    55:68:d8:57:91:37:0a:b0:e3:d3:3a:e1:13:73:10:
                    c8:c5:6b:fb:94:a8:df:39:e9:58:f9:85:49:22:e2:
                    17:b0:6e:55:11:3b:00:3c:7e:76:9c:a1:da:e6:d0:
                    70:df:0b:ce:da:14:70:2d:aa:77:39:5a:a1:b0:32:
                    c8:83:4c:a4:9a:77:9d:3a:f0:67:8d:c0:bd:fe:f4:
                    e3:4b:38:50:82:a7:d6:4f:aa:1f:82:bb:21:69:d1:
                    c4:50:54:fb:43:c2:3e:fc:80:44:19:22:ad:a9:09:
                    2c:c4:f5:22:2a:19:5f:0d:22:de:cd:c6:88:bc:a9:
                    0c:cd:58:65:b4:a5:a8:36:54:67:ee:c1:c5:8c:14:
                    98:ad:6b:92:41:16:10:c4:48:4a:84:2d:20:1e:9a:
                    67:49:a3:0a:97:58:a0:cf:d4:6d:b4:da:21:96:76:
                    93:26:57:e4:74:05:de:54:88:9b:c2:90:3b:d3:77:
                    48:8b:fd:25:04:7f:30:ac:64:9b:b5:7f:44:d7:f0:
                    2c:15
                Exponent: 65537 (0x10001)
        X509v3 extensions:
            X509v3 Basic Constraints: 
                CA:FALSE
            Netscape Cert Type: 
                SSL Client, S/MIME
            Netscape Comment: 
                OpenSSL Generated Client Certificate
            X509v3 Subject Key Identifier: 
                F0:CC:A4:D3:89:1A:8A:B6:1B:D4:AD:78:B0:FE:02:7A:24:AC:80:F9
            X509v3 Authority Key Identifier: 
                keyid:51:C7:3A:46:B8:6B:5B:DD:AE:A2:ED:50:A1:9C:77:E9:B5:12:40:57

            X509v3 Key Usage: critical
                Digital Signature, Non Repudiation, Key Encipherment
            X509v3 Extended Key Usage: 
                TLS Web Client Authentication, E-mail Protection
    Signature Algorithm: sha256WithRSAEncryption
         32:9f:9f:b2:b0:57:e8:f3:07:7a:82:e4:d8:91:82:a5:37:ad:
         59:2c:b4:36:c7:fb:d9:7d:67:d0:7b:12:d4:4f:06:dd:15:10:
         fb:66:eb:00:5c:ae:88:96:53:67:de:2a:34:1c:8f:1d:5e:42:
         a3:92:a5:93:82:36:10:a3:b9:10:82:be:c0:6d:6a:ec:b8:67:
         21:ee:64:e0:b7:b9:02:8f:9a:64:32:2f:a8:71:aa:37:48:ea:
         51:15:1f:d9:89:75:91:dc:5f:e1:86:43:9b:bb:f9:a7:f3:f1:
         ff:0e:93:cd:65:61:2f:73:31:04:61:d2:9e:29:ea:84:86:bc:
         8e:be:43:26:14:db:04:48:0b:0e:28:cf:b7:7f:72:a6:27:f1:
         78:95:d9:06:ea:8e:12:a8:3f:2f:29:b8:04:1a:28:8a:0e:85:
         7d:3e:c0:42:3c:93:e9:03:03:c4:1c:f4:38:af:1d:b1:8b:16:
         f8:e4:5e:bd:24:0d:c5:a1:9b:2b:20:c4:ec:30:cc:8e:9e:52:
         6f:66:a2:1d:e5:04:58:62:e3:35:b7:33:28:8d:c1:fc:45:53:
         0a:d9:c0:a8:22:8b:3a:bc:3f:0a:a0:a7:d4:5c:af:10:15:2a:
         18:77:42:6b:02:c2:91:05:27:3f:43:a7:34:b2:c9:08:7c:65:
         9c:13:e5:06
-----BEGIN CERTIFICATE-----
MIIETzCCAzegAwIBAgICEAEwDQYJKoZIhvcNAQELBQAwgYIxCzAJBgNVBAYTAkNa
MRowGAYDVQQIDBFKaWhvbW9yYXZza3kga3JhajEjMCEGA1UECgwaT3BlblN0YWNr
IENvbW1vbiBMaWJyYXJpZXMxFDASBgNVBAsMC0VuZ2luZWVyaW5nMRwwGgYDVQQD
DBNJbnRlcm1lZGlhdGUgQ0EgMDA1MB4XDTE4MDgxMDE2MjgzNVoXDTE4MDgzMTE2
MjgzNVowgYkxCzAJBgNVBAYTAkNaMRowGAYDVQQIDBFKaWhvbW9yYXZza3kga3Jh
ajENMAsGA1UEBwwEQnJubzEjMCEGA1UECgwaT3BlblN0YWNrIENvbW1vbiBMaWJy
YXJpZXMxFDASBgNVBAsMC0VuZ2luZWVyaW5nMRQwEgYDVQQDDAtOb2RlIDAwNTAw
MjCCASIwDQYJKoZIhvcNAQEBBQADggEPADCCAQoCggEBANruzIIFygMaSt9GZM5z
dm7SVipJot/t0rr0pJcxLAwmt8K4wHyJ/UZeYgIUtSn0HZoulSa3VZozf1ipVWjY
V5E3CrDj0zrhE3MQyMVr+5So3znpWPmFSSLiF7BuVRE7ADx+dpyh2ubQcN8LztoU
cC2qdzlaobAyyINMpJp3nTrwZ43Avf7040s4UIKn1k+qH4K7IWnRxFBU+0PCPvyA
RBkirakJLMT1IioZXw0i3s3GiLypDM1YZbSlqDZUZ+7BxYwUmK1rkkEWEMRISoQt
IB6aZ0mjCpdYoM/UbbTaIZZ2kyZX5HQF3lSIm8KQO9N3SIv9JQR/MKxkm7V/RNfw
LBUCAwEAAaOBxTCBwjAJBgNVHRMEAjAAMBEGCWCGSAGG+EIBAQQEAwIFoDAzBglg
hkgBhvhCAQ0EJhYkT3BlblNTTCBHZW5lcmF0ZWQgQ2xpZW50IENlcnRpZmljYXRl
MB0GA1UdDgQWBBTwzKTTiRqKthvUrXiw/gJ6JKyA+TAfBgNVHSMEGDAWgBRRxzpG
uGtb3a6i7VChnHfptRJAVzAOBgNVHQ8BAf8EBAMCBeAwHQYDVR0lBBYwFAYIKwYB
BQUHAwIGCCsGAQUFBwMEMA0GCSqGSIb3DQEBCwUAA4IBAQAyn5+ysFfo8wd6guTY
kYKlN61ZLLQ2x/vZfWfQexLUTwbdFRD7ZusAXK6IllNn3io0HI8dXkKjkqWTgjYQ
o7kQgr7AbWrsuGch7mTgt7kCj5pkMi+ocao3SOpRFR/ZiXWR3F/hhkObu/mn8/H/
DpPNZWEvczEEYdKeKeqEhryOvkMmFNsESAsOKM+3f3KmJ/F4ldkG6o4SqD8vKbgE
GiiKDoV9PsBCPJPpAwPEHPQ4rx2xixb45F69JA3FoZsrIMTsMMyOnlJvZqId5QRY
YuM1tzMojcH8RVMK2cCoIos6vD8KoKfUXK8QFSoYd0JrAsKRBSc/Q6c0sskIfGWc
E+UG
-----END CERTIFICATE-----
