Certificate:
    Data:
        Version: 3 (0x2)
        Serial Number: 4098 (0x1002)
    Signature Algorithm: sha256WithRSAEncryption
        Issuer: C=CZ, ST=Jihomoravsky kraj, O=OpenStack Common Libraries, OU=Engineering, CN=Intermediate CA 005
        Validity
            Not Before: Aug 14 16:16:15 2018 GMT
            Not After : Sep  4 16:16:15 2018 GMT
        Subject: C=CZ, ST=Jihomoravsky kraj, L=Brno, O=OpenStack Common Libraries, OU=Engineering, CN=Node 005003
        Subject Public Key Info:
            Public Key Algorithm: rsaEncryption
                Public-Key: (2048 bit)
                Modulus:
                    00:9c:ba:ac:36:c1:5e:ff:0d:fd:fe:87:e2:5c:09:
                    9f:22:a0:3c:97:50:52:52:63:01:6a:30:a0:72:e1:
                    1b:63:25:90:a3:0a:a2:a9:04:39:78:3d:c7:03:38:
                    0e:83:ae:7e:47:1e:cb:4d:9c:a7:d8:f8:fe:5b:c9:
                    e6:f7:49:91:2f:33:bd:69:68:14:2b:ad:a5:8b:40:
                    b8:4a:a1:60:bb:dc:74:20:0c:f8:a5:ca:3f:1e:9f:
                    fd:82:3f:99:7f:b5:86:05:8b:a0:37:50:e7:d3:a1:
                    b2:47:fc:8f:e8:6b:3d:39:88:62:c8:dc:22:6a:74:
                    e9:24:5e:5f:00:6c:5e:fe:ac:d4:46:b2:a5:bb:ba:
                    c9:27:c6:83:fc:d1:57:9d:30:c3:52:3a:3b:69:ca:
                    77:16:01:14:2d:c6:bd:8b:ef:11:94:b7:c1:06:b5:
                    f8:57:16:90:a6:b3:b4:7b:68:65:29:0b:cb:64:c8:
                    2c:a0:f6:dc:33:8c:8e:49:e8:fc:2a:1a:ab:6b:a9:
                    91:65:90:7d:2a:14:5b:40:7a:32:aa:78:52:69:9a:
                    f5:b9:54:45:46:1d:f5:46:f6:94:7a:a2:f5:c3:12:
                    5a:56:93:ac:f9:74:6e:82:d4:8e:82:ee:01:c2:14:
                    7f:f5:9f:49:2a:33:84:ad:5b:df:a7:7c:85:39:11:
                    ff:2b
                Exponent: 65537 (0x10001)
        X509v3 extensions:
            X509v3 Basic Constraints: 
                CA:FALSE
            Netscape Cert Type: 
                SSL Client, S/MIME
            Netscape Comment: 
                OpenSSL Generated Client Certificate
            X509v3 Subject Key Identifier: 
                60:77:F8:6C:6A:91:DA:27:4B:45:03:F5:6A:85:B7:E0:2F:55:8E:E2
            X509v3 Authority Key Identifier: 
                keyid:6C:E7:FB:AD:5C:6E:B3:08:08:67:09:F8:B8:C7:98:86:BE:7D:0B:20

            X509v3 Key Usage: critical
                Digital Signature, Non Repudiation, Key Encipherment
            X509v3 Extended Key Usage: 
                TLS Web Client Authentication, E-mail Protection
    Signature Algorithm: sha256WithRSAEncryption
         41:a4:33:e5:4b:cd:36:0b:b1:8e:e4:c1:36:ab:a5:21:d7:36:
         8c:9a:78:0a:97:88:83:ee:a2:e7:45:a5:c6:d0:f7:68:81:ff:
         fd:44:de:cb:ca:2c:60:0f:b9:ad:ab:23:42:ee:3d:d2:c9:90:
         e9:01:05:03:bd:14:1a:94:96:d8:6d:c1:70:f2:97:e0:85:84:
         eb:df:a8:ff:cf:94:22:13:6c:77:e7:d0:09:96:07:22:a2:b6:
         c5:60:79:19:e5:f2:76:4d:0d:30:2f:83:52:0a:29:4f:f9:56:
         85:01:f3:43:49:32:36:44:d7:e3:1b:5a:56:ea:e1:55:4e:4f:
         ac:ea:17:84:7b:47:fc:cf:f4:40:c7:c6:c3:dd:b8:5f:6f:60:
         26:f6:df:a4:ce:f1:e0:e7:47:cd:0b:3a:99:56:f8:7c:6b:25:
         9f:d3:73:a6:66:70:6f:f1:6d:d5:cb:59:19:ef:40:6e:59:e4:
         45:7c:12:7a:92:92:5c:3d:e0:4d:58:7c:af:fc:76:28:cf:49:
         2b:90:43:76:52:5b:a3:fc:61:e8:e9:37:7c:c7:e7:c4:80:56:
         61:7f:3a:ee:87:cb:ab:42:42:6d:a7:a9:75:32:de:9f:ee:7a:
         7e:f0:14:b0:cd:25:35:74:6a:ad:6a:ff:e2:0d:1d:d8:90:48:
         76:85:4e:bb:8f:90:f3:14:43:0e:91:1b:49:a2:ac:8e:bd:70:
         71:84:70:51:50:79:75:a3:37:9d:04:c5:c0:d4:93:d6:2a:5a:
         f3:16:4d:ff:11:48:98:a3:81:34:c8:24:bd:69:ec:7d:c6:5a:
         ff:e1:50:28:94:5c:63:25:8c:23:96:e5:93:b9:f1:91:ec:f4:
         98:9b:ba:83:70:07:29:7c:05:d4:53:57:83:dc:9c:cb:b4:e6:
         97:1e:83:85:39:cf:ed:4f:9f:37:f9:b0:56:0a:22:70:9c:69:
         57:09:db:b7:4b:48:e5:34:ee:99:f1:95:83:af:bb:f7:ec:84:
         ab:0b:69:13:2e:73:a2:59:99:b7:bc:06:bc:a1:62:40:24:17:
         8d:ba:0a:4a:72:a6:ff:1f:5a:c1:7c:50:d4:86:cf:72:de:13:
         fa:73:24:d4:ea:69:b3:dd:73:f9:cb:11:20:d6:d5:69:62:69:
         b0:06:6e:e8:a8:2a:76:a8:37:b6:40:b7:eb:fd:0e:6a:db:ec:
         2d:4e:e5:2e:56:93:cd:08:3d:b5:12:a5:ca:69:e3:15:f0:36:
         b1:3c:e1:73:06:52:69:66:6d:2e:6f:1d:98:ed:16:dd:58:34:
         ae:14:9d:b2:43:08:55:8a:01:a9:1f:4d:10:a9:7f:c6:ec:f9:
         d1:54:c5:3f:fc:6e:b3:c1
-----BEGIN CERTIFICATE-----
MIIFTzCCAzegAwIBAgICEAIwDQYJKoZIhvcNAQELBQAwgYIxCzAJBgNVBAYTAkNa
MRowGAYDVQQIDBFKaWhvbW9yYXZza3kga3JhajEjMCEGA1UECgwaT3BlblN0YWNr
IENvbW1vbiBMaWJyYXJpZXMxFDASBgNVBAsMC0VuZ2luZWVyaW5nMRwwGgYDVQQD
DBNJbnRlcm1lZGlhdGUgQ0EgMDA1MB4XDTE4MDgxNDE2MTYxNVoXDTE4MDkwNDE2
MTYxNVowgYkxCzAJBgNVBAYTAkNaMRowGAYDVQQIDBFKaWhvbW9yYXZza3kga3Jh
ajENMAsGA1UEBwwEQnJubzEjMCEGA1UECgwaT3BlblN0YWNrIENvbW1vbiBMaWJy
YXJpZXMxFDASBgNVBAsMC0VuZ2luZWVyaW5nMRQwEgYDVQQDDAtOb2RlIDAwNTAw
MzCCASIwDQYJKoZIhvcNAQEBBQADggEPADCCAQoCggEBAJy6rDbBXv8N/f6H4lwJ
nyKgPJdQUlJjAWowoHLhG2MlkKMKoqkEOXg9xwM4DoOufkcey02cp9j4/lvJ5vdJ
kS8zvWloFCutpYtAuEqhYLvcdCAM+KXKPx6f/YI/mX+1hgWLoDdQ59Ohskf8j+hr
PTmIYsjcImp06SReXwBsXv6s1Eaypbu6ySfGg/zRV50ww1I6O2nKdxYBFC3GvYvv
EZS3wQa1+FcWkKaztHtoZSkLy2TILKD23DOMjkno/Coaq2upkWWQfSoUW0B6Mqp4
Umma9blURUYd9Ub2lHqi9cMSWlaTrPl0boLUjoLuAcIUf/WfSSozhK1b36d8hTkR
/ysCAwEAAaOBxTCBwjAJBgNVHRMEAjAAMBEGCWCGSAGG+EIBAQQEAwIFoDAzBglg
hkgBhvhCAQ0EJhYkT3BlblNTTCBHZW5lcmF0ZWQgQ2xpZW50IENlcnRpZmljYXRl
MB0GA1UdDgQWBBRgd/hsapHaJ0tFA/VqhbfgL1WO4jAfBgNVHSMEGDAWgBRs5/ut
XG6zCAhnCfi4x5iGvn0LIDAOBgNVHQ8BAf8EBAMCBeAwHQYDVR0lBBYwFAYIKwYB
BQUHAwIGCCsGAQUFBwMEMA0GCSqGSIb3DQEBCwUAA4ICAQBBpDPlS802C7GO5ME2
q6Uh1zaMmngKl4iD7qLnRaXG0Pdogf/9RN7LyixgD7mtqyNC7j3SyZDpAQUDvRQa
lJbYbcFw8pfghYTr36j/z5QiE2x359AJlgciorbFYHkZ5fJ2TQ0wL4NSCilP+VaF
AfNDSTI2RNfjG1pW6uFVTk+s6heEe0f8z/RAx8bD3bhfb2Am9t+kzvHg50fNCzqZ
Vvh8ayWf03OmZnBv8W3Vy1kZ70BuWeRFfBJ6kpJcPeBNWHyv/HYoz0krkEN2Uluj
/GHo6Td8x+fEgFZhfzruh8urQkJtp6l1Mt6f7np+8BSwzSU1dGqtav/iDR3YkEh2
hU67j5DzFEMOkRtJoqyOvXBxhHBRUHl1ozedBMXA1JPWKlrzFk3/EUiYo4E0yCS9
aex9xlr/4VAolFxjJYwjluWTufGR7PSYm7qDcAcpfAXUU1eD3JzLtOaXHoOFOc/t
T583+bBWCiJwnGlXCdu3S0jlNO6Z8ZWDr7v37ISrC2kTLnOiWZm3vAa8oWJAJBeN
ugpKcqb/H1rBfFDUhs9y3hP6cyTU6mmz3XP5yxEg1tVpYmmwBm7oqCp2qDe2QLfr
/Q5q2+wtTuUuVpPNCD21EqXKaeMV8DaxPOFzBlJpZm0ubx2Y7RbdWDSuFJ2yQwhV
igGpH00QqX/G7PnRVMU//G6zwQ==
-----END CERTIFICATE-----
