Certificate:
    Data:
        Version: 3 (0x2)
        Serial Number: 4099 (0x1003)
    Signature Algorithm: sha256WithRSAEncryption
        Issuer: C=CZ, ST=Jihomoravsky kraj, O=OpenStack Common Libraries, OU=Engineering, CN=Intermediate CA 005
        Validity
            Not Before: Aug 14 16:16:16 2018 GMT
            Not After : Sep  4 16:16:16 2018 GMT
        Subject: C=CZ, ST=Jihomoravsky kraj, L=Brno, O=OpenStack Common Libraries, OU=Engineering, CN=Node 005004
        Subject Public Key Info:
            Public Key Algorithm: rsaEncryption
                Public-Key: (2048 bit)
                Modulus:
                    00:b2:04:b3:d8:12:f4:55:41:d6:b9:59:d1:7e:e0:
                    11:20:b6:59:00:3f:fc:6e:84:7b:ed:33:73:9b:8f:
                    60:ba:18:8f:70:bc:10:d4:70:f8:13:3d:91:9d:c9:
                    97:e7:18:95:47:53:a1:04:72:c8:e2:81:16:4f:0e:
                    6d:d1:0f:74:23:f4:6a:5a:f9:06:66:2b:23:c5:f2:
                    95:12:7e:26:30:91:71:09:d0:a7:85:e8:a9:20:e1:
                    cc:34:20:c6:01:ce:de:00:e2:fc:b2:7e:50:89:bd:
                    05:a9:85:4e:52:c5:77:d1:32:e4:2e:4f:af:82:bb:
                    2e:f1:be:99:f7:5c:de:dd:b6:1b:13:9a:8e:f2:3f:
                    5b:b1:00:1d:86:32:df:23:2f:7a:fb:79:71:09:35:
                    fb:d9:b5:54:69:ca:b9:5f:96:8e:06:24:69:20:f3:
                    67:4d:7e:95:b2:70:8a:d3:fd:1e:b6:7f:8c:ca:1f:
                    dd:08:16:99:8b:30:ed:90:05:97:15:0b:d2:8e:e4:
                    fc:cb:90:e6:18:f2:04:44:89:e1:63:94:eb:75:59:
                    8d:c7:68:2e:5d:e1:5a:f4:91:8a:f6:16:3e:f6:dc:
                    2e:35:45:88:ca:22:cc:2d:74:93:93:5f:0f:d4:e0:
                    31:9d:e9:4c:23:41:04:08:8d:32:df:96:28:f3:e0:
                    8b:3f
                Exponent: 65537 (0x10001)
        X509v3 extensions:
            X509v3 Basic Constraints: 
                CA:FALSE
            Netscape Cert Type: 
                SSL Client, S/MIME
            Netscape Comment: 
                OpenSSL Generated Client Certificate
            X509v3 Subject Key Identifier: 
                4C:65:8A:C6:9E:0A:9B:DA:04:5E:8E:18:F2:09:5A:02:5C:7F:C5:92
            X509v3 Authority Key Identifier: 
                keyid:6C:E7:FB:AD:5C:6E:B3:08:08:67:09:F8:B8:C7:98:86:BE:7D:0B:20

            X509v3 Key Usage: critical
                Digital Signature, Non Repudiation, Key Encipherment
            X509v3 Extended Key Usage: 
                TLS Web Client Authentication, E-mail Protection
    Signature Algorithm: sha256WithRSAEncryption
         71:89:fa:c9:42:fe:28:47:77:51:6f:07:35:35:03:de:97:1b:
         57:ca:1d:c1:e9:fa:0d:0a:38:24:89:d0:8a:4f:b9:21:c1:a9:
         d7:12:30:81:4f:32:ae:cc:70:d9:2a:f2:57:54:d3:01:b2:9a:
         4f:f5:7c:11:4c:40:f6:dd:74:ba:9f:45:73:af:c4:18:e2:aa:
         ee:d3:c3:19:a2:fc:5b:74:b8:06:d7:11:20:e4:68:77:c3:9b:
         ed:51:d9:5e:c1:51:df:d3:4a:1f:60:9f:16:b9:43:f0:46:e0:
         93:41:0a:70:c2:b4:9e:37:79:45:78:e0:9a:b8:69:1f:fa:d6:
         49:3c:65:45:31:63:63:72:95:74:23:82:b5:5a:2a:c0:d8:f6:
         b4:c4:bd:59:a7:27:12:bc:21:9a:aa:2d:7c:32:f7:c3:6b:78:
         34:e7:af:1b:6a:48:d2:10:96:97:c7:42:82:83:c4:89:ae:67:
         69:67:7a:b1:cc:3a:45:90:a8:ac:93:ce:40:ac:8f:82:42:33:
         89:90:64:de:38:9c:ed:e7:86:43:3f:89:18:19:c3:b4:00:58:
         a8:de:62:73:b2:24:47:07:a7:e3:ed:0e:37:e4:c6:8b:75:57:
         5c:4b:ad:b9:32:01:4e:d1:fe:91:9c:c6:8d:5b:59:5a:16:33:
         db:5f:cf:48:c3:23:32:b9:d5:ea:31:9f:95:bc:36:50:53:e2:
         a0:af:5f:54:db:9f:b3:30:d1:f5:31:6a:7d:d7:e7:08:df:1d:
         bf:8e:c2:69:13:42:da:36:0b:44:27:66:94:d0:70:10:1a:cd:
         28:2c:f1:fa:38:ef:2c:07:71:be:da:32:0c:2e:f0:75:fc:96:
         13:ac:b9:be:39:f2:04:6b:03:f1:c0:93:07:ed:cd:b1:fc:a1:
         c6:77:71:c9:ae:a4:c1:1d:46:d9:c8:fc:17:1d:f3:93:a6:aa:
         cf:9a:f5:25:ce:76:d2:7a:5f:ae:aa:9b:62:06:28:99:1c:ab:
         c9:29:c6:c5:ea:83:43:54:48:81:d0:40:fe:af:5b:0f:66:71:
         04:09:c7:c2:fd:f9:5c:9a:3f:02:02:1b:f8:a2:3f:9f:af:3e:
         31:05:5c:21:7b:f5:37:a7:2f:af:fa:0b:75:de:d3:5a:20:d9:
         ab:b1:e3:a1:d3:4a:e6:91:15:6d:a1:e4:5a:79:86:3e:4f:94:
         93:96:ed:37:0a:b0:9a:ab:1b:96:db:4d:87:4f:4d:6b:c1:f9:
         3f:99:e9:a9:e8:0a:47:28:98:a9:8c:71:d9:01:cb:b6:24:8d:
         ca:dc:1a:d8:07:bd:96:7f:23:f4:ee:84:a2:d9:0d:51:73:a2:
         24:c9:61:5d:ed:10:ac:9b
-----BEGIN CERTIFICATE-----
MIIFTzCCAzegAwIBAgICEAMwDQYJKoZIhvcNAQELBQAwgYIxCzAJBgNVBAYTAkNa
MRowGAYDVQQIDBFKaWhvbW9yYXZza3kga3JhajEjMCEGA1UECgwaT3BlblN0YWNr
IENvbW1vbiBMaWJyYXJpZXMxFDASBgNVBAsMC0VuZ2luZWVyaW5nMRwwGgYDVQQD
DBNJbnRlcm1lZGlhdGUgQ0EgMDA1MB4XDTE4MDgxNDE2MTYxNloXDTE4MDkwNDE2
MTYxNlowgYkxCzAJBgNVBAYTAkNaMRowGAYDVQQIDBFKaWhvbW9yYXZza3kga3Jh
ajENMAsGA1UEBwwEQnJubzEjMCEGA1UECgwaT3BlblN0YWNrIENvbW1vbiBMaWJy
YXJpZXMxFDASBgNVBAsMC0VuZ2luZWVyaW5nMRQwEgYDVQQDDAtOb2RlIDAwNTAw
NDCCASIwDQYJKoZIhvcNAQEBBQADggEPADCCAQoCggEBALIEs9gS9FVB1rlZ0X7g
ESC2WQA//G6Ee+0zc5uPYLoYj3C8ENRw+BM9kZ3Jl+cYlUdToQRyyOKBFk8ObdEP
dCP0alr5BmYrI8XylRJ+JjCRcQnQp4XoqSDhzDQgxgHO3gDi/LJ+UIm9BamFTlLF
d9Ey5C5Pr4K7LvG+mfdc3t22GxOajvI/W7EAHYYy3yMvevt5cQk1+9m1VGnKuV+W
jgYkaSDzZ01+lbJwitP9HrZ/jMof3QgWmYsw7ZAFlxUL0o7k/MuQ5hjyBESJ4WOU
63VZjcdoLl3hWvSRivYWPvbcLjVFiMoizC10k5NfD9TgMZ3pTCNBBAiNMt+WKPPg
iz8CAwEAAaOBxTCBwjAJBgNVHRMEAjAAMBEGCWCGSAGG+EIBAQQEAwIFoDAzBglg
hkgBhvhCAQ0EJhYkT3BlblNTTCBHZW5lcmF0ZWQgQ2xpZW50IENlcnRpZmljYXRl
MB0GA1UdDgQWBBRMZYrGngqb2gRejhjyCVoCXH/FkjAfBgNVHSMEGDAWgBRs5/ut
XG6zCAhnCfi4x5iGvn0LIDAOBgNVHQ8BAf8EBAMCBeAwHQYDVR0lBBYwFAYIKwYB
BQUHAwIGCCsGAQUFBwMEMA0GCSqGSIb3DQEBCwUAA4ICAQBxifrJQv4oR3dRbwc1
NQPelxtXyh3B6foNCjgkidCKT7khwanXEjCBTzKuzHDZKvJXVNMBsppP9XwRTED2
3XS6n0Vzr8QY4qru08MZovxbdLgG1xEg5Gh3w5vtUdlewVHf00ofYJ8WuUPwRuCT
QQpwwrSeN3lFeOCauGkf+tZJPGVFMWNjcpV0I4K1WirA2Pa0xL1ZpycSvCGaqi18
MvfDa3g0568bakjSEJaXx0KCg8SJrmdpZ3qxzDpFkKisk85ArI+CQjOJkGTeOJzt
54ZDP4kYGcO0AFio3mJzsiRHB6fj7Q435MaLdVdcS625MgFO0f6RnMaNW1laFjPb
X89IwyMyudXqMZ+VvDZQU+Kgr19U25+zMNH1MWp91+cI3x2/jsJpE0LaNgtEJ2aU
0HAQGs0oLPH6OO8sB3G+2jIMLvB1/JYTrLm+OfIEawPxwJMH7c2x/KHGd3HJrqTB
HUbZyPwXHfOTpqrPmvUlznbSel+uqptiBiiZHKvJKcbF6oNDVEiB0ED+r1sPZnEE
CcfC/flcmj8CAhv4oj+frz4xBVwhe/U3py+v+gt13tNaINmrseOh00rmkRVtoeRa
eYY+T5STlu03CrCaqxuW202HT01rwfk/memp6ApHKJipjHHZAcu2JI3K3BrYB72W
fyP07oSi2Q1Rc6IkyWFd7RCsmw==
-----END CERTIFICATE-----
