Certificate:
    Data:
        Version: 3 (0x2)
        Serial Number: 4099 (0x1003)
    Signature Algorithm: sha256WithRSAEncryption
        Issuer: C=CZ, ST=Jihomoravsky kraj, L=Brno, O=OpenStack Common Libraries, OU=Engineering, CN=Root CA
        Validity
            Not Before: Aug 10 16:28:09 2018 GMT
            Not After : Aug  7 16:28:09 2028 GMT
        Subject: C=CZ, ST=Jihomoravsky kraj, O=OpenStack Common Libraries, OU=Engineering, CN=Intermediate CA 004
        Subject Public Key Info:
            Public Key Algorithm: rsaEncryption
                Public-Key: (2048 bit)
                Modulus:
                    00:b8:d9:8b:e8:94:13:de:65:05:82:83:8a:01:cf:
                    2a:43:73:4f:92:2b:db:72:3f:27:38:bd:f6:8e:93:
                    29:35:e0:36:59:ae:02:21:c7:24:a1:df:79:b6:fe:
                    c3:0a:c7:cd:28:0b:ce:52:69:aa:e2:d1:48:25:12:
                    fd:bb:0c:cd:26:aa:5c:06:41:18:2f:41:bd:48:fa:
                    28:9b:e2:b5:bf:bb:68:aa:09:db:2c:6c:0a:66:68:
                    d8:45:db:ca:72:45:0e:ec:40:ee:86:a8:39:c0:32:
                    f5:7d:35:1f:96:c7:ce:a6:0a:74:66:01:83:99:a3:
                    80:bf:e4:e6:37:46:30:06:77:f2:ec:9c:ac:12:80:
                    de:1e:ea:19:e1:94:a1:26:60:48:3d:61:44:62:86:
                    12:8b:b2:83:14:67:b1:f7:43:cc:f9:05:2a:d8:01:
                    32:73:e9:5d:40:cf:d0:c9:0d:78:f1:69:d8:7a:e2:
                    88:db:68:29:d5:e7:b2:c7:cd:37:c0:15:e3:a8:fc:
                    44:8d:94:1e:ec:9d:f4:7e:c9:81:1a:c7:9b:c8:16:
                    0f:c8:35:bb:c3:87:76:60:a2:08:4b:6a:f4:4b:b3:
                    da:30:f5:2e:fc:63:24:38:6d:fa:8f:ac:0b:d3:e2:
                    a5:4c:60:c5:13:a9:20:57:97:5d:23:b0:b5:8d:a2:
                    67:3b
                Exponent: 65537 (0x10001)
        X509v3 extensions:
            X509v3 Subject Key Identifier: 
                98:04:B2:A9:25:AE:34:23:10:BA:50:75:EE:E4:A0:0C:2B:41:6E:AE
            X509v3 Authority Key Identifier: 
                keyid:FF:EE:5D:6F:A5:B1:66:52:28:CC:10:71:3F:41:50:11:96:97:E7:F9

            X509v3 Basic Constraints: critical
                CA:TRUE, pathlen:0
            X509v3 Key Usage: critical
                Digital Signature, Certificate Sign, CRL Sign
    Signature Algorithm: sha256WithRSAEncryption
         86:4a:57:a5:b1:53:1b:d6:71:be:cc:57:88:78:5e:66:1b:e2:
         6f:84:9e:33:a4:83:d2:bd:a8:e3:83:22:a5:f0:e2:af:4c:9f:
         b5:fa:83:11:ed:4c:62:f0:4e:f9:d8:6a:d0:05:fc:d2:f4:c7:
         6b:01:66:57:88:95:3a:8d:26:4d:60:09:df:ee:cc:fd:fe:cc:
         c3:91:06:c4:37:2c:b0:2e:63:90:60:32:77:db:d9:a5:25:33:
         10:eb:8a:cd:b7:fe:b8:27:e5:91:fe:f7:ff:f6:cf:26:75:95:
         d7:e8:fd:20:f4:e4:11:c1:7e:e5:44:d8:b1:f7:02:6e:79:8a:
         d4:7a:02:25:b9:f3:6a:04:3d:a7:ff:7e:30:98:df:91:94:97:
         4b:04:1e:7a:27:8d:8e:9e:40:27:a4:6d:a3:b9:6e:3f:40:ca:
         7e:d4:c0:c4:d5:e1:6a:fd:f2:cf:f1:22:80:1e:6e:c2:96:8f:
         e8:63:67:4f:4e:50:56:a4:a2:49:aa:32:eb:22:b0:4c:04:1d:
         8e:32:32:04:89:5b:48:07:2c:28:d6:5f:b1:d7:70:3e:9b:40:
         f9:db:6b:5d:35:db:5a:87:40:4a:16:3a:20:99:04:88:14:03:
         e9:46:f1:60:4e:da:15:a6:b4:b8:de:93:0c:88:1c:fe:e0:73:
         3d:c1:f9:9a
-----BEGIN CERTIFICATE-----
MIID6zCCAtOgAwIBAgICEAMwDQYJKoZIhvcNAQELBQAwgYUxCzAJBgNVBAYTAkNa
MRowGAYDVQQIDBFKaWhvbW9yYXZza3kga3JhajENMAsGA1UEBwwEQnJubzEjMCEG
A1UECgwaT3BlblN0YWNrIENvbW1vbiBMaWJyYXJpZXMxFDASBgNVBAsMC0VuZ2lu
ZWVyaW5nMRAwDgYDVQQDDAdSb290IENBMB4XDTE4MDgxMDE2MjgwOVoXDTI4MDgw
NzE2MjgwOVowgYIxCzAJBgNVBAYTAkNaMRowGAYDVQQIDBFKaWhvbW9yYXZza3kg
a3JhajEjMCEGA1UECgwaT3BlblN0YWNrIENvbW1vbiBMaWJyYXJpZXMxFDASBgNV
BAsMC0VuZ2luZWVyaW5nMRwwGgYDVQQDDBNJbnRlcm1lZGlhdGUgQ0EgMDA0MIIB
IjANBgkqhkiG9w0BAQEFAAOCAQ8AMIIBCgKCAQEAuNmL6JQT3mUFgoOKAc8qQ3NP
kivbcj8nOL32jpMpNeA2Wa4CIcckod95tv7DCsfNKAvOUmmq4tFIJRL9uwzNJqpc
BkEYL0G9SPoom+K1v7toqgnbLGwKZmjYRdvKckUO7EDuhqg5wDL1fTUflsfOpgp0
ZgGDmaOAv+TmN0YwBnfy7JysEoDeHuoZ4ZShJmBIPWFEYoYSi7KDFGex90PM+QUq
2AEyc+ldQM/QyQ148WnYeuKI22gp1eeyx803wBXjqPxEjZQe7J30fsmBGsebyBYP
yDW7w4d2YKIIS2r0S7PaMPUu/GMkOG36j6wL0+KlTGDFE6kgV5ddI7C1jaJnOwID
AQABo2YwZDAdBgNVHQ4EFgQUmASyqSWuNCMQulB17uSgDCtBbq4wHwYDVR0jBBgw
FoAU/+5db6WxZlIozBBxP0FQEZaX5/kwEgYDVR0TAQH/BAgwBgEB/wIBADAOBgNV
HQ8BAf8EBAMCAYYwDQYJKoZIhvcNAQELBQADggEBAIZKV6WxUxvWcb7MV4h4XmYb
4m+EnjOkg9K9qOODIqXw4q9Mn7X6gxHtTGLwTvnYatAF/NL0x2sBZleIlTqNJk1g
Cd/uzP3+zMORBsQ3LLAuY5BgMnfb2aUlMxDris23/rgn5ZH+9//2zyZ1ldfo/SD0
5BHBfuVE2LH3Am55itR6AiW582oEPaf/fjCY35GUl0sEHnonjY6eQCekbaO5bj9A
yn7UwMTV4Wr98s/xIoAebsKWj+hjZ09OUFakokmqMusisEwEHY4yMgSJW0gHLCjW
X7HXcD6bQPnba10121qHQEoWOiCZBIgUA+lG8WBO2hWmtLjekwyIHP7gcz3B+Zo=
-----END CERTIFICATE-----
