Certificate:
    Data:
        Version: 3 (0x2)
        Serial Number: 4097 (0x1001)
    Signature Algorithm: sha256WithRSAEncryption
        Issuer: C=CZ, ST=Jihomoravsky kraj, O=OpenStack Common Libraries, OU=Engineering, CN=Intermediate CA 004
        Validity
            Not Before: Aug 14 16:16:15 2018 GMT
            Not After : Sep  4 16:16:15 2018 GMT
        Subject: C=CZ, ST=Jihomoravsky kraj, L=Brno, O=OpenStack Common Libraries, OU=Engineering, CN=Node 004002
        Subject Public Key Info:
            Public Key Algorithm: rsaEncryption
                Public-Key: (2048 bit)
                Modulus:
                    00:c5:e9:5a:db:02:b0:cd:0c:cf:63:f2:ac:43:25:
                    a3:3b:dd:58:97:e6:35:19:eb:ab:10:fd:b5:42:31:
                    a6:d2:d8:93:a0:1d:25:88:c4:bd:04:a4:f8:eb:1e:
                    1a:30:08:14:92:30:f3:e1:af:81:29:38:b2:74:be:
                    79:b0:22:fd:47:f0:3a:dc:bf:05:65:71:8f:5a:ba:
                    08:58:52:92:4c:93:01:04:78:58:1a:23:be:8a:9e:
                    55:ef:8b:d1:90:1a:ef:55:50:6e:29:73:05:2d:3f:
                    68:94:30:58:39:ef:3e:21:01:2b:b8:18:be:db:ef:
                    c8:09:e7:b2:a4:21:51:19:60:dc:a5:3b:98:75:76:
                    e4:f5:61:8f:7d:1e:f8:c7:cf:a9:53:ec:1e:95:ed:
                    e0:a0:5e:cf:e3:36:a2:1a:c5:e3:5f:c6:ce:1e:f2:
                    9f:2c:6c:06:91:79:64:05:3e:da:90:60:9a:0f:cc:
                    f7:ad:43:fc:68:7f:e9:d9:c3:69:38:bb:45:11:fa:
                    49:33:ff:dd:2e:b2:3f:23:7b:e2:0d:79:5a:0b:b4:
                    71:39:52:19:b5:cc:00:bb:b6:1c:2a:42:a3:e9:70:
                    ff:d7:60:80:a0:55:9c:d7:31:ad:73:78:64:3b:1b:
                    b4:08:3b:87:62:54:48:e9:31:c8:f5:8c:79:73:c7:
                    b2:b7
                Exponent: 65537 (0x10001)
        X509v3 extensions:
            X509v3 Basic Constraints: 
                CA:FALSE
            Netscape Cert Type: 
                SSL Client, S/MIME
            Netscape Comment: 
                OpenSSL Generated Client Certificate
            X509v3 Subject Key Identifier: 
                51:34:AD:35:A6:66:32:3D:30:D7:16:AF:86:E6:17:4A:66:18:86:B2
            X509v3 Authority Key Identifier: 
                keyid:36:01:BF:34:4D:50:5E:FA:28:18:58:6B:29:14:B1:FB:E3:07:AE:31

            X509v3 Key Usage: critical
                Digital Signature, Non Repudiation, Key Encipherment
            X509v3 Extended Key Usage: 
                TLS Web Client Authentication, E-mail Protection
    Signature Algorithm: sha256WithRSAEncryption
         62:f5:85:5a:09:01:85:ad:e1:84:76:a4:3f:e7:ea:29:0d:af:
         1a:bd:ab:d8:85:90:8f:fe:33:5b:3f:50:98:bc:a7:18:31:b0:
         03:ff:dc:6b:72:af:d5:c5:63:d2:0a:1b:c4:11:97:24:5a:bb:
         88:99:4a:75:4b:b6:48:b1:58:38:47:c7:22:de:e1:1e:77:c5:
         3b:09:d8:e0:79:eb:76:79:82:a3:de:a3:5d:3c:66:8c:c5:23:
         fc:60:26:dd:dd:b6:dd:52:05:97:f7:4a:8c:61:46:86:07:e2:
         41:cb:c4:d1:0b:0a:50:ba:9f:60:6c:80:37:9e:c1:b3:ac:15:
         09:ee:cb:7f:3b:ce:5f:33:70:8d:a1:70:69:89:3e:51:d9:f9:
         c0:62:a3:b5:2b:b7:f7:c4:8d:38:8e:99:1c:87:d5:ff:aa:75:
         fa:e3:10:eb:e9:00:78:19:50:20:2c:a8:3a:88:b9:e2:7c:11:
         ac:62:0c:d1:a2:ac:c0:8a:54:bb:d9:81:02:35:73:dc:4c:29:
         1c:3e:0f:f4:e7:dc:8c:ca:c8:42:92:65:99:ea:10:4b:78:a0:
         07:69:3c:44:4e:1d:bc:fa:a0:99:45:e1:25:93:87:18:9a:ac:
         12:14:b6:b6:a6:77:9e:fb:b7:99:f3:e6:c0:24:80:8c:7e:0a:
         53:2f:42:da:98:6b:d6:07:01:21:f9:9a:28:91:85:d6:cd:14:
         db:03:d7:c5:44:1a:d8:88:cf:c8:ad:a6:f5:ff:d2:9a:f6:39:
         2a:60:7b:7a:d0:34:15:b4:dc:06:9a:c1:08:42:59:cc:18:37:
         2a:6b:42:1a:56:24:af:d9:fd:ec:bf:a0:bb:9f:3b:8b:05:64:
         cd:03:8e:f4:7e:d0:71:53:12:5c:f9:6f:53:f8:e7:8b:3e:4f:
         4a:05:23:b3:62:79:13:06:f7:c3:57:88:b4:15:0f:29:f1:f8:
         98:2a:90:b1:1a:73:17:e4:02:78:8f:a8:16:0f:01:af:5f:5d:
         ac:86:ee:32:55:4c:ef:f0:03:db:18:c6:86:6a:01:ff:84:e0:
         90:2a:f8:4f:ff:d4:2e:a3:27:cb:d9:48:2c:a1:1f:f9:75:84:
         d3:d2:e8:0c:42:e9:34:9d:0f:82:5d:31:38:35:43:bb:30:f6:
         30:11:ee:f4:8d:b4:15:b5:db:9d:33:55:b9:50:9a:46:87:b7:
         f2:76:0e:fc:7b:12:3c:58:8b:42:e4:51:9e:bd:f1:22:39:9a:
         5f:1d:a6:24:d3:38:7e:53:f2:cc:0d:64:fb:ac:f4:44:54:1e:
         56:e9:63:fb:ff:e5:e1:ea:17:42:bd:19:e7:b6:77:0c:1f:95:
         fb:4b:25:5d:5e:b2:ca:cb
-----BEGIN CERTIFICATE-----
MIIFTzCCAzegAwIBAgICEAEwDQYJKoZIhvcNAQELBQAwgYIxCzAJBgNVBAYTAkNa
MRowGAYDVQQIDBFKaWhvbW9yYXZza3kga3JhajEjMCEGA1UECgwaT3BlblN0YWNr
IENvbW1vbiBMaWJyYXJpZXMxFDASBgNVBAsMC0VuZ2luZWVyaW5nMRwwGgYDVQQD
DBNJbnRlcm1lZGlhdGUgQ0EgMDA0MB4XDTE4MDgxNDE2MTYxNVoXDTE4MDkwNDE2
MTYxNVowgYkxCzAJBgNVBAYTAkNaMRowGAYDVQQIDBFKaWhvbW9yYXZza3kga3Jh
ajENMAsGA1UEBwwEQnJubzEjMCEGA1UECgwaT3BlblN0YWNrIENvbW1vbiBMaWJy
YXJpZXMxFDASBgNVBAsMC0VuZ2luZWVyaW5nMRQwEgYDVQQDDAtOb2RlIDAwNDAw
MjCCASIwDQYJKoZIhvcNAQEBBQADggEPADCCAQoCggEBAMXpWtsCsM0Mz2PyrEMl
ozvdWJfmNRnrqxD9tUIxptLYk6AdJYjEvQSk+OseGjAIFJIw8+GvgSk4snS+ebAi
/UfwOty/BWVxj1q6CFhSkkyTAQR4WBojvoqeVe+L0ZAa71VQbilzBS0/aJQwWDnv
PiEBK7gYvtvvyAnnsqQhURlg3KU7mHV25PVhj30e+MfPqVPsHpXt4KBez+M2ohrF
41/Gzh7ynyxsBpF5ZAU+2pBgmg/M961D/Gh/6dnDaTi7RRH6STP/3S6yPyN74g15
Wgu0cTlSGbXMALu2HCpCo+lw/9dggKBVnNcxrXN4ZDsbtAg7h2JUSOkxyPWMeXPH
srcCAwEAAaOBxTCBwjAJBgNVHRMEAjAAMBEGCWCGSAGG+EIBAQQEAwIFoDAzBglg
hkgBhvhCAQ0EJhYkT3BlblNTTCBHZW5lcmF0ZWQgQ2xpZW50IENlcnRpZmljYXRl
MB0GA1UdDgQWBBRRNK01pmYyPTDXFq+G5hdKZhiGsjAfBgNVHSMEGDAWgBQ2Ab80
TVBe+igYWGspFLH74weuMTAOBgNVHQ8BAf8EBAMCBeAwHQYDVR0lBBYwFAYIKwYB
BQUHAwIGCCsGAQUFBwMEMA0GCSqGSIb3DQEBCwUAA4ICAQBi9YVaCQGFreGEdqQ/
5+opDa8avavYhZCP/jNbP1CYvKcYMbAD/9xrcq/VxWPSChvEEZckWruImUp1S7ZI
sVg4R8ci3uEed8U7Cdjgeet2eYKj3qNdPGaMxSP8YCbd3bbdUgWX90qMYUaGB+JB
y8TRCwpQup9gbIA3nsGzrBUJ7st/O85fM3CNoXBpiT5R2fnAYqO1K7f3xI04jpkc
h9X/qnX64xDr6QB4GVAgLKg6iLnifBGsYgzRoqzAilS72YECNXPcTCkcPg/059yM
yshCkmWZ6hBLeKAHaTxETh28+qCZReElk4cYmqwSFLa2pnee+7eZ8+bAJICMfgpT
L0LamGvWBwEh+ZookYXWzRTbA9fFRBrYiM/Irab1/9Ka9jkqYHt60DQVtNwGmsEI
QlnMGDcqa0IaViSv2f3sv6C7nzuLBWTNA470ftBxUxJc+W9T+OeLPk9KBSOzYnkT
BvfDV4i0FQ8p8fiYKpCxGnMX5AJ4j6gWDwGvX12shu4yVUzv8APbGMaGagH/hOCQ
KvhP/9QuoyfL2UgsoR/5dYTT0ugMQuk0nQ+CXTE4NUO7MPYwEe70jbQVtdudM1W5
UJpGh7fydg78exI8WItC5FGevfEiOZpfHaYk0zh+U/LMDWT7rPREVB5W6WP7/+Xh
6hdCvRnntncMH5X7SyVdXrLKyw==
-----END CERTIFICATE-----
