Certificate:
    Data:
        Version: 3 (0x2)
        Serial Number: 4099 (0x1003)
    Signature Algorithm: sha256WithRSAEncryption
        Issuer: C=CZ, ST=Jihomoravsky kraj, O=OpenStack Common Libraries, OU=Engineering, CN=Intermediate CA 004
        Validity
            Not Before: Aug 14 16:16:15 2018 GMT
            Not After : Sep  4 16:16:15 2018 GMT
        Subject: C=CZ, ST=Jihomoravsky kraj, L=Brno, O=OpenStack Common Libraries, OU=Engineering, CN=Node 004004
        Subject Public Key Info:
            Public Key Algorithm: rsaEncryption
                Public-Key: (2048 bit)
                Modulus:
                    00:d2:37:1c:81:7e:a0:e7:ed:f2:c3:69:74:da:4f:
                    80:e5:60:7f:a1:c0:07:70:c2:26:23:b8:a9:bd:ca:
                    e2:d1:a7:19:9a:05:bf:64:a5:84:51:b2:8c:01:54:
                    5f:8a:a9:7c:40:d0:85:89:2d:65:a4:40:f1:cc:ed:
                    d4:1f:2b:68:46:61:e1:59:73:c7:83:66:95:f7:12:
                    c2:e4:ea:f0:ae:ef:34:f9:25:07:aa:c1:20:d1:52:
                    71:bf:d3:ef:2e:59:d2:56:f5:8f:19:a6:57:51:74:
                    b2:87:4e:44:9d:b8:3c:5e:c4:47:5f:bc:62:d8:d8:
                    9d:ac:35:ae:01:fe:2b:80:f0:3e:25:57:de:34:98:
                    e2:5e:87:1e:09:9b:76:ee:ec:1e:20:87:4c:12:70:
                    d2:81:79:d9:c7:57:84:3a:ca:01:c3:7e:4d:12:1a:
                    2f:78:21:81:90:5f:b8:7b:b5:84:3d:12:4c:20:80:
                    ae:91:e9:18:ad:62:32:23:f4:51:0f:ad:68:8d:09:
                    e2:bd:7b:97:97:5f:ab:a1:d0:51:d8:93:28:e3:aa:
                    61:5a:69:47:ed:fd:c0:91:0b:79:11:28:aa:b6:4f:
                    47:5a:bc:a8:9e:7e:c4:87:8e:14:70:6c:c7:31:28:
                    16:cf:64:f9:30:d4:64:ad:13:4d:10:d9:80:a5:ec:
                    86:df
                Exponent: 65537 (0x10001)
        X509v3 extensions:
            X509v3 Basic Constraints: 
                CA:FALSE
            Netscape Cert Type: 
                SSL Client, S/MIME
            Netscape Comment: 
                OpenSSL Generated Client Certificate
            X509v3 Subject Key Identifier: 
                86:EE:C6:F9:EE:1B:79:A2:6C:32:6E:5A:17:ED:A8:E8:8D:FB:AA:8C
            X509v3 Authority Key Identifier: 
                keyid:36:01:BF:34:4D:50:5E:FA:28:18:58:6B:29:14:B1:FB:E3:07:AE:31

            X509v3 Key Usage: critical
                Digital Signature, Non Repudiation, Key Encipherment
            X509v3 Extended Key Usage: 
                TLS Web Client Authentication, E-mail Protection
    Signature Algorithm: sha256WithRSAEncryption
         69:53:2a:1f:11:37:dd:11:27:1a:d4:f4:44:aa:0f:58:2d:3d:
         ba:18:a3:25:dd:57:e6:39:e0:9a:8f:16:ed:28:f3:c4:4c:ae:
         fa:06:dc:4d:ff:2d:4f:30:2a:7f:bd:7f:a2:2b:1f:99:a4:d0:
         28:fb:e3:87:f5:a4:15:ea:b9:72:12:f8:f3:d4:35:35:e4:c1:
         95:63:e2:d0:19:34:0a:c1:37:bd:70:2d:79:cf:a9:30:61:7e:
         28:02:da:5d:c1:8c:cd:4a:23:f6:65:ea:1d:d7:66:79:a2:a3:
         5a:01:73:bf:f4:da:7f:71:0e:64:0b:1a:5f:41:69:f8:ee:8b:
         b1:a2:fb:ad:16:3d:5a:c9:4e:5c:17:43:c2:20:6a:91:58:0b:
         02:45:18:3d:14:c5:35:35:4b:d9:d0:69:c1:50:e8:72:79:8e:
         09:04:88:82:10:0d:61:e6:0f:a8:39:b7:06:fc:6c:f4:79:96:
         29:d8:39:72:cb:bf:bd:b8:b4:78:a0:23:bf:42:fc:83:cf:1a:
         d3:78:0f:37:80:76:7f:85:91:94:28:df:89:73:64:32:48:f7:
         e3:75:46:29:56:2a:4c:fc:08:2b:a6:31:51:01:7e:64:8c:91:
         ec:ed:9c:3d:71:50:63:4f:ba:ec:ff:c6:2c:41:07:da:9f:14:
         de:a2:15:02:39:89:ea:1f:01:27:08:07:77:16:40:09:89:17:
         f4:cc:ea:0a:5b:c6:07:86:16:1e:c1:6f:64:11:3e:cb:27:38:
         2e:75:60:33:95:3b:6a:7c:34:56:45:e0:e0:ba:bd:ef:43:23:
         bd:3e:31:21:96:e5:62:07:78:7c:75:65:a1:54:41:e3:4b:62:
         66:b7:d9:0a:58:b7:dd:ba:da:13:47:b1:47:1c:d2:e1:41:54:
         10:7c:58:b7:11:be:ad:37:39:6f:fb:be:62:8a:1f:4e:7a:bb:
         94:ca:74:28:c4:15:15:8f:4b:dd:57:6e:75:89:59:6f:77:bb:
         a3:07:ff:f8:54:24:1b:2b:e0:a9:87:ac:01:35:f3:ee:3a:ef:
         fc:dd:49:76:18:df:fd:3c:0e:b2:ba:55:bb:c9:88:41:09:b0:
         56:52:28:89:6f:61:7b:ec:b4:d4:f5:f8:95:34:b2:49:58:3d:
         ce:8e:e6:d8:5b:0a:72:d3:0a:41:19:38:b3:eb:70:99:3e:53:
         95:f3:7c:b1:de:95:cc:cd:f9:2c:5b:11:84:f5:15:8a:b0:82:
         8b:bc:1d:6f:85:28:88:be:38:35:fb:46:02:c5:dc:e6:cd:00:
         4e:be:0f:33:8e:02:3f:75:b9:aa:99:f1:36:0e:af:61:63:4a:
         24:c1:fa:86:2d:fe:71:90
-----BEGIN CERTIFICATE-----
MIIFTzCCAzegAwIBAgICEAMwDQYJKoZIhvcNAQELBQAwgYIxCzAJBgNVBAYTAkNa
MRowGAYDVQQIDBFKaWhvbW9yYXZza3kga3JhajEjMCEGA1UECgwaT3BlblN0YWNr
IENvbW1vbiBMaWJyYXJpZXMxFDASBgNVBAsMC0VuZ2luZWVyaW5nMRwwGgYDVQQD
DBNJbnRlcm1lZGlhdGUgQ0EgMDA0MB4XDTE4MDgxNDE2MTYxNVoXDTE4MDkwNDE2
MTYxNVowgYkxCzAJBgNVBAYTAkNaMRowGAYDVQQIDBFKaWhvbW9yYXZza3kga3Jh
ajENMAsGA1UEBwwEQnJubzEjMCEGA1UECgwaT3BlblN0YWNrIENvbW1vbiBMaWJy
YXJpZXMxFDASBgNVBAsMC0VuZ2luZWVyaW5nMRQwEgYDVQQDDAtOb2RlIDAwNDAw
NDCCASIwDQYJKoZIhvcNAQEBBQADggEPADCCAQoCggEBANI3HIF+oOft8sNpdNpP
gOVgf6HAB3DCJiO4qb3K4tGnGZoFv2SlhFGyjAFUX4qpfEDQhYktZaRA8czt1B8r
aEZh4Vlzx4NmlfcSwuTq8K7vNPklB6rBINFScb/T7y5Z0lb1jxmmV1F0sodORJ24
PF7ER1+8YtjYnaw1rgH+K4DwPiVX3jSY4l6HHgmbdu7sHiCHTBJw0oF52cdXhDrK
AcN+TRIaL3ghgZBfuHu1hD0STCCArpHpGK1iMiP0UQ+taI0J4r17l5dfq6HQUdiT
KOOqYVppR+39wJELeREoqrZPR1q8qJ5+xIeOFHBsxzEoFs9k+TDUZK0TTRDZgKXs
ht8CAwEAAaOBxTCBwjAJBgNVHRMEAjAAMBEGCWCGSAGG+EIBAQQEAwIFoDAzBglg
hkgBhvhCAQ0EJhYkT3BlblNTTCBHZW5lcmF0ZWQgQ2xpZW50IENlcnRpZmljYXRl
MB0GA1UdDgQWBBSG7sb57ht5omwybloX7ajojfuqjDAfBgNVHSMEGDAWgBQ2Ab80
TVBe+igYWGspFLH74weuMTAOBgNVHQ8BAf8EBAMCBeAwHQYDVR0lBBYwFAYIKwYB
BQUHAwIGCCsGAQUFBwMEMA0GCSqGSIb3DQEBCwUAA4ICAQBpUyofETfdESca1PRE
qg9YLT26GKMl3VfmOeCajxbtKPPETK76BtxN/y1PMCp/vX+iKx+ZpNAo++OH9aQV
6rlyEvjz1DU15MGVY+LQGTQKwTe9cC15z6kwYX4oAtpdwYzNSiP2Zeod12Z5oqNa
AXO/9Np/cQ5kCxpfQWn47ouxovutFj1ayU5cF0PCIGqRWAsCRRg9FMU1NUvZ0GnB
UOhyeY4JBIiCEA1h5g+oObcG/Gz0eZYp2Dlyy7+9uLR4oCO/QvyDzxrTeA83gHZ/
hZGUKN+Jc2QySPfjdUYpVipM/AgrpjFRAX5kjJHs7Zw9cVBjT7rs/8YsQQfanxTe
ohUCOYnqHwEnCAd3FkAJiRf0zOoKW8YHhhYewW9kET7LJzgudWAzlTtqfDRWReDg
ur3vQyO9PjEhluViB3h8dWWhVEHjS2Jmt9kKWLfdutoTR7FHHNLhQVQQfFi3Eb6t
Nzlv+75iih9OeruUynQoxBUVj0vdV251iVlvd7ujB//4VCQbK+Cph6wBNfPuOu/8
3Ul2GN/9PA6yulW7yYhBCbBWUiiJb2F77LTU9fiVNLJJWD3OjubYWwpy0wpBGTiz
63CZPlOV83yx3pXMzfksWxGE9RWKsIKLvB1vhSiIvjg1+0YCxdzmzQBOvg8zjgI/
dbmqmfE2Dq9hY0okwfqGLf5xkA==
-----END CERTIFICATE-----
Certificate:
    Data:
        Version: 3 (0x2)
        Serial Number: 4100 (0x1004)
    Signature Algorithm: sha256WithRSAEncryption
        Issuer: C=CZ, ST=Jihomoravsky kraj, L=Brno, O=OpenStack Common Libraries, OU=Engineering, CN=Root CA
        Validity
            Not Before: Aug 14 16:16:12 2018 GMT
            Not After : Aug 11 16:16:12 2028 GMT
        Subject: C=CZ, ST=Jihomoravsky kraj, O=OpenStack Common Libraries, OU=Engineering, CN=Intermediate CA 004
        Subject Public Key Info:
            Public Key Algorithm: rsaEncryption
                Public-Key: (4096 bit)
                Modulus:
                    00:b1:5f:37:4f:b1:6b:2f:95:82:9c:91:ec:07:f3:
                    8c:61:22:76:26:1b:24:d9:58:97:7b:7e:19:b0:c4:
                    7f:58:17:95:c5:0e:45:27:01:fc:87:8d:61:09:5f:
                    9b:84:60:54:1c:a7:4b:60:f4:cf:d4:0d:4d:28:12:
                    df:e3:1b:78:89:b2:e7:04:af:be:7d:11:68:40:6d:
                    2d:89:3c:e7:12:f5:84:57:f8:4f:46:34:4e:82:ff:
                    a7:80:cd:5f:2c:81:43:ba:0f:83:c6:4c:ce:5f:9f:
                    23:fc:06:53:85:d9:07:bc:6e:60:de:50:f4:3a:0a:
                    b7:59:09:56:cd:86:66:10:54:5f:92:2d:54:3b:a1:
                    a7:25:b1:de:36:ef:a1:4d:76:20:ef:63:ba:72:03:
                    c3:04:38:da:a4:42:2a:e2:c2:37:2d:27:26:3c:f4:
                    f9:6f:5a:8f:6d:6b:ae:df:16:b6:96:a9:9a:45:3e:
                    ca:58:fc:67:23:5a:02:d4:db:b0:b5:b1:1b:1c:33:
                    d7:96:7a:1b:8a:03:51:e9:2b:07:68:cb:04:d0:48:
                    97:61:7d:55:2d:7a:95:3d:d4:9c:c6:a4:7e:c6:1b:
                    2b:97:d9:ed:19:16:76:b6:c1:04:5f:58:6a:cb:b3:
                    d4:92:64:f4:78:9a:d7:9b:25:28:04:b5:8b:2f:ba:
                    01:4e:d5:14:15:b2:08:f4:35:70:36:46:83:f1:5a:
                    ef:1b:9e:b0:e1:d4:f5:f3:fe:69:93:9a:fa:34:01:
                    48:b9:cf:e1:b5:ef:45:6c:6c:86:f2:d2:8e:c5:0b:
                    3a:54:3b:90:14:91:13:8c:46:81:eb:ed:65:c4:9b:
                    3b:8c:13:e1:4a:81:a7:16:2f:78:61:61:42:96:57:
                    e9:2b:93:8f:d6:29:93:c3:20:26:3c:6f:bf:6d:b2:
                    1c:f9:8c:04:bd:99:2a:d2:6b:d0:a6:5e:09:69:f8:
                    91:79:a0:12:0f:c0:9e:f0:16:02:f2:0c:58:f3:20:
                    63:f6:0d:5b:61:ef:18:d1:86:fb:ca:e6:4a:bf:0d:
                    c6:e5:c4:0c:2e:44:6b:32:86:cb:77:d2:c6:43:82:
                    a3:a9:9f:80:f6:fe:79:5c:6d:21:c3:19:5e:48:68:
                    b7:7f:8e:0a:ac:71:8c:52:fc:49:77:f4:cb:13:0c:
                    3f:43:bc:3a:08:6f:4f:e9:10:69:98:64:fa:96:6d:
                    6a:b3:00:8c:b1:40:6f:4b:99:a1:29:91:6e:3f:07:
                    9b:c4:4a:d8:f3:60:5d:4b:86:62:e4:90:7a:a0:ea:
                    e5:ed:7d:27:28:1b:41:22:22:c0:bb:31:09:ef:56:
                    01:96:9c:cf:e6:08:2f:ab:04:8c:95:d2:d6:47:a2:
                    8e:fe:75
                Exponent: 65537 (0x10001)
        X509v3 extensions:
            X509v3 Subject Key Identifier: 
                36:01:BF:34:4D:50:5E:FA:28:18:58:6B:29:14:B1:FB:E3:07:AE:31
            X509v3 Authority Key Identifier: 
                keyid:93:83:48:92:23:B6:C3:DA:A7:15:85:08:41:75:30:67:97:A5:D4:9C

            X509v3 Basic Constraints: critical
                CA:TRUE, pathlen:0
            X509v3 Key Usage: critical
                Digital Signature, Certificate Sign, CRL Sign
    Signature Algorithm: sha256WithRSAEncryption
         a7:97:ba:f7:f2:b3:3c:9d:f4:b6:c1:46:38:6e:a8:54:b2:5f:
         73:2a:45:f3:9f:67:93:b8:ef:a4:74:55:5c:7d:63:ff:67:9e:
         6e:5d:a5:fa:69:4f:a2:25:44:8b:0d:56:14:90:0e:ed:f6:c5:
         ad:09:14:68:a8:be:26:4a:e3:34:25:07:54:3e:9e:b8:0a:66:
         9c:1e:da:29:e2:7b:ed:bc:a1:ce:13:98:ac:9b:62:5c:45:43:
         70:70:13:88:23:72:9a:27:8b:1d:bd:9c:37:22:e7:9c:28:50:
         26:65:f0:39:6d:fe:75:c7:64:6b:f0:fd:35:33:a0:e6:8a:a9:
         92:66:e3:70:a5:fc:e6:39:b5:35:c6:a9:dc:35:5a:e9:f8:97:
         74:39:f8:ea:83:b0:2b:79:97:e3:4b:05:c9:6f:2d:22:ef:c7:
         f9:8f:c5:b2:f2:c7:62:2f:9d:ea:4a:1c:ac:be:12:14:c8:bf:
         82:5c:6b:fa:8a:f5:51:e8:5c:fd:f9:57:cc:79:65:67:75:28:
         fc:9d:a9:85:8c:69:c7:03:60:e9:61:26:27:f2:72:1f:73:50:
         bb:07:52:b6:d0:7b:9f:f4:01:e5:7b:44:65:d7:6d:0e:03:67:
         f4:39:c1:84:ae:73:39:dc:4c:ea:4d:81:3e:54:12:6d:54:b0:
         60:e8:31:ec:f9:8a:6b:6e:15:62:97:30:2f:7a:aa:86:43:e8:
         28:43:c9:33:aa:7f:3a:e6:ec:6e:35:04:69:d8:e4:03:22:30:
         eb:6e:80:4b:25:28:7e:08:75:fe:df:bb:fe:2c:e5:b5:e9:15:
         6b:fe:96:43:d5:cf:8b:e2:f6:44:ff:1a:04:9c:21:46:80:66:
         1d:e9:46:3c:22:2d:cd:b9:04:43:8c:b6:8e:a6:69:58:cc:9a:
         21:8c:99:ae:da:1b:ab:56:d9:90:08:e4:e7:65:f5:92:15:a2:
         dd:d5:90:08:53:0f:68:e6:4e:6e:6b:ed:0f:9e:4d:ac:ec:95:
         73:bb:7d:ca:e8:ef:22:23:ac:8f:66:81:eb:0e:26:71:83:e1:
         00:79:ed:1c:ac:20:17:07:1b:60:2f:29:b7:90:3e:40:e6:dd:
         be:03:03:dd:f9:09:86:c2:4d:a1:02:35:41:b0:45:9b:ec:4b:
         a3:54:51:ef:9f:54:53:b1:8b:95:cc:3e:51:53:71:0a:1d:cd:
         be:c2:75:0d:af:c3:f7:ec:81:77:1c:a9:4d:26:ba:bf:c4:31:
         64:58:5e:31:9a:9e:ab:74:6b:04:ba:07:d6:10:37:59:bb:30:
         d2:d5:0b:f9:a0:a2:46:cc:10:29:0e:41:2a:ad:6a:ec:c6:97:
         e6:3c:24:18:63:3a:2b:89
-----BEGIN CERTIFICATE-----
MIIF6zCCA9OgAwIBAgICEAQwDQYJKoZIhvcNAQELBQAwgYUxCzAJBgNVBAYTAkNa
MRowGAYDVQQIDBFKaWhvbW9yYXZza3kga3JhajENMAsGA1UEBwwEQnJubzEjMCEG
A1UECgwaT3BlblN0YWNrIENvbW1vbiBMaWJyYXJpZXMxFDASBgNVBAsMC0VuZ2lu
ZWVyaW5nMRAwDgYDVQQDDAdSb290IENBMB4XDTE4MDgxNDE2MTYxMloXDTI4MDgx
MTE2MTYxMlowgYIxCzAJBgNVBAYTAkNaMRowGAYDVQQIDBFKaWhvbW9yYXZza3kg
a3JhajEjMCEGA1UECgwaT3BlblN0YWNrIENvbW1vbiBMaWJyYXJpZXMxFDASBgNV
BAsMC0VuZ2luZWVyaW5nMRwwGgYDVQQDDBNJbnRlcm1lZGlhdGUgQ0EgMDA0MIIC
IjANBgkqhkiG9w0BAQEFAAOCAg8AMIICCgKCAgEAsV83T7FrL5WCnJHsB/OMYSJ2
Jhsk2ViXe34ZsMR/WBeVxQ5FJwH8h41hCV+bhGBUHKdLYPTP1A1NKBLf4xt4ibLn
BK++fRFoQG0tiTznEvWEV/hPRjROgv+ngM1fLIFDug+DxkzOX58j/AZThdkHvG5g
3lD0Ogq3WQlWzYZmEFRfki1UO6GnJbHeNu+hTXYg72O6cgPDBDjapEIq4sI3LScm
PPT5b1qPbWuu3xa2lqmaRT7KWPxnI1oC1NuwtbEbHDPXlnobigNR6SsHaMsE0EiX
YX1VLXqVPdScxqR+xhsrl9ntGRZ2tsEEX1hqy7PUkmT0eJrXmyUoBLWLL7oBTtUU
FbII9DVwNkaD8VrvG56w4dT18/5pk5r6NAFIuc/hte9FbGyG8tKOxQs6VDuQFJET
jEaB6+1lxJs7jBPhSoGnFi94YWFCllfpK5OP1imTwyAmPG+/bbIc+YwEvZkq0mvQ
pl4JafiReaASD8Ce8BYC8gxY8yBj9g1bYe8Y0Yb7yuZKvw3G5cQMLkRrMobLd9LG
Q4KjqZ+A9v55XG0hwxleSGi3f44KrHGMUvxJd/TLEww/Q7w6CG9P6RBpmGT6lm1q
swCMsUBvS5mhKZFuPwebxErY82BdS4Zi5JB6oOrl7X0nKBtBIiLAuzEJ71YBlpzP
5ggvqwSMldLWR6KO/nUCAwEAAaNmMGQwHQYDVR0OBBYEFDYBvzRNUF76KBhYaykU
sfvjB64xMB8GA1UdIwQYMBaAFJODSJIjtsPapxWFCEF1MGeXpdScMBIGA1UdEwEB
/wQIMAYBAf8CAQAwDgYDVR0PAQH/BAQDAgGGMA0GCSqGSIb3DQEBCwUAA4ICAQCn
l7r38rM8nfS2wUY4bqhUsl9zKkXzn2eTuO+kdFVcfWP/Z55uXaX6aU+iJUSLDVYU
kA7t9sWtCRRoqL4mSuM0JQdUPp64CmacHtop4nvtvKHOE5ism2JcRUNwcBOII3Ka
J4sdvZw3IuecKFAmZfA5bf51x2Rr8P01M6DmiqmSZuNwpfzmObU1xqncNVrp+Jd0
Ofjqg7AreZfjSwXJby0i78f5j8Wy8sdiL53qShysvhIUyL+CXGv6ivVR6Fz9+VfM
eWVndSj8namFjGnHA2DpYSYn8nIfc1C7B1K20Huf9AHle0Rl120OA2f0OcGErnM5
3EzqTYE+VBJtVLBg6DHs+YprbhVilzAveqqGQ+goQ8kzqn865uxuNQRp2OQDIjDr
boBLJSh+CHX+37v+LOW16RVr/pZD1c+L4vZE/xoEnCFGgGYd6UY8Ii3NuQRDjLaO
pmlYzJohjJmu2hurVtmQCOTnZfWSFaLd1ZAIUw9o5k5ua+0Pnk2s7JVzu33K6O8i
I6yPZoHrDiZxg+EAee0crCAXBxtgLym3kD5A5t2+AwPd+QmGwk2hAjVBsEWb7Euj
VFHvn1RTsYuVzD5RU3EKHc2+wnUNr8P37IF3HKlNJrq/xDFkWF4xmp6rdGsEugfW
EDdZuzDS1Qv5oKJGzBApDkEqrWrsxpfmPCQYYzoriQ==
-----END CERTIFICATE-----
