Certificate:
    Data:
        Version: 3 (0x2)
        Serial Number: 4097 (0x1001)
    Signature Algorithm: sha256WithRSAEncryption
        Issuer: C=CZ, ST=Jihomoravsky kraj, O=OpenStack Common Libraries, OU=Engineering, CN=Intermediate CA 004
        Validity
            Not Before: Aug 14 16:16:15 2018 GMT
            Not After : Sep  4 16:16:15 2018 GMT
        Subject: C=CZ, ST=Jihomoravsky kraj, L=Brno, O=OpenStack Common Libraries, OU=Engineering, CN=Node 004002
        Subject Public Key Info:
            Public Key Algorithm: rsaEncryption
                Public-Key: (2048 bit)
                Modulus:
                    00:c5:e9:5a:db:02:b0:cd:0c:cf:63:f2:ac:43:25:
                    a3:3b:dd:58:97:e6:35:19:eb:ab:10:fd:b5:42:31:
                    a6:d2:d8:93:a0:1d:25:88:c4:bd:04:a4:f8:eb:1e:
                    1a:30:08:14:92:30:f3:e1:af:81:29:38:b2:74:be:
                    79:b0:22:fd:47:f0:3a:dc:bf:05:65:71:8f:5a:ba:
                    08:58:52:92:4c:93:01:04:78:58:1a:23:be:8a:9e:
                    55:ef:8b:d1:90:1a:ef:55:50:6e:29:73:05:2d:3f:
                    68:94:30:58:39:ef:3e:21:01:2b:b8:18:be:db:ef:
                    c8:09:e7:b2:a4:21:51:19:60:dc:a5:3b:98:75:76:
                    e4:f5:61:8f:7d:1e:f8:c7:cf:a9:53:ec:1e:95:ed:
                    e0:a0:5e:cf:e3:36:a2:1a:c5:e3:5f:c6:ce:1e:f2:
                    9f:2c:6c:06:91:79:64:05:3e:da:90:60:9a:0f:cc:
                    f7:ad:43:fc:68:7f:e9:d9:c3:69:38:bb:45:11:fa:
                    49:33:ff:dd:2e:b2:3f:23:7b:e2:0d:79:5a:0b:b4:
                    71:39:52:19:b5:cc:00:bb:b6:1c:2a:42:a3:e9:70:
                    ff:d7:60:80:a0:55:9c:d7:31:ad:73:78:64:3b:1b:
                    b4:08:3b:87:62:54:48:e9:31:c8:f5:8c:79:73:c7:
                    b2:b7
                Exponent: 65537 (0x10001)
        X509v3 extensions:
            X509v3 Basic Constraints: 
                CA:FALSE
            Netscape Cert Type: 
                SSL Client, S/MIME
            Netscape Comment: 
                OpenSSL Generated Client Certificate
            X509v3 Subject Key Identifier: 
                51:34:AD:35:A6:66:32:3D:30:D7:16:AF:86:E6:17:4A:66:18:86:B2
            X509v3 Authority Key Identifier: 
                keyid:36:01:BF:34:4D:50:5E:FA:28:18:58:6B:29:14:B1:FB:E3:07:AE:31

            X509v3 Key Usage: critical
                Digital Signature, Non Repudiation, Key Encipherment
            X509v3 Extended Key Usage: 
                TLS Web Client Authentication, E-mail Protection
    Signature Algorithm: sha256WithRSAEncryption
         62:f5:85:5a:09:01:85:ad:e1:84:76:a4:3f:e7:ea:29:0d:af:
         1a:bd:ab:d8:85:90:8f:fe:33:5b:3f:50:98:bc:a7:18:31:b0:
         03:ff:dc:6b:72:af:d5:c5:63:d2:0a:1b:c4:11:97:24:5a:bb:
         88:99:4a:75:4b:b6:48:b1:58:38:47:c7:22:de:e1:1e:77:c5:
         3b:09:d8:e0:79:eb:76:79:82:a3:de:a3:5d:3c:66:8c:c5:23:
         fc:60:26:dd:dd:b6:dd:52:05:97:f7:4a:8c:61:46:86:07:e2:
         41:cb:c4:d1:0b:0a:50:ba:9f:60:6c:80:37:9e:c1:b3:ac:15:
         09:ee:cb:7f:3b:ce:5f:33:70:8d:a1:70:69:89:3e:51:d9:f9:
         c0:62:a3:b5:2b:b7:f7:c4:8d:38:8e:99:1c:87:d5:ff:aa:75:
         fa:e3:10:eb:e9:00:78:19:50:20:2c:a8:3a:88:b9:e2:7c:11:
         ac:62:0c:d1:a2:ac:c0:8a:54:bb:d9:81:02:35:73:dc:4c:29:
         1c:3e:0f:f4:e7:dc:8c:ca:c8:42:92:65:99:ea:10:4b:78:a0:
         07:69:3c:44:4e:1d:bc:fa:a0:99:45:e1:25:93:87:18:9a:ac:
         12:14:b6:b6:a6:77:9e:fb:b7:99:f3:e6:c0:24:80:8c:7e:0a:
         53:2f:42:da:98:6b:d6:07:01:21:f9:9a:28:91:85:d6:cd:14:
         db:03:d7:c5:44:1a:d8:88:cf:c8:ad:a6:f5:ff:d2:9a:f6:39:
         2a:60:7b:7a:d0:34:15:b4:dc:06:9a:c1:08:42:59:cc:18:37:
         2a:6b:42:1a:56:24:af:d9:fd:ec:bf:a0:bb:9f:3b:8b:05:64:
         cd:03:8e:f4:7e:d0:71:53:12:5c:f9:6f:53:f8:e7:8b:3e:4f:
         4a:05:23:b3:62:79:13:06:f7:c3:57:88:b4:15:0f:29:f1:f8:
         98:2a:90:b1:1a:73:17:e4:02:78:8f:a8:16:0f:01:af:5f:5d:
         ac:86:ee:32:55:4c:ef:f0:03:db:18:c6:86:6a:01:ff:84:e0:
         90:2a:f8:4f:ff:d4:2e:a3:27:cb:d9:48:2c:a1:1f:f9:75:84:
         d3:d2:e8:0c:42:e9:34:9d:0f:82:5d:31:38:35:43:bb:30:f6:
         30:11:ee:f4:8d:b4:15:b5:db:9d:33:55:b9:50:9a:46:87:b7:
         f2:76:0e:fc:7b:12:3c:58:8b:42:e4:51:9e:bd:f1:22:39:9a:
         5f:1d:a6:24:d3:38:7e:53:f2:cc:0d:64:fb:ac:f4:44:54:1e:
         56:e9:63:fb:ff:e5:e1:ea:17:42:bd:19:e7:b6:77:0c:1f:95:
         fb:4b:25:5d:5e:b2:ca:cb
-----BEGIN CERTIFICATE-----
MIIFTzCCAzegAwIBAgICEAEwDQYJKoZIhvcNAQELBQAwgYIxCzAJBgNVBAYTAkNa
MRowGAYDVQQIDBFKaWhvbW9yYXZza3kga3JhajEjMCEGA1UECgwaT3BlblN0YWNr
IENvbW1vbiBMaWJyYXJpZXMxFDASBgNVBAsMC0VuZ2luZWVyaW5nMRwwGgYDVQQD
DBNJbnRlcm1lZGlhdGUgQ0EgMDA0MB4XDTE4MDgxNDE2MTYxNVoXDTE4MDkwNDE2
MTYxNVowgYkxCzAJBgNVBAYTAkNaMRowGAYDVQQIDBFKaWhvbW9yYXZza3kga3Jh
ajENMAsGA1UEBwwEQnJubzEjMCEGA1UECgwaT3BlblN0YWNrIENvbW1vbiBMaWJy
YXJpZXMxFDASBgNVBAsMC0VuZ2luZWVyaW5nMRQwEgYDVQQDDAtOb2RlIDAwNDAw
MjCCASIwDQYJKoZIhvcNAQEBBQADggEPADCCAQoCggEBAMXpWtsCsM0Mz2PyrEMl
ozvdWJfmNRnrqxD9tUIxptLYk6AdJYjEvQSk+OseGjAIFJIw8+GvgSk4snS+ebAi
/UfwOty/BWVxj1q6CFhSkkyTAQR4WBojvoqeVe+L0ZAa71VQbilzBS0/aJQwWDnv
PiEBK7gYvtvvyAnnsqQhURlg3KU7mHV25PVhj30e+MfPqVPsHpXt4KBez+M2ohrF
41/Gzh7ynyxsBpF5ZAU+2pBgmg/M961D/Gh/6dnDaTi7RRH6STP/3S6yPyN74g15
Wgu0cTlSGbXMALu2HCpCo+lw/9dggKBVnNcxrXN4ZDsbtAg7h2JUSOkxyPWMeXPH
srcCAwEAAaOBxTCBwjAJBgNVHRMEAjAAMBEGCWCGSAGG+EIBAQQEAwIFoDAzBglg
hkgBhvhCAQ0EJhYkT3BlblNTTCBHZW5lcmF0ZWQgQ2xpZW50IENlcnRpZmljYXRl
MB0GA1UdDgQWBBRRNK01pmYyPTDXFq+G5hdKZhiGsjAfBgNVHSMEGDAWgBQ2Ab80
TVBe+igYWGspFLH74weuMTAOBgNVHQ8BAf8EBAMCBeAwHQYDVR0lBBYwFAYIKwYB
BQUHAwIGCCsGAQUFBwMEMA0GCSqGSIb3DQEBCwUAA4ICAQBi9YVaCQGFreGEdqQ/
5+opDa8avavYhZCP/jNbP1CYvKcYMbAD/9xrcq/VxWPSChvEEZckWruImUp1S7ZI
sVg4R8ci3uEed8U7Cdjgeet2eYKj3qNdPGaMxSP8YCbd3bbdUgWX90qMYUaGB+JB
y8TRCwpQup9gbIA3nsGzrBUJ7st/O85fM3CNoXBpiT5R2fnAYqO1K7f3xI04jpkc
h9X/qnX64xDr6QB4GVAgLKg6iLnifBGsYgzRoqzAilS72YECNXPcTCkcPg/059yM
yshCkmWZ6hBLeKAHaTxETh28+qCZReElk4cYmqwSFLa2pnee+7eZ8+bAJICMfgpT
L0LamGvWBwEh+ZookYXWzRTbA9fFRBrYiM/Irab1/9Ka9jkqYHt60DQVtNwGmsEI
QlnMGDcqa0IaViSv2f3sv6C7nzuLBWTNA470ftBxUxJc+W9T+OeLPk9KBSOzYnkT
BvfDV4i0FQ8p8fiYKpCxGnMX5AJ4j6gWDwGvX12shu4yVUzv8APbGMaGagH/hOCQ
KvhP/9QuoyfL2UgsoR/5dYTT0ugMQuk0nQ+CXTE4NUO7MPYwEe70jbQVtdudM1W5
UJpGh7fydg78exI8WItC5FGevfEiOZpfHaYk0zh+U/LMDWT7rPREVB5W6WP7/+Xh
6hdCvRnntncMH5X7SyVdXrLKyw==
-----END CERTIFICATE-----
Certificate:
    Data:
        Version: 3 (0x2)
        Serial Number: 4100 (0x1004)
    Signature Algorithm: sha256WithRSAEncryption
        Issuer: C=CZ, ST=Jihomoravsky kraj, L=Brno, O=OpenStack Common Libraries, OU=Engineering, CN=Root CA
        Validity
            Not Before: Aug 14 16:16:12 2018 GMT
            Not After : Aug 11 16:16:12 2028 GMT
        Subject: C=CZ, ST=Jihomoravsky kraj, O=OpenStack Common Libraries, OU=Engineering, CN=Intermediate CA 004
        Subject Public Key Info:
            Public Key Algorithm: rsaEncryption
                Public-Key: (4096 bit)
                Modulus:
                    00:b1:5f:37:4f:b1:6b:2f:95:82:9c:91:ec:07:f3:
                    8c:61:22:76:26:1b:24:d9:58:97:7b:7e:19:b0:c4:
                    7f:58:17:95:c5:0e:45:27:01:fc:87:8d:61:09:5f:
                    9b:84:60:54:1c:a7:4b:60:f4:cf:d4:0d:4d:28:12:
                    df:e3:1b:78:89:b2:e7:04:af:be:7d:11:68:40:6d:
                    2d:89:3c:e7:12:f5:84:57:f8:4f:46:34:4e:82:ff:
                    a7:80:cd:5f:2c:81:43:ba:0f:83:c6:4c:ce:5f:9f:
                    23:fc:06:53:85:d9:07:bc:6e:60:de:50:f4:3a:0a:
                    b7:59:09:56:cd:86:66:10:54:5f:92:2d:54:3b:a1:
                    a7:25:b1:de:36:ef:a1:4d:76:20:ef:63:ba:72:03:
                    c3:04:38:da:a4:42:2a:e2:c2:37:2d:27:26:3c:f4:
                    f9:6f:5a:8f:6d:6b:ae:df:16:b6:96:a9:9a:45:3e:
                    ca:58:fc:67:23:5a:02:d4:db:b0:b5:b1:1b:1c:33:
                    d7:96:7a:1b:8a:03:51:e9:2b:07:68:cb:04:d0:48:
                    97:61:7d:55:2d:7a:95:3d:d4:9c:c6:a4:7e:c6:1b:
                    2b:97:d9:ed:19:16:76:b6:c1:04:5f:58:6a:cb:b3:
                    d4:92:64:f4:78:9a:d7:9b:25:28:04:b5:8b:2f:ba:
                    01:4e:d5:14:15:b2:08:f4:35:70:36:46:83:f1:5a:
                    ef:1b:9e:b0:e1:d4:f5:f3:fe:69:93:9a:fa:34:01:
                    48:b9:cf:e1:b5:ef:45:6c:6c:86:f2:d2:8e:c5:0b:
                    3a:54:3b:90:14:91:13:8c:46:81:eb:ed:65:c4:9b:
                    3b:8c:13:e1:4a:81:a7:16:2f:78:61:61:42:96:57:
                    e9:2b:93:8f:d6:29:93:c3:20:26:3c:6f:bf:6d:b2:
                    1c:f9:8c:04:bd:99:2a:d2:6b:d0:a6:5e:09:69:f8:
                    91:79:a0:12:0f:c0:9e:f0:16:02:f2:0c:58:f3:20:
                    63:f6:0d:5b:61:ef:18:d1:86:fb:ca:e6:4a:bf:0d:
                    c6:e5:c4:0c:2e:44:6b:32:86:cb:77:d2:c6:43:82:
                    a3:a9:9f:80:f6:fe:79:5c:6d:21:c3:19:5e:48:68:
                    b7:7f:8e:0a:ac:71:8c:52:fc:49:77:f4:cb:13:0c:
                    3f:43:bc:3a:08:6f:4f:e9:10:69:98:64:fa:96:6d:
                    6a:b3:00:8c:b1:40:6f:4b:99:a1:29:91:6e:3f:07:
                    9b:c4:4a:d8:f3:60:5d:4b:86:62:e4:90:7a:a0:ea:
                    e5:ed:7d:27:28:1b:41:22:22:c0:bb:31:09:ef:56:
                    01:96:9c:cf:e6:08:2f:ab:04:8c:95:d2:d6:47:a2:
                    8e:fe:75
                Exponent: 65537 (0x10001)
        X509v3 extensions:
            X509v3 Subject Key Identifier: 
                36:01:BF:34:4D:50:5E:FA:28:18:58:6B:29:14:B1:FB:E3:07:AE:31
            X509v3 Authority Key Identifier: 
                keyid:93:83:48:92:23:B6:C3:DA:A7:15:85:08:41:75:30:67:97:A5:D4:9C

            X509v3 Basic Constraints: critical
                CA:TRUE, pathlen:0
            X509v3 Key Usage: critical
                Digital Signature, Certificate Sign, CRL Sign
    Signature Algorithm: sha256WithRSAEncryption
         a7:97:ba:f7:f2:b3:3c:9d:f4:b6:c1:46:38:6e:a8:54:b2:5f:
         73:2a:45:f3:9f:67:93:b8:ef:a4:74:55:5c:7d:63:ff:67:9e:
         6e:5d:a5:fa:69:4f:a2:25:44:8b:0d:56:14:90:0e:ed:f6:c5:
         ad:09:14:68:a8:be:26:4a:e3:34:25:07:54:3e:9e:b8:0a:66:
         9c:1e:da:29:e2:7b:ed:bc:a1:ce:13:98:ac:9b:62:5c:45:43:
         70:70:13:88:23:72:9a:27:8b:1d:bd:9c:37:22:e7:9c:28:50:
         26:65:f0:39:6d:fe:75:c7:64:6b:f0:fd:35:33:a0:e6:8a:a9:
         92:66:e3:70:a5:fc:e6:39:b5:35:c6:a9:dc:35:5a:e9:f8:97:
         74:39:f8:ea:83:b0:2b:79:97:e3:4b:05:c9:6f:2d:22:ef:c7:
         f9:8f:c5:b2:f2:c7:62:2f:9d:ea:4a:1c:ac:be:12:14:c8:bf:
         82:5c:6b:fa:8a:f5:51:e8:5c:fd:f9:57:cc:79:65:67:75:28:
         fc:9d:a9:85:8c:69:c7:03:60:e9:61:26:27:f2:72:1f:73:50:
         bb:07:52:b6:d0:7b:9f:f4:01:e5:7b:44:65:d7:6d:0e:03:67:
         f4:39:c1:84:ae:73:39:dc:4c:ea:4d:81:3e:54:12:6d:54:b0:
         60:e8:31:ec:f9:8a:6b:6e:15:62:97:30:2f:7a:aa:86:43:e8:
         28:43:c9:33:aa:7f:3a:e6:ec:6e:35:04:69:d8:e4:03:22:30:
         eb:6e:80:4b:25:28:7e:08:75:fe:df:bb:fe:2c:e5:b5:e9:15:
         6b:fe:96:43:d5:cf:8b:e2:f6:44:ff:1a:04:9c:21:46:80:66:
         1d:e9:46:3c:22:2d:cd:b9:04:43:8c:b6:8e:a6:69:58:cc:9a:
         21:8c:99:ae:da:1b:ab:56:d9:90:08:e4:e7:65:f5:92:15:a2:
         dd:d5:90:08:53:0f:68:e6:4e:6e:6b:ed:0f:9e:4d:ac:ec:95:
         73:bb:7d:ca:e8:ef:22:23:ac:8f:66:81:eb:0e:26:71:83:e1:
         00:79:ed:1c:ac:20:17:07:1b:60:2f:29:b7:90:3e:40:e6:dd:
         be:03:03:dd:f9:09:86:c2:4d:a1:02:35:41:b0:45:9b:ec:4b:
         a3:54:51:ef:9f:54:53:b1:8b:95:cc:3e:51:53:71:0a:1d:cd:
         be:c2:75:0d:af:c3:f7:ec:81:77:1c:a9:4d:26:ba:bf:c4:31:
         64:58:5e:31:9a:9e:ab:74:6b:04:ba:07:d6:10:37:59:bb:30:
         d2:d5:0b:f9:a0:a2:46:cc:10:29:0e:41:2a:ad:6a:ec:c6:97:
         e6:3c:24:18:63:3a:2b:89
-----BEGIN CERTIFICATE-----
MIIF6zCCA9OgAwIBAgICEAQwDQYJKoZIhvcNAQELBQAwgYUxCzAJBgNVBAYTAkNa
MRowGAYDVQQIDBFKaWhvbW9yYXZza3kga3JhajENMAsGA1UEBwwEQnJubzEjMCEG
A1UECgwaT3BlblN0YWNrIENvbW1vbiBMaWJyYXJpZXMxFDASBgNVBAsMC0VuZ2lu
ZWVyaW5nMRAwDgYDVQQDDAdSb290IENBMB4XDTE4MDgxNDE2MTYxMloXDTI4MDgx
MTE2MTYxMlowgYIxCzAJBgNVBAYTAkNaMRowGAYDVQQIDBFKaWhvbW9yYXZza3kg
a3JhajEjMCEGA1UECgwaT3BlblN0YWNrIENvbW1vbiBMaWJyYXJpZXMxFDASBgNV
BAsMC0VuZ2luZWVyaW5nMRwwGgYDVQQDDBNJbnRlcm1lZGlhdGUgQ0EgMDA0MIIC
IjANBgkqhkiG9w0BAQEFAAOCAg8AMIICCgKCAgEAsV83T7FrL5WCnJHsB/OMYSJ2
Jhsk2ViXe34ZsMR/WBeVxQ5FJwH8h41hCV+bhGBUHKdLYPTP1A1NKBLf4xt4ibLn
BK++fRFoQG0tiTznEvWEV/hPRjROgv+ngM1fLIFDug+DxkzOX58j/AZThdkHvG5g
3lD0Ogq3WQlWzYZmEFRfki1UO6GnJbHeNu+hTXYg72O6cgPDBDjapEIq4sI3LScm
PPT5b1qPbWuu3xa2lqmaRT7KWPxnI1oC1NuwtbEbHDPXlnobigNR6SsHaMsE0EiX
YX1VLXqVPdScxqR+xhsrl9ntGRZ2tsEEX1hqy7PUkmT0eJrXmyUoBLWLL7oBTtUU
FbII9DVwNkaD8VrvG56w4dT18/5pk5r6NAFIuc/hte9FbGyG8tKOxQs6VDuQFJET
jEaB6+1lxJs7jBPhSoGnFi94YWFCllfpK5OP1imTwyAmPG+/bbIc+YwEvZkq0mvQ
pl4JafiReaASD8Ce8BYC8gxY8yBj9g1bYe8Y0Yb7yuZKvw3G5cQMLkRrMobLd9LG
Q4KjqZ+A9v55XG0hwxleSGi3f44KrHGMUvxJd/TLEww/Q7w6CG9P6RBpmGT6lm1q
swCMsUBvS5mhKZFuPwebxErY82BdS4Zi5JB6oOrl7X0nKBtBIiLAuzEJ71YBlpzP
5ggvqwSMldLWR6KO/nUCAwEAAaNmMGQwHQYDVR0OBBYEFDYBvzRNUF76KBhYaykU
sfvjB64xMB8GA1UdIwQYMBaAFJODSJIjtsPapxWFCEF1MGeXpdScMBIGA1UdEwEB
/wQIMAYBAf8CAQAwDgYDVR0PAQH/BAQDAgGGMA0GCSqGSIb3DQEBCwUAA4ICAQCn
l7r38rM8nfS2wUY4bqhUsl9zKkXzn2eTuO+kdFVcfWP/Z55uXaX6aU+iJUSLDVYU
kA7t9sWtCRRoqL4mSuM0JQdUPp64CmacHtop4nvtvKHOE5ism2JcRUNwcBOII3Ka
J4sdvZw3IuecKFAmZfA5bf51x2Rr8P01M6DmiqmSZuNwpfzmObU1xqncNVrp+Jd0
Ofjqg7AreZfjSwXJby0i78f5j8Wy8sdiL53qShysvhIUyL+CXGv6ivVR6Fz9+VfM
eWVndSj8namFjGnHA2DpYSYn8nIfc1C7B1K20Huf9AHle0Rl120OA2f0OcGErnM5
3EzqTYE+VBJtVLBg6DHs+YprbhVilzAveqqGQ+goQ8kzqn865uxuNQRp2OQDIjDr
boBLJSh+CHX+37v+LOW16RVr/pZD1c+L4vZE/xoEnCFGgGYd6UY8Ii3NuQRDjLaO
pmlYzJohjJmu2hurVtmQCOTnZfWSFaLd1ZAIUw9o5k5ua+0Pnk2s7JVzu33K6O8i
I6yPZoHrDiZxg+EAee0crCAXBxtgLym3kD5A5t2+AwPd+QmGwk2hAjVBsEWb7Euj
VFHvn1RTsYuVzD5RU3EKHc2+wnUNr8P37IF3HKlNJrq/xDFkWF4xmp6rdGsEugfW
EDdZuzDS1Qv5oKJGzBApDkEqrWrsxpfmPCQYYzoriQ==
-----END CERTIFICATE-----
