Certificate:
    Data:
        Version: 3 (0x2)
        Serial Number: 4100 (0x1004)
    Signature Algorithm: sha256WithRSAEncryption
        Issuer: C=CZ, ST=Jihomoravsky kraj, O=OpenStack Common Libraries, OU=Engineering, CN=Intermediate CA 004
        Validity
            Not Before: Aug 10 16:28:34 2018 GMT
            Not After : Aug 31 16:28:34 2018 GMT
        Subject: C=CZ, ST=Jihomoravsky kraj, L=Brno, O=OpenStack Common Libraries, OU=Engineering, CN=Node 004005
        Subject Public Key Info:
            Public Key Algorithm: rsaEncryption
                Public-Key: (2048 bit)
                Modulus:
                    00:df:0e:a0:b8:4b:de:67:74:f4:5f:f9:db:17:d0:
                    82:61:42:b7:55:6a:0a:2b:06:b9:85:09:1c:d9:dd:
                    aa:49:04:2b:67:3d:51:0c:db:19:eb:6c:ff:e6:0b:
                    c7:e5:30:35:fd:a7:11:76:a3:4c:f8:46:f8:6b:31:
                    33:bd:eb:7f:79:c0:7b:a5:64:07:13:6b:3d:d2:cd:
                    f1:2b:13:1e:04:b8:2d:c3:ce:fa:0e:67:30:1c:42:
                    34:55:c6:95:16:13:30:1b:c9:d9:f5:6a:f8:7c:19:
                    0c:38:f7:ca:80:f6:f0:06:98:a2:ce:40:3a:ca:6c:
                    62:62:4c:7f:aa:79:5d:a9:bd:98:11:8f:64:27:c4:
                    d0:31:8d:a1:f3:67:ca:db:e9:1d:96:da:4b:81:56:
                    10:6a:d5:37:ad:f0:f6:8f:5a:c7:3e:20:31:57:1e:
                    56:89:79:a8:9c:78:33:7c:3c:5a:c2:a5:45:7d:35:
                    59:79:5c:4c:fe:bc:93:8d:8b:2a:b5:07:b3:b9:c4:
                    20:74:5e:4b:3f:77:9a:c3:8c:fa:b2:82:c0:97:77:
                    84:7e:c3:d9:da:64:96:af:50:10:13:38:93:cb:d1:
                    47:65:6a:0d:b7:b5:9b:92:93:db:7c:89:dd:f6:31:
                    e8:6a:38:23:8f:d5:e5:ff:95:8a:dc:28:3d:f5:7a:
                    ba:3f
                Exponent: 65537 (0x10001)
        X509v3 extensions:
            X509v3 Basic Constraints: 
                CA:FALSE
            Netscape Cert Type: 
                SSL Client, S/MIME
            Netscape Comment: 
                OpenSSL Generated Client Certificate
            X509v3 Subject Key Identifier: 
                22:EE:56:EA:6E:D7:87:17:A8:0D:85:D2:C6:B2:ED:6A:C1:AA:35:F2
            X509v3 Authority Key Identifier: 
                keyid:98:04:B2:A9:25:AE:34:23:10:BA:50:75:EE:E4:A0:0C:2B:41:6E:AE

            X509v3 Key Usage: critical
                Digital Signature, Non Repudiation, Key Encipherment
            X509v3 Extended Key Usage: 
                TLS Web Client Authentication, E-mail Protection
    Signature Algorithm: sha256WithRSAEncryption
         6a:66:21:16:82:80:ac:19:a3:0d:0c:d3:11:ec:05:f7:b1:5b:
         5e:d2:e2:6d:46:b1:fa:b1:ce:35:11:01:41:5e:1b:19:54:3c:
         70:17:23:9b:a9:3c:5b:7a:21:7a:81:4f:30:19:3b:fd:3c:1d:
         80:19:bd:5c:a5:84:92:d2:67:98:c5:17:fc:56:23:22:c9:44:
         c5:4a:39:ca:55:c1:7c:27:6f:fb:69:94:79:d4:a7:b8:59:a0:
         d8:c5:9a:36:4d:7b:93:99:57:e3:52:fe:96:57:28:25:2f:e1:
         d9:bb:c1:91:5f:46:a9:81:08:c6:33:20:80:c3:c7:9f:30:1a:
         05:3b:c5:60:82:fe:f7:45:65:9c:6b:db:43:fd:fe:f7:51:1b:
         6e:c7:d0:03:b7:5b:ac:ce:66:d8:37:76:31:0a:8d:21:05:83:
         41:33:32:6a:a9:be:43:ee:5f:d5:c9:f6:45:84:2e:b9:9d:08:
         5e:dc:3a:3e:45:14:d0:53:0d:b8:89:58:8d:f8:3c:c4:5e:82:
         f6:d3:b4:d0:e3:2a:6d:94:47:99:b2:d5:ca:11:89:73:8f:cd:
         91:5c:77:bd:58:68:32:10:ce:e2:75:36:42:e6:90:11:a3:87:
         64:b5:cf:8f:d4:cb:bf:bd:f6:b5:eb:5c:b8:ed:62:40:ee:01:
         58:6d:10:72
-----BEGIN CERTIFICATE-----
MIIETzCCAzegAwIBAgICEAQwDQYJKoZIhvcNAQELBQAwgYIxCzAJBgNVBAYTAkNa
MRowGAYDVQQIDBFKaWhvbW9yYXZza3kga3JhajEjMCEGA1UECgwaT3BlblN0YWNr
IENvbW1vbiBMaWJyYXJpZXMxFDASBgNVBAsMC0VuZ2luZWVyaW5nMRwwGgYDVQQD
DBNJbnRlcm1lZGlhdGUgQ0EgMDA0MB4XDTE4MDgxMDE2MjgzNFoXDTE4MDgzMTE2
MjgzNFowgYkxCzAJBgNVBAYTAkNaMRowGAYDVQQIDBFKaWhvbW9yYXZza3kga3Jh
ajENMAsGA1UEBwwEQnJubzEjMCEGA1UECgwaT3BlblN0YWNrIENvbW1vbiBMaWJy
YXJpZXMxFDASBgNVBAsMC0VuZ2luZWVyaW5nMRQwEgYDVQQDDAtOb2RlIDAwNDAw
NTCCASIwDQYJKoZIhvcNAQEBBQADggEPADCCAQoCggEBAN8OoLhL3md09F/52xfQ
gmFCt1VqCisGuYUJHNndqkkEK2c9UQzbGets/+YLx+UwNf2nEXajTPhG+GsxM73r
f3nAe6VkBxNrPdLN8SsTHgS4LcPO+g5nMBxCNFXGlRYTMBvJ2fVq+HwZDDj3yoD2
8AaYos5AOspsYmJMf6p5Xam9mBGPZCfE0DGNofNnytvpHZbaS4FWEGrVN63w9o9a
xz4gMVceVol5qJx4M3w8WsKlRX01WXlcTP68k42LKrUHs7nEIHReSz93msOM+rKC
wJd3hH7D2dpklq9QEBM4k8vRR2VqDbe1m5KT23yJ3fYx6Go4I4/V5f+VitwoPfV6
uj8CAwEAAaOBxTCBwjAJBgNVHRMEAjAAMBEGCWCGSAGG+EIBAQQEAwIFoDAzBglg
hkgBhvhCAQ0EJhYkT3BlblNTTCBHZW5lcmF0ZWQgQ2xpZW50IENlcnRpZmljYXRl
MB0GA1UdDgQWBBQi7lbqbteHF6gNhdLGsu1qwao18jAfBgNVHSMEGDAWgBSYBLKp
Ja40IxC6UHXu5KAMK0FurjAOBgNVHQ8BAf8EBAMCBeAwHQYDVR0lBBYwFAYIKwYB
BQUHAwIGCCsGAQUFBwMEMA0GCSqGSIb3DQEBCwUAA4IBAQBqZiEWgoCsGaMNDNMR
7AX3sVte0uJtRrH6sc41EQFBXhsZVDxwFyObqTxbeiF6gU8wGTv9PB2AGb1cpYSS
0meYxRf8ViMiyUTFSjnKVcF8J2/7aZR51Ke4WaDYxZo2TXuTmVfjUv6WVyglL+HZ
u8GRX0apgQjGMyCAw8efMBoFO8Vggv73RWWca9tD/f73URtux9ADt1uszmbYN3Yx
Co0hBYNBMzJqqb5D7l/VyfZFhC65nQhe3Do+RRTQUw24iViN+DzEXoL207TQ4ypt
lEeZstXKEYlzj82RXHe9WGgyEM7idTZC5pARo4dktc+P1Mu/vfa161y47WJA7gFY
bRBy
-----END CERTIFICATE-----
