Certificate:
    Data:
        Version: 3 (0x2)
        Serial Number: 4098 (0x1002)
    Signature Algorithm: sha256WithRSAEncryption
        Issuer: C=CZ, ST=Jihomoravsky kraj, O=OpenStack Common Libraries, OU=Engineering, CN=Intermediate CA 004
        Validity
            Not Before: Aug 14 16:16:15 2018 GMT
            Not After : Sep  4 16:16:15 2018 GMT
        Subject: C=CZ, ST=Jihomoravsky kraj, L=Brno, O=OpenStack Common Libraries, OU=Engineering, CN=Node 004003
        Subject Public Key Info:
            Public Key Algorithm: rsaEncryption
                Public-Key: (2048 bit)
                Modulus:
                    00:9d:fd:2f:6f:ce:72:46:78:13:a0:2f:f0:47:ea:
                    1b:c7:f4:c3:8a:14:8f:e8:54:18:ad:bc:c0:62:88:
                    1b:d5:59:eb:53:9b:f5:12:c7:f5:59:d3:fb:db:32:
                    46:6c:17:26:a0:fb:2f:7a:a6:43:8c:95:58:c7:b6:
                    6a:67:40:e3:db:f7:68:cd:20:15:a2:6e:f2:98:7b:
                    a0:fc:7c:4d:4b:22:34:dc:f0:da:c6:78:1a:90:d9:
                    56:06:33:f0:bd:3f:a0:e5:90:5f:af:e2:45:8d:cf:
                    12:de:87:f3:7e:f4:50:f2:ba:1c:9e:cf:de:ac:72:
                    0b:50:83:de:d4:42:56:70:e5:d7:84:13:0f:df:26:
                    d4:dc:5a:db:05:ec:86:2e:d1:55:7c:eb:7f:8d:ae:
                    ec:a2:10:40:d6:39:f3:15:d3:58:00:80:40:cd:37:
                    c0:78:c4:d1:a9:8e:98:25:52:ba:52:2b:56:1c:11:
                    45:a8:57:a1:8d:9a:69:80:79:c0:80:eb:14:51:87:
                    29:2a:11:f4:4e:21:e4:b9:df:3a:91:b9:75:b8:e8:
                    bd:0b:61:22:c6:a2:96:b4:6a:76:89:86:e7:d1:5e:
                    e0:b7:bb:39:d0:04:d3:73:99:0a:4a:a1:07:98:e1:
                    84:33:83:56:e7:7b:b2:68:0d:d0:16:f6:a0:94:81:
                    b5:d1
                Exponent: 65537 (0x10001)
        X509v3 extensions:
            X509v3 Basic Constraints: 
                CA:FALSE
            Netscape Cert Type: 
                SSL Client, S/MIME
            Netscape Comment: 
                OpenSSL Generated Client Certificate
            X509v3 Subject Key Identifier: 
                E8:6F:29:66:4D:89:6D:7B:BE:A9:85:4B:CC:56:46:BC:A8:73:62:8D
            X509v3 Authority Key Identifier: 
                keyid:36:01:BF:34:4D:50:5E:FA:28:18:58:6B:29:14:B1:FB:E3:07:AE:31

            X509v3 Key Usage: critical
                Digital Signature, Non Repudiation, Key Encipherment
            X509v3 Extended Key Usage: 
                TLS Web Client Authentication, E-mail Protection
    Signature Algorithm: sha256WithRSAEncryption
         89:50:1d:5e:13:61:57:f4:6d:99:dc:8e:85:46:7f:a6:42:f2:
         aa:a4:19:71:e4:ce:0b:51:92:6e:b3:1b:a3:4e:d0:8e:b6:96:
         42:f0:2e:20:47:65:ce:3e:b4:bd:05:00:6f:9d:88:c6:78:c1:
         66:6c:81:6b:0f:82:a9:e7:15:3a:e0:81:ac:03:88:32:2e:b1:
         0f:6d:bb:b4:6a:40:eb:fe:c7:42:75:7b:ec:a2:bc:c4:80:cd:
         63:79:bc:f2:fb:a8:bd:c3:8a:0a:75:21:60:22:36:68:8b:6d:
         67:79:47:c7:41:df:c4:e3:13:96:19:cb:5a:00:36:75:87:f9:
         29:09:41:6f:0f:cf:aa:77:bc:90:47:c5:6e:8e:ab:bc:4c:02:
         0c:de:cc:86:21:49:80:a9:65:67:43:6c:2f:31:c6:89:81:53:
         a9:d8:15:92:4b:13:7c:bd:f9:aa:91:b2:71:d4:89:ec:d8:01:
         17:c0:00:35:0a:05:92:95:bf:d8:3a:a0:ac:a7:f3:36:b8:fc:
         79:bc:63:db:1a:c2:26:66:93:d4:e2:dc:b1:8d:e2:ba:d0:0f:
         98:a1:df:2a:06:94:52:31:76:92:0c:88:32:88:06:74:bc:5f:
         02:f0:36:08:ff:f9:f5:5f:27:1a:32:95:9d:31:b0:dc:3a:6d:
         ea:3f:ce:4a:dc:8a:78:b7:6f:cb:ce:1d:d6:19:7d:a0:f1:76:
         94:0a:ef:76:1a:6d:63:85:2c:40:70:8a:50:78:b7:4a:20:46:
         63:9c:b4:62:11:cd:5b:b2:e1:0d:ed:6a:3b:49:c7:3c:c2:50:
         8c:6f:32:f0:7d:f1:70:2f:d5:4b:2f:d0:17:d9:41:b8:c5:1e:
         c5:72:93:3e:d3:19:05:f6:28:bc:01:0a:d0:1e:d8:13:90:3e:
         53:bd:1a:8b:64:be:cb:02:ac:3b:3e:1d:9c:d6:9b:52:9a:f1:
         9d:a8:ec:47:3f:60:0d:47:49:bf:de:87:6b:f2:62:4f:ce:30:
         a3:8d:dc:e0:41:49:2d:d9:67:cb:f8:dc:e6:07:68:af:d6:51:
         6f:2a:4b:15:f3:64:6f:c8:42:64:65:83:66:df:5b:0b:ca:bc:
         d9:d4:46:3a:ae:b6:4d:d1:f4:e2:b2:bc:f4:17:2a:9d:54:3f:
         68:03:72:31:39:6c:a2:76:24:3e:d9:9f:97:a0:eb:7b:16:4d:
         8b:80:2d:9a:63:87:41:e0:0d:6c:bc:ae:ea:c0:01:75:39:cb:
         03:64:f2:9c:66:2b:9a:68:a8:f9:09:a8:07:03:30:8a:c6:e1:
         92:28:21:01:dc:e1:16:1e:14:72:03:b7:18:78:23:0c:98:90:
         89:6c:2e:a3:9a:98:e7:e7
-----BEGIN CERTIFICATE-----
MIIFTzCCAzegAwIBAgICEAIwDQYJKoZIhvcNAQELBQAwgYIxCzAJBgNVBAYTAkNa
MRowGAYDVQQIDBFKaWhvbW9yYXZza3kga3JhajEjMCEGA1UECgwaT3BlblN0YWNr
IENvbW1vbiBMaWJyYXJpZXMxFDASBgNVBAsMC0VuZ2luZWVyaW5nMRwwGgYDVQQD
DBNJbnRlcm1lZGlhdGUgQ0EgMDA0MB4XDTE4MDgxNDE2MTYxNVoXDTE4MDkwNDE2
MTYxNVowgYkxCzAJBgNVBAYTAkNaMRowGAYDVQQIDBFKaWhvbW9yYXZza3kga3Jh
ajENMAsGA1UEBwwEQnJubzEjMCEGA1UECgwaT3BlblN0YWNrIENvbW1vbiBMaWJy
YXJpZXMxFDASBgNVBAsMC0VuZ2luZWVyaW5nMRQwEgYDVQQDDAtOb2RlIDAwNDAw
MzCCASIwDQYJKoZIhvcNAQEBBQADggEPADCCAQoCggEBAJ39L2/OckZ4E6Av8Efq
G8f0w4oUj+hUGK28wGKIG9VZ61Ob9RLH9VnT+9syRmwXJqD7L3qmQ4yVWMe2amdA
49v3aM0gFaJu8ph7oPx8TUsiNNzw2sZ4GpDZVgYz8L0/oOWQX6/iRY3PEt6H8370
UPK6HJ7P3qxyC1CD3tRCVnDl14QTD98m1Nxa2wXshi7RVXzrf42u7KIQQNY58xXT
WACAQM03wHjE0amOmCVSulIrVhwRRahXoY2aaYB5wIDrFFGHKSoR9E4h5LnfOpG5
dbjovQthIsailrRqdomG59Fe4Le7OdAE03OZCkqhB5jhhDODVud7smgN0Bb2oJSB
tdECAwEAAaOBxTCBwjAJBgNVHRMEAjAAMBEGCWCGSAGG+EIBAQQEAwIFoDAzBglg
hkgBhvhCAQ0EJhYkT3BlblNTTCBHZW5lcmF0ZWQgQ2xpZW50IENlcnRpZmljYXRl
MB0GA1UdDgQWBBTobylmTYlte76phUvMVka8qHNijTAfBgNVHSMEGDAWgBQ2Ab80
TVBe+igYWGspFLH74weuMTAOBgNVHQ8BAf8EBAMCBeAwHQYDVR0lBBYwFAYIKwYB
BQUHAwIGCCsGAQUFBwMEMA0GCSqGSIb3DQEBCwUAA4ICAQCJUB1eE2FX9G2Z3I6F
Rn+mQvKqpBlx5M4LUZJusxujTtCOtpZC8C4gR2XOPrS9BQBvnYjGeMFmbIFrD4Kp
5xU64IGsA4gyLrEPbbu0akDr/sdCdXvsorzEgM1jebzy+6i9w4oKdSFgIjZoi21n
eUfHQd/E4xOWGctaADZ1h/kpCUFvD8+qd7yQR8Vujqu8TAIM3syGIUmAqWVnQ2wv
McaJgVOp2BWSSxN8vfmqkbJx1Ins2AEXwAA1CgWSlb/YOqCsp/M2uPx5vGPbGsIm
ZpPU4tyxjeK60A+Yod8qBpRSMXaSDIgyiAZ0vF8C8DYI//n1XycaMpWdMbDcOm3q
P85K3Ip4t2/Lzh3WGX2g8XaUCu92Gm1jhSxAcIpQeLdKIEZjnLRiEc1bsuEN7Wo7
Scc8wlCMbzLwffFwL9VLL9AX2UG4xR7FcpM+0xkF9ii8AQrQHtgTkD5TvRqLZL7L
Aqw7Ph2c1ptSmvGdqOxHP2ANR0m/3odr8mJPzjCjjdzgQUkt2WfL+NzmB2iv1lFv
KksV82RvyEJkZYNm31sLyrzZ1EY6rrZN0fTisrz0FyqdVD9oA3IxOWyidiQ+2Z+X
oOt7Fk2LgC2aY4dB4A1svK7qwAF1OcsDZPKcZiuaaKj5CagHAzCKxuGSKCEB3OEW
HhRyA7cYeCMMmJCJbC6jmpjn5w==
-----END CERTIFICATE-----
Certificate:
    Data:
        Version: 3 (0x2)
        Serial Number: 4100 (0x1004)
    Signature Algorithm: sha256WithRSAEncryption
        Issuer: C=CZ, ST=Jihomoravsky kraj, L=Brno, O=OpenStack Common Libraries, OU=Engineering, CN=Root CA
        Validity
            Not Before: Aug 14 16:16:12 2018 GMT
            Not After : Aug 11 16:16:12 2028 GMT
        Subject: C=CZ, ST=Jihomoravsky kraj, O=OpenStack Common Libraries, OU=Engineering, CN=Intermediate CA 004
        Subject Public Key Info:
            Public Key Algorithm: rsaEncryption
                Public-Key: (4096 bit)
                Modulus:
                    00:b1:5f:37:4f:b1:6b:2f:95:82:9c:91:ec:07:f3:
                    8c:61:22:76:26:1b:24:d9:58:97:7b:7e:19:b0:c4:
                    7f:58:17:95:c5:0e:45:27:01:fc:87:8d:61:09:5f:
                    9b:84:60:54:1c:a7:4b:60:f4:cf:d4:0d:4d:28:12:
                    df:e3:1b:78:89:b2:e7:04:af:be:7d:11:68:40:6d:
                    2d:89:3c:e7:12:f5:84:57:f8:4f:46:34:4e:82:ff:
                    a7:80:cd:5f:2c:81:43:ba:0f:83:c6:4c:ce:5f:9f:
                    23:fc:06:53:85:d9:07:bc:6e:60:de:50:f4:3a:0a:
                    b7:59:09:56:cd:86:66:10:54:5f:92:2d:54:3b:a1:
                    a7:25:b1:de:36:ef:a1:4d:76:20:ef:63:ba:72:03:
                    c3:04:38:da:a4:42:2a:e2:c2:37:2d:27:26:3c:f4:
                    f9:6f:5a:8f:6d:6b:ae:df:16:b6:96:a9:9a:45:3e:
                    ca:58:fc:67:23:5a:02:d4:db:b0:b5:b1:1b:1c:33:
                    d7:96:7a:1b:8a:03:51:e9:2b:07:68:cb:04:d0:48:
                    97:61:7d:55:2d:7a:95:3d:d4:9c:c6:a4:7e:c6:1b:
                    2b:97:d9:ed:19:16:76:b6:c1:04:5f:58:6a:cb:b3:
                    d4:92:64:f4:78:9a:d7:9b:25:28:04:b5:8b:2f:ba:
                    01:4e:d5:14:15:b2:08:f4:35:70:36:46:83:f1:5a:
                    ef:1b:9e:b0:e1:d4:f5:f3:fe:69:93:9a:fa:34:01:
                    48:b9:cf:e1:b5:ef:45:6c:6c:86:f2:d2:8e:c5:0b:
                    3a:54:3b:90:14:91:13:8c:46:81:eb:ed:65:c4:9b:
                    3b:8c:13:e1:4a:81:a7:16:2f:78:61:61:42:96:57:
                    e9:2b:93:8f:d6:29:93:c3:20:26:3c:6f:bf:6d:b2:
                    1c:f9:8c:04:bd:99:2a:d2:6b:d0:a6:5e:09:69:f8:
                    91:79:a0:12:0f:c0:9e:f0:16:02:f2:0c:58:f3:20:
                    63:f6:0d:5b:61:ef:18:d1:86:fb:ca:e6:4a:bf:0d:
                    c6:e5:c4:0c:2e:44:6b:32:86:cb:77:d2:c6:43:82:
                    a3:a9:9f:80:f6:fe:79:5c:6d:21:c3:19:5e:48:68:
                    b7:7f:8e:0a:ac:71:8c:52:fc:49:77:f4:cb:13:0c:
                    3f:43:bc:3a:08:6f:4f:e9:10:69:98:64:fa:96:6d:
                    6a:b3:00:8c:b1:40:6f:4b:99:a1:29:91:6e:3f:07:
                    9b:c4:4a:d8:f3:60:5d:4b:86:62:e4:90:7a:a0:ea:
                    e5:ed:7d:27:28:1b:41:22:22:c0:bb:31:09:ef:56:
                    01:96:9c:cf:e6:08:2f:ab:04:8c:95:d2:d6:47:a2:
                    8e:fe:75
                Exponent: 65537 (0x10001)
        X509v3 extensions:
            X509v3 Subject Key Identifier: 
                36:01:BF:34:4D:50:5E:FA:28:18:58:6B:29:14:B1:FB:E3:07:AE:31
            X509v3 Authority Key Identifier: 
                keyid:93:83:48:92:23:B6:C3:DA:A7:15:85:08:41:75:30:67:97:A5:D4:9C

            X509v3 Basic Constraints: critical
                CA:TRUE, pathlen:0
            X509v3 Key Usage: critical
                Digital Signature, Certificate Sign, CRL Sign
    Signature Algorithm: sha256WithRSAEncryption
         a7:97:ba:f7:f2:b3:3c:9d:f4:b6:c1:46:38:6e:a8:54:b2:5f:
         73:2a:45:f3:9f:67:93:b8:ef:a4:74:55:5c:7d:63:ff:67:9e:
         6e:5d:a5:fa:69:4f:a2:25:44:8b:0d:56:14:90:0e:ed:f6:c5:
         ad:09:14:68:a8:be:26:4a:e3:34:25:07:54:3e:9e:b8:0a:66:
         9c:1e:da:29:e2:7b:ed:bc:a1:ce:13:98:ac:9b:62:5c:45:43:
         70:70:13:88:23:72:9a:27:8b:1d:bd:9c:37:22:e7:9c:28:50:
         26:65:f0:39:6d:fe:75:c7:64:6b:f0:fd:35:33:a0:e6:8a:a9:
         92:66:e3:70:a5:fc:e6:39:b5:35:c6:a9:dc:35:5a:e9:f8:97:
         74:39:f8:ea:83:b0:2b:79:97:e3:4b:05:c9:6f:2d:22:ef:c7:
         f9:8f:c5:b2:f2:c7:62:2f:9d:ea:4a:1c:ac:be:12:14:c8:bf:
         82:5c:6b:fa:8a:f5:51:e8:5c:fd:f9:57:cc:79:65:67:75:28:
         fc:9d:a9:85:8c:69:c7:03:60:e9:61:26:27:f2:72:1f:73:50:
         bb:07:52:b6:d0:7b:9f:f4:01:e5:7b:44:65:d7:6d:0e:03:67:
         f4:39:c1:84:ae:73:39:dc:4c:ea:4d:81:3e:54:12:6d:54:b0:
         60:e8:31:ec:f9:8a:6b:6e:15:62:97:30:2f:7a:aa:86:43:e8:
         28:43:c9:33:aa:7f:3a:e6:ec:6e:35:04:69:d8:e4:03:22:30:
         eb:6e:80:4b:25:28:7e:08:75:fe:df:bb:fe:2c:e5:b5:e9:15:
         6b:fe:96:43:d5:cf:8b:e2:f6:44:ff:1a:04:9c:21:46:80:66:
         1d:e9:46:3c:22:2d:cd:b9:04:43:8c:b6:8e:a6:69:58:cc:9a:
         21:8c:99:ae:da:1b:ab:56:d9:90:08:e4:e7:65:f5:92:15:a2:
         dd:d5:90:08:53:0f:68:e6:4e:6e:6b:ed:0f:9e:4d:ac:ec:95:
         73:bb:7d:ca:e8:ef:22:23:ac:8f:66:81:eb:0e:26:71:83:e1:
         00:79:ed:1c:ac:20:17:07:1b:60:2f:29:b7:90:3e:40:e6:dd:
         be:03:03:dd:f9:09:86:c2:4d:a1:02:35:41:b0:45:9b:ec:4b:
         a3:54:51:ef:9f:54:53:b1:8b:95:cc:3e:51:53:71:0a:1d:cd:
         be:c2:75:0d:af:c3:f7:ec:81:77:1c:a9:4d:26:ba:bf:c4:31:
         64:58:5e:31:9a:9e:ab:74:6b:04:ba:07:d6:10:37:59:bb:30:
         d2:d5:0b:f9:a0:a2:46:cc:10:29:0e:41:2a:ad:6a:ec:c6:97:
         e6:3c:24:18:63:3a:2b:89
-----BEGIN CERTIFICATE-----
MIIF6zCCA9OgAwIBAgICEAQwDQYJKoZIhvcNAQELBQAwgYUxCzAJBgNVBAYTAkNa
MRowGAYDVQQIDBFKaWhvbW9yYXZza3kga3JhajENMAsGA1UEBwwEQnJubzEjMCEG
A1UECgwaT3BlblN0YWNrIENvbW1vbiBMaWJyYXJpZXMxFDASBgNVBAsMC0VuZ2lu
ZWVyaW5nMRAwDgYDVQQDDAdSb290IENBMB4XDTE4MDgxNDE2MTYxMloXDTI4MDgx
MTE2MTYxMlowgYIxCzAJBgNVBAYTAkNaMRowGAYDVQQIDBFKaWhvbW9yYXZza3kg
a3JhajEjMCEGA1UECgwaT3BlblN0YWNrIENvbW1vbiBMaWJyYXJpZXMxFDASBgNV
BAsMC0VuZ2luZWVyaW5nMRwwGgYDVQQDDBNJbnRlcm1lZGlhdGUgQ0EgMDA0MIIC
IjANBgkqhkiG9w0BAQEFAAOCAg8AMIICCgKCAgEAsV83T7FrL5WCnJHsB/OMYSJ2
Jhsk2ViXe34ZsMR/WBeVxQ5FJwH8h41hCV+bhGBUHKdLYPTP1A1NKBLf4xt4ibLn
BK++fRFoQG0tiTznEvWEV/hPRjROgv+ngM1fLIFDug+DxkzOX58j/AZThdkHvG5g
3lD0Ogq3WQlWzYZmEFRfki1UO6GnJbHeNu+hTXYg72O6cgPDBDjapEIq4sI3LScm
PPT5b1qPbWuu3xa2lqmaRT7KWPxnI1oC1NuwtbEbHDPXlnobigNR6SsHaMsE0EiX
YX1VLXqVPdScxqR+xhsrl9ntGRZ2tsEEX1hqy7PUkmT0eJrXmyUoBLWLL7oBTtUU
FbII9DVwNkaD8VrvG56w4dT18/5pk5r6NAFIuc/hte9FbGyG8tKOxQs6VDuQFJET
jEaB6+1lxJs7jBPhSoGnFi94YWFCllfpK5OP1imTwyAmPG+/bbIc+YwEvZkq0mvQ
pl4JafiReaASD8Ce8BYC8gxY8yBj9g1bYe8Y0Yb7yuZKvw3G5cQMLkRrMobLd9LG
Q4KjqZ+A9v55XG0hwxleSGi3f44KrHGMUvxJd/TLEww/Q7w6CG9P6RBpmGT6lm1q
swCMsUBvS5mhKZFuPwebxErY82BdS4Zi5JB6oOrl7X0nKBtBIiLAuzEJ71YBlpzP
5ggvqwSMldLWR6KO/nUCAwEAAaNmMGQwHQYDVR0OBBYEFDYBvzRNUF76KBhYaykU
sfvjB64xMB8GA1UdIwQYMBaAFJODSJIjtsPapxWFCEF1MGeXpdScMBIGA1UdEwEB
/wQIMAYBAf8CAQAwDgYDVR0PAQH/BAQDAgGGMA0GCSqGSIb3DQEBCwUAA4ICAQCn
l7r38rM8nfS2wUY4bqhUsl9zKkXzn2eTuO+kdFVcfWP/Z55uXaX6aU+iJUSLDVYU
kA7t9sWtCRRoqL4mSuM0JQdUPp64CmacHtop4nvtvKHOE5ism2JcRUNwcBOII3Ka
J4sdvZw3IuecKFAmZfA5bf51x2Rr8P01M6DmiqmSZuNwpfzmObU1xqncNVrp+Jd0
Ofjqg7AreZfjSwXJby0i78f5j8Wy8sdiL53qShysvhIUyL+CXGv6ivVR6Fz9+VfM
eWVndSj8namFjGnHA2DpYSYn8nIfc1C7B1K20Huf9AHle0Rl120OA2f0OcGErnM5
3EzqTYE+VBJtVLBg6DHs+YprbhVilzAveqqGQ+goQ8kzqn865uxuNQRp2OQDIjDr
boBLJSh+CHX+37v+LOW16RVr/pZD1c+L4vZE/xoEnCFGgGYd6UY8Ii3NuQRDjLaO
pmlYzJohjJmu2hurVtmQCOTnZfWSFaLd1ZAIUw9o5k5ua+0Pnk2s7JVzu33K6O8i
I6yPZoHrDiZxg+EAee0crCAXBxtgLym3kD5A5t2+AwPd+QmGwk2hAjVBsEWb7Euj
VFHvn1RTsYuVzD5RU3EKHc2+wnUNr8P37IF3HKlNJrq/xDFkWF4xmp6rdGsEugfW
EDdZuzDS1Qv5oKJGzBApDkEqrWrsxpfmPCQYYzoriQ==
-----END CERTIFICATE-----
