Certificate:
    Data:
        Version: 3 (0x2)
        Serial Number: 4096 (0x1000)
    Signature Algorithm: sha256WithRSAEncryption
        Issuer: C=CZ, ST=Jihomoravsky kraj, O=OpenStack Common Libraries, OU=Engineering, CN=Intermediate CA 004
        Validity
            Not Before: Aug 14 16:16:15 2018 GMT
            Not After : Sep  4 16:16:15 2018 GMT
        Subject: C=CZ, ST=Jihomoravsky kraj, L=Brno, O=OpenStack Common Libraries, OU=Engineering, CN=Node 004001
        Subject Public Key Info:
            Public Key Algorithm: rsaEncryption
                Public-Key: (2048 bit)
                Modulus:
                    00:a7:a5:59:b4:e8:a5:f8:70:5a:5b:ac:3f:d0:cd:
                    dd:d4:db:5f:d3:bc:f0:4d:a1:f2:02:52:b0:c9:21:
                    71:ca:a4:9a:72:38:34:d3:3f:41:55:2c:ac:cb:6e:
                    31:c5:f7:fb:16:e2:9c:6c:81:98:a6:f6:c2:24:2b:
                    0d:00:a1:b6:2d:fa:ac:9e:af:a2:cb:94:ac:6d:62:
                    17:ad:cd:dc:79:20:6e:ea:fc:3b:cd:79:38:33:17:
                    b4:b0:4d:72:ea:0b:26:e7:43:92:61:86:65:80:f1:
                    fd:8a:c6:d1:10:28:5f:50:a9:2b:72:b3:72:af:d8:
                    7e:b1:3c:47:ea:43:89:82:df:a7:4d:4e:b6:1b:cf:
                    b0:ea:3e:8c:22:c4:a6:e9:8f:29:63:ca:1b:9c:ec:
                    49:14:09:ca:5a:db:4d:9e:1f:97:7d:03:83:b9:9f:
                    2c:96:1a:c1:96:9e:7e:ac:33:9a:03:ef:10:0d:fe:
                    72:42:93:7a:14:8b:a2:80:14:8f:96:bb:9e:9a:fd:
                    6b:c2:10:b1:71:43:6c:31:3c:48:6d:0b:ba:bb:f9:
                    f3:60:83:41:4a:3b:fc:1f:2d:3b:11:3c:95:5b:80:
                    39:6d:2c:a4:6f:71:ff:0a:b2:26:4b:7d:92:bd:30:
                    f2:5f:48:38:4c:91:cb:20:c2:58:3f:53:88:a2:b1:
                    c3:9f
                Exponent: 65537 (0x10001)
        X509v3 extensions:
            X509v3 Basic Constraints: 
                CA:FALSE
            Netscape Cert Type: 
                SSL Client, S/MIME
            Netscape Comment: 
                OpenSSL Generated Client Certificate
            X509v3 Subject Key Identifier: 
                32:12:1B:38:2F:84:F1:76:65:48:C3:5B:3D:E1:5A:6F:EB:40:A8:47
            X509v3 Authority Key Identifier: 
                keyid:36:01:BF:34:4D:50:5E:FA:28:18:58:6B:29:14:B1:FB:E3:07:AE:31

            X509v3 Key Usage: critical
                Digital Signature, Non Repudiation, Key Encipherment
            X509v3 Extended Key Usage: 
                TLS Web Client Authentication, E-mail Protection
    Signature Algorithm: sha256WithRSAEncryption
         4b:f5:6e:78:c6:be:05:34:74:7c:23:fc:a1:84:53:b3:d0:d4:
         04:44:6a:78:7f:55:b1:43:58:99:5e:bc:3e:4b:c9:ff:ec:2b:
         13:44:35:d9:31:a5:08:dd:66:81:43:d7:50:a3:a4:29:4d:30:
         00:9c:af:6b:f4:d0:32:76:4b:a3:44:c7:39:d8:4f:8e:02:c8:
         11:5c:3e:41:17:fc:e6:03:3b:00:ad:b8:cf:c4:e3:b9:f9:78:
         1e:c8:96:16:64:a4:26:53:17:a4:86:aa:56:b4:24:be:80:71:
         ea:ac:47:e8:24:41:38:e5:16:e6:99:b4:de:d5:68:c8:35:08:
         e2:37:11:f2:8f:e2:36:d1:a2:8d:be:a3:98:6e:dc:53:3e:78:
         00:96:8b:8c:d4:9d:45:93:4b:a6:22:0b:72:36:0a:8c:fc:89:
         f2:d7:a0:48:90:c0:3a:41:08:90:01:aa:a9:ba:eb:be:41:e8:
         d0:ee:5a:5b:49:5d:f7:10:05:fa:cb:30:d9:05:bb:f9:d5:f5:
         6e:ee:0a:59:a8:c3:fb:12:ec:c2:56:92:8c:1f:3e:0e:b1:e9:
         53:93:0b:08:06:f8:89:aa:3a:89:3f:f6:4c:a1:05:ad:23:01:
         fe:29:61:a4:3f:3c:70:d6:89:1a:fd:ae:45:35:d4:8b:8d:51:
         7b:10:69:22:85:49:48:9c:4a:ff:e2:ed:05:3b:88:be:38:d8:
         fd:93:31:d9:86:5e:44:af:8c:50:8d:3f:75:57:6c:3f:a7:e9:
         db:f5:0d:3f:6d:6a:14:1e:ef:54:0d:33:9f:c3:22:21:d3:93:
         7a:27:bf:b8:e1:0c:15:99:33:6c:7b:b4:79:72:7b:f4:60:b0:
         e1:be:97:41:e9:d0:0b:22:eb:e1:b4:34:ad:05:16:c3:77:53:
         ef:01:20:af:27:c6:1c:b5:4c:d0:e0:f8:83:78:a5:6a:28:d7:
         5a:ef:ca:65:9c:8d:94:09:48:43:bc:b1:4d:d6:4c:57:cf:42:
         02:9d:1f:ba:d7:d9:cb:46:23:43:59:5e:27:44:0f:a6:57:05:
         1b:40:42:73:92:47:42:bf:ca:9c:5e:1e:b5:ae:fe:19:8f:b3:
         e1:f2:60:af:86:f2:cb:08:ec:ba:76:ba:50:d3:86:ad:26:78:
         48:ef:e4:d6:4d:bc:e0:79:d0:8f:bb:f4:e3:b8:ce:11:bc:17:
         df:64:7c:37:20:15:6a:50:9a:c9:1e:f9:6e:89:90:80:ec:d5:
         40:72:5f:00:1e:af:68:6e:d5:5c:ce:33:12:e8:3c:a9:da:27:
         ea:d9:0b:6a:0d:0d:15:ce:9a:d5:ce:04:d1:c9:7a:a2:b6:61:
         e3:33:ef:33:9f:cc:ad:f2
-----BEGIN CERTIFICATE-----
MIIFTzCCAzegAwIBAgICEAAwDQYJKoZIhvcNAQELBQAwgYIxCzAJBgNVBAYTAkNa
MRowGAYDVQQIDBFKaWhvbW9yYXZza3kga3JhajEjMCEGA1UECgwaT3BlblN0YWNr
IENvbW1vbiBMaWJyYXJpZXMxFDASBgNVBAsMC0VuZ2luZWVyaW5nMRwwGgYDVQQD
DBNJbnRlcm1lZGlhdGUgQ0EgMDA0MB4XDTE4MDgxNDE2MTYxNVoXDTE4MDkwNDE2
MTYxNVowgYkxCzAJBgNVBAYTAkNaMRowGAYDVQQIDBFKaWhvbW9yYXZza3kga3Jh
ajENMAsGA1UEBwwEQnJubzEjMCEGA1UECgwaT3BlblN0YWNrIENvbW1vbiBMaWJy
YXJpZXMxFDASBgNVBAsMC0VuZ2luZWVyaW5nMRQwEgYDVQQDDAtOb2RlIDAwNDAw
MTCCASIwDQYJKoZIhvcNAQEBBQADggEPADCCAQoCggEBAKelWbTopfhwWlusP9DN
3dTbX9O88E2h8gJSsMkhccqkmnI4NNM/QVUsrMtuMcX3+xbinGyBmKb2wiQrDQCh
ti36rJ6vosuUrG1iF63N3Hkgbur8O815ODMXtLBNcuoLJudDkmGGZYDx/YrG0RAo
X1CpK3Kzcq/YfrE8R+pDiYLfp01OthvPsOo+jCLEpumPKWPKG5zsSRQJylrbTZ4f
l30Dg7mfLJYawZaefqwzmgPvEA3+ckKTehSLooAUj5a7npr9a8IQsXFDbDE8SG0L
urv582CDQUo7/B8tOxE8lVuAOW0spG9x/wqyJkt9kr0w8l9IOEyRyyDCWD9TiKKx
w58CAwEAAaOBxTCBwjAJBgNVHRMEAjAAMBEGCWCGSAGG+EIBAQQEAwIFoDAzBglg
hkgBhvhCAQ0EJhYkT3BlblNTTCBHZW5lcmF0ZWQgQ2xpZW50IENlcnRpZmljYXRl
MB0GA1UdDgQWBBQyEhs4L4TxdmVIw1s94Vpv60CoRzAfBgNVHSMEGDAWgBQ2Ab80
TVBe+igYWGspFLH74weuMTAOBgNVHQ8BAf8EBAMCBeAwHQYDVR0lBBYwFAYIKwYB
BQUHAwIGCCsGAQUFBwMEMA0GCSqGSIb3DQEBCwUAA4ICAQBL9W54xr4FNHR8I/yh
hFOz0NQERGp4f1WxQ1iZXrw+S8n/7CsTRDXZMaUI3WaBQ9dQo6QpTTAAnK9r9NAy
dkujRMc52E+OAsgRXD5BF/zmAzsArbjPxOO5+XgeyJYWZKQmUxekhqpWtCS+gHHq
rEfoJEE45RbmmbTe1WjINQjiNxHyj+I20aKNvqOYbtxTPngAlouM1J1Fk0umIgty
NgqM/Iny16BIkMA6QQiQAaqpuuu+QejQ7lpbSV33EAX6yzDZBbv51fVu7gpZqMP7
EuzCVpKMHz4OselTkwsIBviJqjqJP/ZMoQWtIwH+KWGkPzxw1oka/a5FNdSLjVF7
EGkihUlInEr/4u0FO4i+ONj9kzHZhl5Er4xQjT91V2w/p+nb9Q0/bWoUHu9UDTOf
wyIh05N6J7+44QwVmTNse7R5cnv0YLDhvpdB6dALIuvhtDStBRbDd1PvASCvJ8Yc
tUzQ4PiDeKVqKNda78plnI2UCUhDvLFN1kxXz0ICnR+619nLRiNDWV4nRA+mVwUb
QEJzkkdCv8qcXh61rv4Zj7Ph8mCvhvLLCOy6drpQ04atJnhI7+TWTbzgedCPu/Tj
uM4RvBffZHw3IBVqUJrJHvluiZCA7NVAcl8AHq9obtVczjMS6Dyp2ifq2QtqDQ0V
zprVzgTRyXqitmHjM+8zn8yt8g==
-----END CERTIFICATE-----
Certificate:
    Data:
        Version: 3 (0x2)
        Serial Number: 4100 (0x1004)
    Signature Algorithm: sha256WithRSAEncryption
        Issuer: C=CZ, ST=Jihomoravsky kraj, L=Brno, O=OpenStack Common Libraries, OU=Engineering, CN=Root CA
        Validity
            Not Before: Aug 14 16:16:12 2018 GMT
            Not After : Aug 11 16:16:12 2028 GMT
        Subject: C=CZ, ST=Jihomoravsky kraj, O=OpenStack Common Libraries, OU=Engineering, CN=Intermediate CA 004
        Subject Public Key Info:
            Public Key Algorithm: rsaEncryption
                Public-Key: (4096 bit)
                Modulus:
                    00:b1:5f:37:4f:b1:6b:2f:95:82:9c:91:ec:07:f3:
                    8c:61:22:76:26:1b:24:d9:58:97:7b:7e:19:b0:c4:
                    7f:58:17:95:c5:0e:45:27:01:fc:87:8d:61:09:5f:
                    9b:84:60:54:1c:a7:4b:60:f4:cf:d4:0d:4d:28:12:
                    df:e3:1b:78:89:b2:e7:04:af:be:7d:11:68:40:6d:
                    2d:89:3c:e7:12:f5:84:57:f8:4f:46:34:4e:82:ff:
                    a7:80:cd:5f:2c:81:43:ba:0f:83:c6:4c:ce:5f:9f:
                    23:fc:06:53:85:d9:07:bc:6e:60:de:50:f4:3a:0a:
                    b7:59:09:56:cd:86:66:10:54:5f:92:2d:54:3b:a1:
                    a7:25:b1:de:36:ef:a1:4d:76:20:ef:63:ba:72:03:
                    c3:04:38:da:a4:42:2a:e2:c2:37:2d:27:26:3c:f4:
                    f9:6f:5a:8f:6d:6b:ae:df:16:b6:96:a9:9a:45:3e:
                    ca:58:fc:67:23:5a:02:d4:db:b0:b5:b1:1b:1c:33:
                    d7:96:7a:1b:8a:03:51:e9:2b:07:68:cb:04:d0:48:
                    97:61:7d:55:2d:7a:95:3d:d4:9c:c6:a4:7e:c6:1b:
                    2b:97:d9:ed:19:16:76:b6:c1:04:5f:58:6a:cb:b3:
                    d4:92:64:f4:78:9a:d7:9b:25:28:04:b5:8b:2f:ba:
                    01:4e:d5:14:15:b2:08:f4:35:70:36:46:83:f1:5a:
                    ef:1b:9e:b0:e1:d4:f5:f3:fe:69:93:9a:fa:34:01:
                    48:b9:cf:e1:b5:ef:45:6c:6c:86:f2:d2:8e:c5:0b:
                    3a:54:3b:90:14:91:13:8c:46:81:eb:ed:65:c4:9b:
                    3b:8c:13:e1:4a:81:a7:16:2f:78:61:61:42:96:57:
                    e9:2b:93:8f:d6:29:93:c3:20:26:3c:6f:bf:6d:b2:
                    1c:f9:8c:04:bd:99:2a:d2:6b:d0:a6:5e:09:69:f8:
                    91:79:a0:12:0f:c0:9e:f0:16:02:f2:0c:58:f3:20:
                    63:f6:0d:5b:61:ef:18:d1:86:fb:ca:e6:4a:bf:0d:
                    c6:e5:c4:0c:2e:44:6b:32:86:cb:77:d2:c6:43:82:
                    a3:a9:9f:80:f6:fe:79:5c:6d:21:c3:19:5e:48:68:
                    b7:7f:8e:0a:ac:71:8c:52:fc:49:77:f4:cb:13:0c:
                    3f:43:bc:3a:08:6f:4f:e9:10:69:98:64:fa:96:6d:
                    6a:b3:00:8c:b1:40:6f:4b:99:a1:29:91:6e:3f:07:
                    9b:c4:4a:d8:f3:60:5d:4b:86:62:e4:90:7a:a0:ea:
                    e5:ed:7d:27:28:1b:41:22:22:c0:bb:31:09:ef:56:
                    01:96:9c:cf:e6:08:2f:ab:04:8c:95:d2:d6:47:a2:
                    8e:fe:75
                Exponent: 65537 (0x10001)
        X509v3 extensions:
            X509v3 Subject Key Identifier: 
                36:01:BF:34:4D:50:5E:FA:28:18:58:6B:29:14:B1:FB:E3:07:AE:31
            X509v3 Authority Key Identifier: 
                keyid:93:83:48:92:23:B6:C3:DA:A7:15:85:08:41:75:30:67:97:A5:D4:9C

            X509v3 Basic Constraints: critical
                CA:TRUE, pathlen:0
            X509v3 Key Usage: critical
                Digital Signature, Certificate Sign, CRL Sign
    Signature Algorithm: sha256WithRSAEncryption
         a7:97:ba:f7:f2:b3:3c:9d:f4:b6:c1:46:38:6e:a8:54:b2:5f:
         73:2a:45:f3:9f:67:93:b8:ef:a4:74:55:5c:7d:63:ff:67:9e:
         6e:5d:a5:fa:69:4f:a2:25:44:8b:0d:56:14:90:0e:ed:f6:c5:
         ad:09:14:68:a8:be:26:4a:e3:34:25:07:54:3e:9e:b8:0a:66:
         9c:1e:da:29:e2:7b:ed:bc:a1:ce:13:98:ac:9b:62:5c:45:43:
         70:70:13:88:23:72:9a:27:8b:1d:bd:9c:37:22:e7:9c:28:50:
         26:65:f0:39:6d:fe:75:c7:64:6b:f0:fd:35:33:a0:e6:8a:a9:
         92:66:e3:70:a5:fc:e6:39:b5:35:c6:a9:dc:35:5a:e9:f8:97:
         74:39:f8:ea:83:b0:2b:79:97:e3:4b:05:c9:6f:2d:22:ef:c7:
         f9:8f:c5:b2:f2:c7:62:2f:9d:ea:4a:1c:ac:be:12:14:c8:bf:
         82:5c:6b:fa:8a:f5:51:e8:5c:fd:f9:57:cc:79:65:67:75:28:
         fc:9d:a9:85:8c:69:c7:03:60:e9:61:26:27:f2:72:1f:73:50:
         bb:07:52:b6:d0:7b:9f:f4:01:e5:7b:44:65:d7:6d:0e:03:67:
         f4:39:c1:84:ae:73:39:dc:4c:ea:4d:81:3e:54:12:6d:54:b0:
         60:e8:31:ec:f9:8a:6b:6e:15:62:97:30:2f:7a:aa:86:43:e8:
         28:43:c9:33:aa:7f:3a:e6:ec:6e:35:04:69:d8:e4:03:22:30:
         eb:6e:80:4b:25:28:7e:08:75:fe:df:bb:fe:2c:e5:b5:e9:15:
         6b:fe:96:43:d5:cf:8b:e2:f6:44:ff:1a:04:9c:21:46:80:66:
         1d:e9:46:3c:22:2d:cd:b9:04:43:8c:b6:8e:a6:69:58:cc:9a:
         21:8c:99:ae:da:1b:ab:56:d9:90:08:e4:e7:65:f5:92:15:a2:
         dd:d5:90:08:53:0f:68:e6:4e:6e:6b:ed:0f:9e:4d:ac:ec:95:
         73:bb:7d:ca:e8:ef:22:23:ac:8f:66:81:eb:0e:26:71:83:e1:
         00:79:ed:1c:ac:20:17:07:1b:60:2f:29:b7:90:3e:40:e6:dd:
         be:03:03:dd:f9:09:86:c2:4d:a1:02:35:41:b0:45:9b:ec:4b:
         a3:54:51:ef:9f:54:53:b1:8b:95:cc:3e:51:53:71:0a:1d:cd:
         be:c2:75:0d:af:c3:f7:ec:81:77:1c:a9:4d:26:ba:bf:c4:31:
         64:58:5e:31:9a:9e:ab:74:6b:04:ba:07:d6:10:37:59:bb:30:
         d2:d5:0b:f9:a0:a2:46:cc:10:29:0e:41:2a:ad:6a:ec:c6:97:
         e6:3c:24:18:63:3a:2b:89
-----BEGIN CERTIFICATE-----
MIIF6zCCA9OgAwIBAgICEAQwDQYJKoZIhvcNAQELBQAwgYUxCzAJBgNVBAYTAkNa
MRowGAYDVQQIDBFKaWhvbW9yYXZza3kga3JhajENMAsGA1UEBwwEQnJubzEjMCEG
A1UECgwaT3BlblN0YWNrIENvbW1vbiBMaWJyYXJpZXMxFDASBgNVBAsMC0VuZ2lu
ZWVyaW5nMRAwDgYDVQQDDAdSb290IENBMB4XDTE4MDgxNDE2MTYxMloXDTI4MDgx
MTE2MTYxMlowgYIxCzAJBgNVBAYTAkNaMRowGAYDVQQIDBFKaWhvbW9yYXZza3kg
a3JhajEjMCEGA1UECgwaT3BlblN0YWNrIENvbW1vbiBMaWJyYXJpZXMxFDASBgNV
BAsMC0VuZ2luZWVyaW5nMRwwGgYDVQQDDBNJbnRlcm1lZGlhdGUgQ0EgMDA0MIIC
IjANBgkqhkiG9w0BAQEFAAOCAg8AMIICCgKCAgEAsV83T7FrL5WCnJHsB/OMYSJ2
Jhsk2ViXe34ZsMR/WBeVxQ5FJwH8h41hCV+bhGBUHKdLYPTP1A1NKBLf4xt4ibLn
BK++fRFoQG0tiTznEvWEV/hPRjROgv+ngM1fLIFDug+DxkzOX58j/AZThdkHvG5g
3lD0Ogq3WQlWzYZmEFRfki1UO6GnJbHeNu+hTXYg72O6cgPDBDjapEIq4sI3LScm
PPT5b1qPbWuu3xa2lqmaRT7KWPxnI1oC1NuwtbEbHDPXlnobigNR6SsHaMsE0EiX
YX1VLXqVPdScxqR+xhsrl9ntGRZ2tsEEX1hqy7PUkmT0eJrXmyUoBLWLL7oBTtUU
FbII9DVwNkaD8VrvG56w4dT18/5pk5r6NAFIuc/hte9FbGyG8tKOxQs6VDuQFJET
jEaB6+1lxJs7jBPhSoGnFi94YWFCllfpK5OP1imTwyAmPG+/bbIc+YwEvZkq0mvQ
pl4JafiReaASD8Ce8BYC8gxY8yBj9g1bYe8Y0Yb7yuZKvw3G5cQMLkRrMobLd9LG
Q4KjqZ+A9v55XG0hwxleSGi3f44KrHGMUvxJd/TLEww/Q7w6CG9P6RBpmGT6lm1q
swCMsUBvS5mhKZFuPwebxErY82BdS4Zi5JB6oOrl7X0nKBtBIiLAuzEJ71YBlpzP
5ggvqwSMldLWR6KO/nUCAwEAAaNmMGQwHQYDVR0OBBYEFDYBvzRNUF76KBhYaykU
sfvjB64xMB8GA1UdIwQYMBaAFJODSJIjtsPapxWFCEF1MGeXpdScMBIGA1UdEwEB
/wQIMAYBAf8CAQAwDgYDVR0PAQH/BAQDAgGGMA0GCSqGSIb3DQEBCwUAA4ICAQCn
l7r38rM8nfS2wUY4bqhUsl9zKkXzn2eTuO+kdFVcfWP/Z55uXaX6aU+iJUSLDVYU
kA7t9sWtCRRoqL4mSuM0JQdUPp64CmacHtop4nvtvKHOE5ism2JcRUNwcBOII3Ka
J4sdvZw3IuecKFAmZfA5bf51x2Rr8P01M6DmiqmSZuNwpfzmObU1xqncNVrp+Jd0
Ofjqg7AreZfjSwXJby0i78f5j8Wy8sdiL53qShysvhIUyL+CXGv6ivVR6Fz9+VfM
eWVndSj8namFjGnHA2DpYSYn8nIfc1C7B1K20Huf9AHle0Rl120OA2f0OcGErnM5
3EzqTYE+VBJtVLBg6DHs+YprbhVilzAveqqGQ+goQ8kzqn865uxuNQRp2OQDIjDr
boBLJSh+CHX+37v+LOW16RVr/pZD1c+L4vZE/xoEnCFGgGYd6UY8Ii3NuQRDjLaO
pmlYzJohjJmu2hurVtmQCOTnZfWSFaLd1ZAIUw9o5k5ua+0Pnk2s7JVzu33K6O8i
I6yPZoHrDiZxg+EAee0crCAXBxtgLym3kD5A5t2+AwPd+QmGwk2hAjVBsEWb7Euj
VFHvn1RTsYuVzD5RU3EKHc2+wnUNr8P37IF3HKlNJrq/xDFkWF4xmp6rdGsEugfW
EDdZuzDS1Qv5oKJGzBApDkEqrWrsxpfmPCQYYzoriQ==
-----END CERTIFICATE-----
