Certificate:
    Data:
        Version: 3 (0x2)
        Serial Number: 4100 (0x1004)
    Signature Algorithm: sha256WithRSAEncryption
        Issuer: C=CZ, ST=Jihomoravsky kraj, O=OpenStack Common Libraries, OU=Engineering, CN=Intermediate CA 004
        Validity
            Not Before: Aug 14 16:16:15 2018 GMT
            Not After : Sep  4 16:16:15 2018 GMT
        Subject: C=CZ, ST=Jihomoravsky kraj, L=Brno, O=OpenStack Common Libraries, OU=Engineering, CN=Node 004005
        Subject Public Key Info:
            Public Key Algorithm: rsaEncryption
                Public-Key: (2048 bit)
                Modulus:
                    00:e2:81:57:13:b9:36:04:ce:92:9c:ac:48:0f:e1:
                    36:00:a4:6e:35:d2:7b:01:b5:87:32:c9:d3:47:62:
                    0a:26:3d:6d:39:11:5b:58:04:13:c3:81:ff:94:ff:
                    69:78:2d:cc:7d:28:49:51:46:37:b1:cd:d5:1f:44:
                    a5:b2:dd:c2:df:10:76:83:93:92:d5:cd:38:cf:65:
                    cd:16:25:c6:36:a9:18:e8:b7:b2:3a:13:87:f4:17:
                    1a:74:ed:8e:df:bd:6c:16:56:b4:d4:74:8a:a9:f6:
                    16:85:ed:1e:ac:c8:7b:93:94:a6:3d:66:36:b1:e2:
                    40:a3:83:74:f7:d9:65:b3:06:c8:0c:f0:95:1e:db:
                    2e:03:d2:6f:33:96:de:14:7c:86:cf:28:67:6b:dd:
                    c9:d7:d8:74:c4:fa:90:a5:a8:8b:c8:fc:38:cc:ee:
                    8b:0b:af:d5:77:d1:98:f5:90:80:c9:69:07:b7:ee:
                    32:aa:4d:28:fc:80:f1:e6:9c:92:ee:aa:f8:8b:5e:
                    0f:18:34:3f:1d:e9:5c:ee:5b:1c:4b:37:f8:ff:24:
                    e3:10:f9:76:28:40:a8:0f:15:60:4c:89:29:52:ab:
                    bf:cc:e5:b1:b9:dd:53:06:ce:1f:78:a9:29:ee:e1:
                    85:8c:07:77:06:9f:b9:0a:7f:75:bb:a9:e8:ad:74:
                    a5:53
                Exponent: 65537 (0x10001)
        X509v3 extensions:
            X509v3 Basic Constraints: 
                CA:FALSE
            Netscape Cert Type: 
                SSL Client, S/MIME
            Netscape Comment: 
                OpenSSL Generated Client Certificate
            X509v3 Subject Key Identifier: 
                CF:11:8C:75:AA:8C:72:DA:C3:DC:D1:04:CB:98:6D:5E:55:BA:D8:4F
            X509v3 Authority Key Identifier: 
                keyid:36:01:BF:34:4D:50:5E:FA:28:18:58:6B:29:14:B1:FB:E3:07:AE:31

            X509v3 Key Usage: critical
                Digital Signature, Non Repudiation, Key Encipherment
            X509v3 Extended Key Usage: 
                TLS Web Client Authentication, E-mail Protection
    Signature Algorithm: sha256WithRSAEncryption
         13:ea:e6:b4:e6:86:dc:93:be:77:5b:63:93:55:c1:04:52:f0:
         d7:4f:95:1e:f9:30:f4:a0:f7:28:26:d4:0f:03:10:a2:61:8c:
         8a:76:7a:ef:e9:ef:c6:aa:cb:66:c3:94:b0:46:91:5f:16:89:
         e2:8a:79:5d:24:67:69:dc:08:44:bc:d3:c9:0a:32:12:8d:fb:
         0a:9e:b8:a1:8a:17:1f:c1:e4:2f:37:bc:29:5f:49:a6:ba:e9:
         60:e7:ee:9d:66:ed:d1:7f:a6:00:3d:69:87:9e:86:2f:8c:69:
         8a:63:02:20:b1:4f:2f:f5:c5:89:40:ee:36:7f:3c:aa:38:62:
         84:3e:c9:75:fc:15:0b:8d:ee:3d:bd:68:31:93:ca:c6:59:a2:
         ce:25:10:61:d2:56:41:67:7b:f8:45:df:f0:9c:e4:8a:9d:6d:
         0b:ec:32:75:38:26:9f:95:e5:7d:d3:d0:bd:31:11:91:5b:7b:
         f4:9d:a3:5e:76:8e:3f:2e:3b:2a:39:8c:ae:b1:75:b5:b5:eb:
         5d:1b:d1:b6:e4:5e:dc:43:38:ff:32:52:6f:64:6c:dd:dc:2c:
         3b:b0:90:6a:6c:e2:62:ac:b1:06:89:3a:53:1c:b1:33:91:70:
         43:9d:41:d5:85:ee:6f:8e:f5:34:e3:49:77:56:79:d3:74:3d:
         f9:39:37:6e:97:80:54:98:36:15:c3:4f:23:7c:0c:6e:5c:cf:
         bc:39:fd:4d:3e:d4:b2:76:a4:6f:ae:45:80:73:42:da:6d:8b:
         c4:fd:bc:da:3e:cf:b7:16:5f:9f:bc:83:db:e5:97:8c:68:51:
         ca:df:94:7a:22:e9:30:c4:8d:c7:db:77:f3:ae:0e:4b:c0:92:
         f2:74:06:ac:6b:14:b7:b8:38:ed:28:f6:29:4b:0c:63:8d:f8:
         79:6a:27:de:38:e0:de:c7:72:34:ea:e8:50:cf:41:e4:df:e8:
         d3:99:3a:6b:25:cb:0d:cc:f4:a7:3a:71:d4:8e:e4:e6:a2:a0:
         f7:33:34:95:94:11:f0:35:19:ff:23:bc:2a:6d:b4:cb:2f:d5:
         42:8f:32:34:a1:6b:be:b9:4a:c7:6d:1f:ba:c6:8b:c7:ef:10:
         49:3e:1d:69:e5:2a:cb:c2:ad:a2:34:ea:9d:4b:c2:64:55:8a:
         0b:0a:0b:02:25:53:12:a6:e0:d5:16:91:d5:c0:22:d9:86:53:
         0a:3a:3c:f7:1e:f0:18:89:b6:d2:0d:80:4e:2f:a4:3e:16:2b:
         a5:fb:82:57:28:c3:c2:77:bb:28:53:cd:f4:98:08:0f:e7:34:
         ea:1a:90:00:5c:af:a7:a9:45:18:22:5b:c4:46:5a:56:4a:10:
         7f:9f:5e:02:e8:20:16:a6
-----BEGIN CERTIFICATE-----
MIIFTzCCAzegAwIBAgICEAQwDQYJKoZIhvcNAQELBQAwgYIxCzAJBgNVBAYTAkNa
MRowGAYDVQQIDBFKaWhvbW9yYXZza3kga3JhajEjMCEGA1UECgwaT3BlblN0YWNr
IENvbW1vbiBMaWJyYXJpZXMxFDASBgNVBAsMC0VuZ2luZWVyaW5nMRwwGgYDVQQD
DBNJbnRlcm1lZGlhdGUgQ0EgMDA0MB4XDTE4MDgxNDE2MTYxNVoXDTE4MDkwNDE2
MTYxNVowgYkxCzAJBgNVBAYTAkNaMRowGAYDVQQIDBFKaWhvbW9yYXZza3kga3Jh
ajENMAsGA1UEBwwEQnJubzEjMCEGA1UECgwaT3BlblN0YWNrIENvbW1vbiBMaWJy
YXJpZXMxFDASBgNVBAsMC0VuZ2luZWVyaW5nMRQwEgYDVQQDDAtOb2RlIDAwNDAw
NTCCASIwDQYJKoZIhvcNAQEBBQADggEPADCCAQoCggEBAOKBVxO5NgTOkpysSA/h
NgCkbjXSewG1hzLJ00diCiY9bTkRW1gEE8OB/5T/aXgtzH0oSVFGN7HN1R9EpbLd
wt8QdoOTktXNOM9lzRYlxjapGOi3sjoTh/QXGnTtjt+9bBZWtNR0iqn2FoXtHqzI
e5OUpj1mNrHiQKODdPfZZbMGyAzwlR7bLgPSbzOW3hR8hs8oZ2vdydfYdMT6kKWo
i8j8OMzuiwuv1XfRmPWQgMlpB7fuMqpNKPyA8eacku6q+IteDxg0Px3pXO5bHEs3
+P8k4xD5dihAqA8VYEyJKVKrv8zlsbndUwbOH3ipKe7hhYwHdwafuQp/dbup6K10
pVMCAwEAAaOBxTCBwjAJBgNVHRMEAjAAMBEGCWCGSAGG+EIBAQQEAwIFoDAzBglg
hkgBhvhCAQ0EJhYkT3BlblNTTCBHZW5lcmF0ZWQgQ2xpZW50IENlcnRpZmljYXRl
MB0GA1UdDgQWBBTPEYx1qoxy2sPc0QTLmG1eVbrYTzAfBgNVHSMEGDAWgBQ2Ab80
TVBe+igYWGspFLH74weuMTAOBgNVHQ8BAf8EBAMCBeAwHQYDVR0lBBYwFAYIKwYB
BQUHAwIGCCsGAQUFBwMEMA0GCSqGSIb3DQEBCwUAA4ICAQAT6ua05obck753W2OT
VcEEUvDXT5Ue+TD0oPcoJtQPAxCiYYyKdnrv6e/Gqstmw5SwRpFfFoniinldJGdp
3AhEvNPJCjISjfsKnrihihcfweQvN7wpX0mmuulg5+6dZu3Rf6YAPWmHnoYvjGmK
YwIgsU8v9cWJQO42fzyqOGKEPsl1/BULje49vWgxk8rGWaLOJRBh0lZBZ3v4Rd/w
nOSKnW0L7DJ1OCafleV909C9MRGRW3v0naNedo4/LjsqOYyusXW1tetdG9G25F7c
Qzj/MlJvZGzd3Cw7sJBqbOJirLEGiTpTHLEzkXBDnUHVhe5vjvU040l3VnnTdD35
OTdul4BUmDYVw08jfAxuXM+8Of1NPtSydqRvrkWAc0LabYvE/bzaPs+3Fl+fvIPb
5ZeMaFHK35R6IukwxI3H23fzrg5LwJLydAasaxS3uDjtKPYpSwxjjfh5aifeOODe
x3I06uhQz0Hk3+jTmTprJcsNzPSnOnHUjuTmoqD3MzSVlBHwNRn/I7wqbbTLL9VC
jzI0oWu+uUrHbR+6xovH7xBJPh1p5SrLwq2iNOqdS8JkVYoLCgsCJVMSpuDVFpHV
wCLZhlMKOjz3HvAYibbSDYBOL6Q+Fiul+4JXKMPCd7soU830mAgP5zTqGpAAXK+n
qUUYIlvERlpWShB/n14C6CAWpg==
-----END CERTIFICATE-----
Certificate:
    Data:
        Version: 3 (0x2)
        Serial Number: 4100 (0x1004)
    Signature Algorithm: sha256WithRSAEncryption
        Issuer: C=CZ, ST=Jihomoravsky kraj, L=Brno, O=OpenStack Common Libraries, OU=Engineering, CN=Root CA
        Validity
            Not Before: Aug 14 16:16:12 2018 GMT
            Not After : Aug 11 16:16:12 2028 GMT
        Subject: C=CZ, ST=Jihomoravsky kraj, O=OpenStack Common Libraries, OU=Engineering, CN=Intermediate CA 004
        Subject Public Key Info:
            Public Key Algorithm: rsaEncryption
                Public-Key: (4096 bit)
                Modulus:
                    00:b1:5f:37:4f:b1:6b:2f:95:82:9c:91:ec:07:f3:
                    8c:61:22:76:26:1b:24:d9:58:97:7b:7e:19:b0:c4:
                    7f:58:17:95:c5:0e:45:27:01:fc:87:8d:61:09:5f:
                    9b:84:60:54:1c:a7:4b:60:f4:cf:d4:0d:4d:28:12:
                    df:e3:1b:78:89:b2:e7:04:af:be:7d:11:68:40:6d:
                    2d:89:3c:e7:12:f5:84:57:f8:4f:46:34:4e:82:ff:
                    a7:80:cd:5f:2c:81:43:ba:0f:83:c6:4c:ce:5f:9f:
                    23:fc:06:53:85:d9:07:bc:6e:60:de:50:f4:3a:0a:
                    b7:59:09:56:cd:86:66:10:54:5f:92:2d:54:3b:a1:
                    a7:25:b1:de:36:ef:a1:4d:76:20:ef:63:ba:72:03:
                    c3:04:38:da:a4:42:2a:e2:c2:37:2d:27:26:3c:f4:
                    f9:6f:5a:8f:6d:6b:ae:df:16:b6:96:a9:9a:45:3e:
                    ca:58:fc:67:23:5a:02:d4:db:b0:b5:b1:1b:1c:33:
                    d7:96:7a:1b:8a:03:51:e9:2b:07:68:cb:04:d0:48:
                    97:61:7d:55:2d:7a:95:3d:d4:9c:c6:a4:7e:c6:1b:
                    2b:97:d9:ed:19:16:76:b6:c1:04:5f:58:6a:cb:b3:
                    d4:92:64:f4:78:9a:d7:9b:25:28:04:b5:8b:2f:ba:
                    01:4e:d5:14:15:b2:08:f4:35:70:36:46:83:f1:5a:
                    ef:1b:9e:b0:e1:d4:f5:f3:fe:69:93:9a:fa:34:01:
                    48:b9:cf:e1:b5:ef:45:6c:6c:86:f2:d2:8e:c5:0b:
                    3a:54:3b:90:14:91:13:8c:46:81:eb:ed:65:c4:9b:
                    3b:8c:13:e1:4a:81:a7:16:2f:78:61:61:42:96:57:
                    e9:2b:93:8f:d6:29:93:c3:20:26:3c:6f:bf:6d:b2:
                    1c:f9:8c:04:bd:99:2a:d2:6b:d0:a6:5e:09:69:f8:
                    91:79:a0:12:0f:c0:9e:f0:16:02:f2:0c:58:f3:20:
                    63:f6:0d:5b:61:ef:18:d1:86:fb:ca:e6:4a:bf:0d:
                    c6:e5:c4:0c:2e:44:6b:32:86:cb:77:d2:c6:43:82:
                    a3:a9:9f:80:f6:fe:79:5c:6d:21:c3:19:5e:48:68:
                    b7:7f:8e:0a:ac:71:8c:52:fc:49:77:f4:cb:13:0c:
                    3f:43:bc:3a:08:6f:4f:e9:10:69:98:64:fa:96:6d:
                    6a:b3:00:8c:b1:40:6f:4b:99:a1:29:91:6e:3f:07:
                    9b:c4:4a:d8:f3:60:5d:4b:86:62:e4:90:7a:a0:ea:
                    e5:ed:7d:27:28:1b:41:22:22:c0:bb:31:09:ef:56:
                    01:96:9c:cf:e6:08:2f:ab:04:8c:95:d2:d6:47:a2:
                    8e:fe:75
                Exponent: 65537 (0x10001)
        X509v3 extensions:
            X509v3 Subject Key Identifier: 
                36:01:BF:34:4D:50:5E:FA:28:18:58:6B:29:14:B1:FB:E3:07:AE:31
            X509v3 Authority Key Identifier: 
                keyid:93:83:48:92:23:B6:C3:DA:A7:15:85:08:41:75:30:67:97:A5:D4:9C

            X509v3 Basic Constraints: critical
                CA:TRUE, pathlen:0
            X509v3 Key Usage: critical
                Digital Signature, Certificate Sign, CRL Sign
    Signature Algorithm: sha256WithRSAEncryption
         a7:97:ba:f7:f2:b3:3c:9d:f4:b6:c1:46:38:6e:a8:54:b2:5f:
         73:2a:45:f3:9f:67:93:b8:ef:a4:74:55:5c:7d:63:ff:67:9e:
         6e:5d:a5:fa:69:4f:a2:25:44:8b:0d:56:14:90:0e:ed:f6:c5:
         ad:09:14:68:a8:be:26:4a:e3:34:25:07:54:3e:9e:b8:0a:66:
         9c:1e:da:29:e2:7b:ed:bc:a1:ce:13:98:ac:9b:62:5c:45:43:
         70:70:13:88:23:72:9a:27:8b:1d:bd:9c:37:22:e7:9c:28:50:
         26:65:f0:39:6d:fe:75:c7:64:6b:f0:fd:35:33:a0:e6:8a:a9:
         92:66:e3:70:a5:fc:e6:39:b5:35:c6:a9:dc:35:5a:e9:f8:97:
         74:39:f8:ea:83:b0:2b:79:97:e3:4b:05:c9:6f:2d:22:ef:c7:
         f9:8f:c5:b2:f2:c7:62:2f:9d:ea:4a:1c:ac:be:12:14:c8:bf:
         82:5c:6b:fa:8a:f5:51:e8:5c:fd:f9:57:cc:79:65:67:75:28:
         fc:9d:a9:85:8c:69:c7:03:60:e9:61:26:27:f2:72:1f:73:50:
         bb:07:52:b6:d0:7b:9f:f4:01:e5:7b:44:65:d7:6d:0e:03:67:
         f4:39:c1:84:ae:73:39:dc:4c:ea:4d:81:3e:54:12:6d:54:b0:
         60:e8:31:ec:f9:8a:6b:6e:15:62:97:30:2f:7a:aa:86:43:e8:
         28:43:c9:33:aa:7f:3a:e6:ec:6e:35:04:69:d8:e4:03:22:30:
         eb:6e:80:4b:25:28:7e:08:75:fe:df:bb:fe:2c:e5:b5:e9:15:
         6b:fe:96:43:d5:cf:8b:e2:f6:44:ff:1a:04:9c:21:46:80:66:
         1d:e9:46:3c:22:2d:cd:b9:04:43:8c:b6:8e:a6:69:58:cc:9a:
         21:8c:99:ae:da:1b:ab:56:d9:90:08:e4:e7:65:f5:92:15:a2:
         dd:d5:90:08:53:0f:68:e6:4e:6e:6b:ed:0f:9e:4d:ac:ec:95:
         73:bb:7d:ca:e8:ef:22:23:ac:8f:66:81:eb:0e:26:71:83:e1:
         00:79:ed:1c:ac:20:17:07:1b:60:2f:29:b7:90:3e:40:e6:dd:
         be:03:03:dd:f9:09:86:c2:4d:a1:02:35:41:b0:45:9b:ec:4b:
         a3:54:51:ef:9f:54:53:b1:8b:95:cc:3e:51:53:71:0a:1d:cd:
         be:c2:75:0d:af:c3:f7:ec:81:77:1c:a9:4d:26:ba:bf:c4:31:
         64:58:5e:31:9a:9e:ab:74:6b:04:ba:07:d6:10:37:59:bb:30:
         d2:d5:0b:f9:a0:a2:46:cc:10:29:0e:41:2a:ad:6a:ec:c6:97:
         e6:3c:24:18:63:3a:2b:89
-----BEGIN CERTIFICATE-----
MIIF6zCCA9OgAwIBAgICEAQwDQYJKoZIhvcNAQELBQAwgYUxCzAJBgNVBAYTAkNa
MRowGAYDVQQIDBFKaWhvbW9yYXZza3kga3JhajENMAsGA1UEBwwEQnJubzEjMCEG
A1UECgwaT3BlblN0YWNrIENvbW1vbiBMaWJyYXJpZXMxFDASBgNVBAsMC0VuZ2lu
ZWVyaW5nMRAwDgYDVQQDDAdSb290IENBMB4XDTE4MDgxNDE2MTYxMloXDTI4MDgx
MTE2MTYxMlowgYIxCzAJBgNVBAYTAkNaMRowGAYDVQQIDBFKaWhvbW9yYXZza3kg
a3JhajEjMCEGA1UECgwaT3BlblN0YWNrIENvbW1vbiBMaWJyYXJpZXMxFDASBgNV
BAsMC0VuZ2luZWVyaW5nMRwwGgYDVQQDDBNJbnRlcm1lZGlhdGUgQ0EgMDA0MIIC
IjANBgkqhkiG9w0BAQEFAAOCAg8AMIICCgKCAgEAsV83T7FrL5WCnJHsB/OMYSJ2
Jhsk2ViXe34ZsMR/WBeVxQ5FJwH8h41hCV+bhGBUHKdLYPTP1A1NKBLf4xt4ibLn
BK++fRFoQG0tiTznEvWEV/hPRjROgv+ngM1fLIFDug+DxkzOX58j/AZThdkHvG5g
3lD0Ogq3WQlWzYZmEFRfki1UO6GnJbHeNu+hTXYg72O6cgPDBDjapEIq4sI3LScm
PPT5b1qPbWuu3xa2lqmaRT7KWPxnI1oC1NuwtbEbHDPXlnobigNR6SsHaMsE0EiX
YX1VLXqVPdScxqR+xhsrl9ntGRZ2tsEEX1hqy7PUkmT0eJrXmyUoBLWLL7oBTtUU
FbII9DVwNkaD8VrvG56w4dT18/5pk5r6NAFIuc/hte9FbGyG8tKOxQs6VDuQFJET
jEaB6+1lxJs7jBPhSoGnFi94YWFCllfpK5OP1imTwyAmPG+/bbIc+YwEvZkq0mvQ
pl4JafiReaASD8Ce8BYC8gxY8yBj9g1bYe8Y0Yb7yuZKvw3G5cQMLkRrMobLd9LG
Q4KjqZ+A9v55XG0hwxleSGi3f44KrHGMUvxJd/TLEww/Q7w6CG9P6RBpmGT6lm1q
swCMsUBvS5mhKZFuPwebxErY82BdS4Zi5JB6oOrl7X0nKBtBIiLAuzEJ71YBlpzP
5ggvqwSMldLWR6KO/nUCAwEAAaNmMGQwHQYDVR0OBBYEFDYBvzRNUF76KBhYaykU
sfvjB64xMB8GA1UdIwQYMBaAFJODSJIjtsPapxWFCEF1MGeXpdScMBIGA1UdEwEB
/wQIMAYBAf8CAQAwDgYDVR0PAQH/BAQDAgGGMA0GCSqGSIb3DQEBCwUAA4ICAQCn
l7r38rM8nfS2wUY4bqhUsl9zKkXzn2eTuO+kdFVcfWP/Z55uXaX6aU+iJUSLDVYU
kA7t9sWtCRRoqL4mSuM0JQdUPp64CmacHtop4nvtvKHOE5ism2JcRUNwcBOII3Ka
J4sdvZw3IuecKFAmZfA5bf51x2Rr8P01M6DmiqmSZuNwpfzmObU1xqncNVrp+Jd0
Ofjqg7AreZfjSwXJby0i78f5j8Wy8sdiL53qShysvhIUyL+CXGv6ivVR6Fz9+VfM
eWVndSj8namFjGnHA2DpYSYn8nIfc1C7B1K20Huf9AHle0Rl120OA2f0OcGErnM5
3EzqTYE+VBJtVLBg6DHs+YprbhVilzAveqqGQ+goQ8kzqn865uxuNQRp2OQDIjDr
boBLJSh+CHX+37v+LOW16RVr/pZD1c+L4vZE/xoEnCFGgGYd6UY8Ii3NuQRDjLaO
pmlYzJohjJmu2hurVtmQCOTnZfWSFaLd1ZAIUw9o5k5ua+0Pnk2s7JVzu33K6O8i
I6yPZoHrDiZxg+EAee0crCAXBxtgLym3kD5A5t2+AwPd+QmGwk2hAjVBsEWb7Euj
VFHvn1RTsYuVzD5RU3EKHc2+wnUNr8P37IF3HKlNJrq/xDFkWF4xmp6rdGsEugfW
EDdZuzDS1Qv5oKJGzBApDkEqrWrsxpfmPCQYYzoriQ==
-----END CERTIFICATE-----
