Certificate:
    Data:
        Version: 3 (0x2)
        Serial Number: 4096 (0x1000)
    Signature Algorithm: sha256WithRSAEncryption
        Issuer: C=CZ, ST=Jihomoravsky kraj, O=OpenStack Common Libraries, OU=Engineering, CN=Intermediate CA 004
        Validity
            Not Before: Aug 14 16:16:15 2018 GMT
            Not After : Sep  4 16:16:15 2018 GMT
        Subject: C=CZ, ST=Jihomoravsky kraj, L=Brno, O=OpenStack Common Libraries, OU=Engineering, CN=Node 004001
        Subject Public Key Info:
            Public Key Algorithm: rsaEncryption
                Public-Key: (2048 bit)
                Modulus:
                    00:a7:a5:59:b4:e8:a5:f8:70:5a:5b:ac:3f:d0:cd:
                    dd:d4:db:5f:d3:bc:f0:4d:a1:f2:02:52:b0:c9:21:
                    71:ca:a4:9a:72:38:34:d3:3f:41:55:2c:ac:cb:6e:
                    31:c5:f7:fb:16:e2:9c:6c:81:98:a6:f6:c2:24:2b:
                    0d:00:a1:b6:2d:fa:ac:9e:af:a2:cb:94:ac:6d:62:
                    17:ad:cd:dc:79:20:6e:ea:fc:3b:cd:79:38:33:17:
                    b4:b0:4d:72:ea:0b:26:e7:43:92:61:86:65:80:f1:
                    fd:8a:c6:d1:10:28:5f:50:a9:2b:72:b3:72:af:d8:
                    7e:b1:3c:47:ea:43:89:82:df:a7:4d:4e:b6:1b:cf:
                    b0:ea:3e:8c:22:c4:a6:e9:8f:29:63:ca:1b:9c:ec:
                    49:14:09:ca:5a:db:4d:9e:1f:97:7d:03:83:b9:9f:
                    2c:96:1a:c1:96:9e:7e:ac:33:9a:03:ef:10:0d:fe:
                    72:42:93:7a:14:8b:a2:80:14:8f:96:bb:9e:9a:fd:
                    6b:c2:10:b1:71:43:6c:31:3c:48:6d:0b:ba:bb:f9:
                    f3:60:83:41:4a:3b:fc:1f:2d:3b:11:3c:95:5b:80:
                    39:6d:2c:a4:6f:71:ff:0a:b2:26:4b:7d:92:bd:30:
                    f2:5f:48:38:4c:91:cb:20:c2:58:3f:53:88:a2:b1:
                    c3:9f
                Exponent: 65537 (0x10001)
        X509v3 extensions:
            X509v3 Basic Constraints: 
                CA:FALSE
            Netscape Cert Type: 
                SSL Client, S/MIME
            Netscape Comment: 
                OpenSSL Generated Client Certificate
            X509v3 Subject Key Identifier: 
                32:12:1B:38:2F:84:F1:76:65:48:C3:5B:3D:E1:5A:6F:EB:40:A8:47
            X509v3 Authority Key Identifier: 
                keyid:36:01:BF:34:4D:50:5E:FA:28:18:58:6B:29:14:B1:FB:E3:07:AE:31

            X509v3 Key Usage: critical
                Digital Signature, Non Repudiation, Key Encipherment
            X509v3 Extended Key Usage: 
                TLS Web Client Authentication, E-mail Protection
    Signature Algorithm: sha256WithRSAEncryption
         4b:f5:6e:78:c6:be:05:34:74:7c:23:fc:a1:84:53:b3:d0:d4:
         04:44:6a:78:7f:55:b1:43:58:99:5e:bc:3e:4b:c9:ff:ec:2b:
         13:44:35:d9:31:a5:08:dd:66:81:43:d7:50:a3:a4:29:4d:30:
         00:9c:af:6b:f4:d0:32:76:4b:a3:44:c7:39:d8:4f:8e:02:c8:
         11:5c:3e:41:17:fc:e6:03:3b:00:ad:b8:cf:c4:e3:b9:f9:78:
         1e:c8:96:16:64:a4:26:53:17:a4:86:aa:56:b4:24:be:80:71:
         ea:ac:47:e8:24:41:38:e5:16:e6:99:b4:de:d5:68:c8:35:08:
         e2:37:11:f2:8f:e2:36:d1:a2:8d:be:a3:98:6e:dc:53:3e:78:
         00:96:8b:8c:d4:9d:45:93:4b:a6:22:0b:72:36:0a:8c:fc:89:
         f2:d7:a0:48:90:c0:3a:41:08:90:01:aa:a9:ba:eb:be:41:e8:
         d0:ee:5a:5b:49:5d:f7:10:05:fa:cb:30:d9:05:bb:f9:d5:f5:
         6e:ee:0a:59:a8:c3:fb:12:ec:c2:56:92:8c:1f:3e:0e:b1:e9:
         53:93:0b:08:06:f8:89:aa:3a:89:3f:f6:4c:a1:05:ad:23:01:
         fe:29:61:a4:3f:3c:70:d6:89:1a:fd:ae:45:35:d4:8b:8d:51:
         7b:10:69:22:85:49:48:9c:4a:ff:e2:ed:05:3b:88:be:38:d8:
         fd:93:31:d9:86:5e:44:af:8c:50:8d:3f:75:57:6c:3f:a7:e9:
         db:f5:0d:3f:6d:6a:14:1e:ef:54:0d:33:9f:c3:22:21:d3:93:
         7a:27:bf:b8:e1:0c:15:99:33:6c:7b:b4:79:72:7b:f4:60:b0:
         e1:be:97:41:e9:d0:0b:22:eb:e1:b4:34:ad:05:16:c3:77:53:
         ef:01:20:af:27:c6:1c:b5:4c:d0:e0:f8:83:78:a5:6a:28:d7:
         5a:ef:ca:65:9c:8d:94:09:48:43:bc:b1:4d:d6:4c:57:cf:42:
         02:9d:1f:ba:d7:d9:cb:46:23:43:59:5e:27:44:0f:a6:57:05:
         1b:40:42:73:92:47:42:bf:ca:9c:5e:1e:b5:ae:fe:19:8f:b3:
         e1:f2:60:af:86:f2:cb:08:ec:ba:76:ba:50:d3:86:ad:26:78:
         48:ef:e4:d6:4d:bc:e0:79:d0:8f:bb:f4:e3:b8:ce:11:bc:17:
         df:64:7c:37:20:15:6a:50:9a:c9:1e:f9:6e:89:90:80:ec:d5:
         40:72:5f:00:1e:af:68:6e:d5:5c:ce:33:12:e8:3c:a9:da:27:
         ea:d9:0b:6a:0d:0d:15:ce:9a:d5:ce:04:d1:c9:7a:a2:b6:61:
         e3:33:ef:33:9f:cc:ad:f2
-----BEGIN CERTIFICATE-----
MIIFTzCCAzegAwIBAgICEAAwDQYJKoZIhvcNAQELBQAwgYIxCzAJBgNVBAYTAkNa
MRowGAYDVQQIDBFKaWhvbW9yYXZza3kga3JhajEjMCEGA1UECgwaT3BlblN0YWNr
IENvbW1vbiBMaWJyYXJpZXMxFDASBgNVBAsMC0VuZ2luZWVyaW5nMRwwGgYDVQQD
DBNJbnRlcm1lZGlhdGUgQ0EgMDA0MB4XDTE4MDgxNDE2MTYxNVoXDTE4MDkwNDE2
MTYxNVowgYkxCzAJBgNVBAYTAkNaMRowGAYDVQQIDBFKaWhvbW9yYXZza3kga3Jh
ajENMAsGA1UEBwwEQnJubzEjMCEGA1UECgwaT3BlblN0YWNrIENvbW1vbiBMaWJy
YXJpZXMxFDASBgNVBAsMC0VuZ2luZWVyaW5nMRQwEgYDVQQDDAtOb2RlIDAwNDAw
MTCCASIwDQYJKoZIhvcNAQEBBQADggEPADCCAQoCggEBAKelWbTopfhwWlusP9DN
3dTbX9O88E2h8gJSsMkhccqkmnI4NNM/QVUsrMtuMcX3+xbinGyBmKb2wiQrDQCh
ti36rJ6vosuUrG1iF63N3Hkgbur8O815ODMXtLBNcuoLJudDkmGGZYDx/YrG0RAo
X1CpK3Kzcq/YfrE8R+pDiYLfp01OthvPsOo+jCLEpumPKWPKG5zsSRQJylrbTZ4f
l30Dg7mfLJYawZaefqwzmgPvEA3+ckKTehSLooAUj5a7npr9a8IQsXFDbDE8SG0L
urv582CDQUo7/B8tOxE8lVuAOW0spG9x/wqyJkt9kr0w8l9IOEyRyyDCWD9TiKKx
w58CAwEAAaOBxTCBwjAJBgNVHRMEAjAAMBEGCWCGSAGG+EIBAQQEAwIFoDAzBglg
hkgBhvhCAQ0EJhYkT3BlblNTTCBHZW5lcmF0ZWQgQ2xpZW50IENlcnRpZmljYXRl
MB0GA1UdDgQWBBQyEhs4L4TxdmVIw1s94Vpv60CoRzAfBgNVHSMEGDAWgBQ2Ab80
TVBe+igYWGspFLH74weuMTAOBgNVHQ8BAf8EBAMCBeAwHQYDVR0lBBYwFAYIKwYB
BQUHAwIGCCsGAQUFBwMEMA0GCSqGSIb3DQEBCwUAA4ICAQBL9W54xr4FNHR8I/yh
hFOz0NQERGp4f1WxQ1iZXrw+S8n/7CsTRDXZMaUI3WaBQ9dQo6QpTTAAnK9r9NAy
dkujRMc52E+OAsgRXD5BF/zmAzsArbjPxOO5+XgeyJYWZKQmUxekhqpWtCS+gHHq
rEfoJEE45RbmmbTe1WjINQjiNxHyj+I20aKNvqOYbtxTPngAlouM1J1Fk0umIgty
NgqM/Iny16BIkMA6QQiQAaqpuuu+QejQ7lpbSV33EAX6yzDZBbv51fVu7gpZqMP7
EuzCVpKMHz4OselTkwsIBviJqjqJP/ZMoQWtIwH+KWGkPzxw1oka/a5FNdSLjVF7
EGkihUlInEr/4u0FO4i+ONj9kzHZhl5Er4xQjT91V2w/p+nb9Q0/bWoUHu9UDTOf
wyIh05N6J7+44QwVmTNse7R5cnv0YLDhvpdB6dALIuvhtDStBRbDd1PvASCvJ8Yc
tUzQ4PiDeKVqKNda78plnI2UCUhDvLFN1kxXz0ICnR+619nLRiNDWV4nRA+mVwUb
QEJzkkdCv8qcXh61rv4Zj7Ph8mCvhvLLCOy6drpQ04atJnhI7+TWTbzgedCPu/Tj
uM4RvBffZHw3IBVqUJrJHvluiZCA7NVAcl8AHq9obtVczjMS6Dyp2ifq2QtqDQ0V
zprVzgTRyXqitmHjM+8zn8yt8g==
-----END CERTIFICATE-----
