Certificate:
    Data:
        Version: 3 (0x2)
        Serial Number: 4100 (0x1004)
    Signature Algorithm: sha256WithRSAEncryption
        Issuer: C=CZ, ST=Jihomoravsky kraj, O=OpenStack Common Libraries, OU=Engineering, CN=Intermediate CA 004
        Validity
            Not Before: Aug 14 16:16:15 2018 GMT
            Not After : Sep  4 16:16:15 2018 GMT
        Subject: C=CZ, ST=Jihomoravsky kraj, L=Brno, O=OpenStack Common Libraries, OU=Engineering, CN=Node 004005
        Subject Public Key Info:
            Public Key Algorithm: rsaEncryption
                Public-Key: (2048 bit)
                Modulus:
                    00:e2:81:57:13:b9:36:04:ce:92:9c:ac:48:0f:e1:
                    36:00:a4:6e:35:d2:7b:01:b5:87:32:c9:d3:47:62:
                    0a:26:3d:6d:39:11:5b:58:04:13:c3:81:ff:94:ff:
                    69:78:2d:cc:7d:28:49:51:46:37:b1:cd:d5:1f:44:
                    a5:b2:dd:c2:df:10:76:83:93:92:d5:cd:38:cf:65:
                    cd:16:25:c6:36:a9:18:e8:b7:b2:3a:13:87:f4:17:
                    1a:74:ed:8e:df:bd:6c:16:56:b4:d4:74:8a:a9:f6:
                    16:85:ed:1e:ac:c8:7b:93:94:a6:3d:66:36:b1:e2:
                    40:a3:83:74:f7:d9:65:b3:06:c8:0c:f0:95:1e:db:
                    2e:03:d2:6f:33:96:de:14:7c:86:cf:28:67:6b:dd:
                    c9:d7:d8:74:c4:fa:90:a5:a8:8b:c8:fc:38:cc:ee:
                    8b:0b:af:d5:77:d1:98:f5:90:80:c9:69:07:b7:ee:
                    32:aa:4d:28:fc:80:f1:e6:9c:92:ee:aa:f8:8b:5e:
                    0f:18:34:3f:1d:e9:5c:ee:5b:1c:4b:37:f8:ff:24:
                    e3:10:f9:76:28:40:a8:0f:15:60:4c:89:29:52:ab:
                    bf:cc:e5:b1:b9:dd:53:06:ce:1f:78:a9:29:ee:e1:
                    85:8c:07:77:06:9f:b9:0a:7f:75:bb:a9:e8:ad:74:
                    a5:53
                Exponent: 65537 (0x10001)
        X509v3 extensions:
            X509v3 Basic Constraints: 
                CA:FALSE
            Netscape Cert Type: 
                SSL Client, S/MIME
            Netscape Comment: 
                OpenSSL Generated Client Certificate
            X509v3 Subject Key Identifier: 
                CF:11:8C:75:AA:8C:72:DA:C3:DC:D1:04:CB:98:6D:5E:55:BA:D8:4F
            X509v3 Authority Key Identifier: 
                keyid:36:01:BF:34:4D:50:5E:FA:28:18:58:6B:29:14:B1:FB:E3:07:AE:31

            X509v3 Key Usage: critical
                Digital Signature, Non Repudiation, Key Encipherment
            X509v3 Extended Key Usage: 
                TLS Web Client Authentication, E-mail Protection
    Signature Algorithm: sha256WithRSAEncryption
         13:ea:e6:b4:e6:86:dc:93:be:77:5b:63:93:55:c1:04:52:f0:
         d7:4f:95:1e:f9:30:f4:a0:f7:28:26:d4:0f:03:10:a2:61:8c:
         8a:76:7a:ef:e9:ef:c6:aa:cb:66:c3:94:b0:46:91:5f:16:89:
         e2:8a:79:5d:24:67:69:dc:08:44:bc:d3:c9:0a:32:12:8d:fb:
         0a:9e:b8:a1:8a:17:1f:c1:e4:2f:37:bc:29:5f:49:a6:ba:e9:
         60:e7:ee:9d:66:ed:d1:7f:a6:00:3d:69:87:9e:86:2f:8c:69:
         8a:63:02:20:b1:4f:2f:f5:c5:89:40:ee:36:7f:3c:aa:38:62:
         84:3e:c9:75:fc:15:0b:8d:ee:3d:bd:68:31:93:ca:c6:59:a2:
         ce:25:10:61:d2:56:41:67:7b:f8:45:df:f0:9c:e4:8a:9d:6d:
         0b:ec:32:75:38:26:9f:95:e5:7d:d3:d0:bd:31:11:91:5b:7b:
         f4:9d:a3:5e:76:8e:3f:2e:3b:2a:39:8c:ae:b1:75:b5:b5:eb:
         5d:1b:d1:b6:e4:5e:dc:43:38:ff:32:52:6f:64:6c:dd:dc:2c:
         3b:b0:90:6a:6c:e2:62:ac:b1:06:89:3a:53:1c:b1:33:91:70:
         43:9d:41:d5:85:ee:6f:8e:f5:34:e3:49:77:56:79:d3:74:3d:
         f9:39:37:6e:97:80:54:98:36:15:c3:4f:23:7c:0c:6e:5c:cf:
         bc:39:fd:4d:3e:d4:b2:76:a4:6f:ae:45:80:73:42:da:6d:8b:
         c4:fd:bc:da:3e:cf:b7:16:5f:9f:bc:83:db:e5:97:8c:68:51:
         ca:df:94:7a:22:e9:30:c4:8d:c7:db:77:f3:ae:0e:4b:c0:92:
         f2:74:06:ac:6b:14:b7:b8:38:ed:28:f6:29:4b:0c:63:8d:f8:
         79:6a:27:de:38:e0:de:c7:72:34:ea:e8:50:cf:41:e4:df:e8:
         d3:99:3a:6b:25:cb:0d:cc:f4:a7:3a:71:d4:8e:e4:e6:a2:a0:
         f7:33:34:95:94:11:f0:35:19:ff:23:bc:2a:6d:b4:cb:2f:d5:
         42:8f:32:34:a1:6b:be:b9:4a:c7:6d:1f:ba:c6:8b:c7:ef:10:
         49:3e:1d:69:e5:2a:cb:c2:ad:a2:34:ea:9d:4b:c2:64:55:8a:
         0b:0a:0b:02:25:53:12:a6:e0:d5:16:91:d5:c0:22:d9:86:53:
         0a:3a:3c:f7:1e:f0:18:89:b6:d2:0d:80:4e:2f:a4:3e:16:2b:
         a5:fb:82:57:28:c3:c2:77:bb:28:53:cd:f4:98:08:0f:e7:34:
         ea:1a:90:00:5c:af:a7:a9:45:18:22:5b:c4:46:5a:56:4a:10:
         7f:9f:5e:02:e8:20:16:a6
-----BEGIN CERTIFICATE-----
MIIFTzCCAzegAwIBAgICEAQwDQYJKoZIhvcNAQELBQAwgYIxCzAJBgNVBAYTAkNa
MRowGAYDVQQIDBFKaWhvbW9yYXZza3kga3JhajEjMCEGA1UECgwaT3BlblN0YWNr
IENvbW1vbiBMaWJyYXJpZXMxFDASBgNVBAsMC0VuZ2luZWVyaW5nMRwwGgYDVQQD
DBNJbnRlcm1lZGlhdGUgQ0EgMDA0MB4XDTE4MDgxNDE2MTYxNVoXDTE4MDkwNDE2
MTYxNVowgYkxCzAJBgNVBAYTAkNaMRowGAYDVQQIDBFKaWhvbW9yYXZza3kga3Jh
ajENMAsGA1UEBwwEQnJubzEjMCEGA1UECgwaT3BlblN0YWNrIENvbW1vbiBMaWJy
YXJpZXMxFDASBgNVBAsMC0VuZ2luZWVyaW5nMRQwEgYDVQQDDAtOb2RlIDAwNDAw
NTCCASIwDQYJKoZIhvcNAQEBBQADggEPADCCAQoCggEBAOKBVxO5NgTOkpysSA/h
NgCkbjXSewG1hzLJ00diCiY9bTkRW1gEE8OB/5T/aXgtzH0oSVFGN7HN1R9EpbLd
wt8QdoOTktXNOM9lzRYlxjapGOi3sjoTh/QXGnTtjt+9bBZWtNR0iqn2FoXtHqzI
e5OUpj1mNrHiQKODdPfZZbMGyAzwlR7bLgPSbzOW3hR8hs8oZ2vdydfYdMT6kKWo
i8j8OMzuiwuv1XfRmPWQgMlpB7fuMqpNKPyA8eacku6q+IteDxg0Px3pXO5bHEs3
+P8k4xD5dihAqA8VYEyJKVKrv8zlsbndUwbOH3ipKe7hhYwHdwafuQp/dbup6K10
pVMCAwEAAaOBxTCBwjAJBgNVHRMEAjAAMBEGCWCGSAGG+EIBAQQEAwIFoDAzBglg
hkgBhvhCAQ0EJhYkT3BlblNTTCBHZW5lcmF0ZWQgQ2xpZW50IENlcnRpZmljYXRl
MB0GA1UdDgQWBBTPEYx1qoxy2sPc0QTLmG1eVbrYTzAfBgNVHSMEGDAWgBQ2Ab80
TVBe+igYWGspFLH74weuMTAOBgNVHQ8BAf8EBAMCBeAwHQYDVR0lBBYwFAYIKwYB
BQUHAwIGCCsGAQUFBwMEMA0GCSqGSIb3DQEBCwUAA4ICAQAT6ua05obck753W2OT
VcEEUvDXT5Ue+TD0oPcoJtQPAxCiYYyKdnrv6e/Gqstmw5SwRpFfFoniinldJGdp
3AhEvNPJCjISjfsKnrihihcfweQvN7wpX0mmuulg5+6dZu3Rf6YAPWmHnoYvjGmK
YwIgsU8v9cWJQO42fzyqOGKEPsl1/BULje49vWgxk8rGWaLOJRBh0lZBZ3v4Rd/w
nOSKnW0L7DJ1OCafleV909C9MRGRW3v0naNedo4/LjsqOYyusXW1tetdG9G25F7c
Qzj/MlJvZGzd3Cw7sJBqbOJirLEGiTpTHLEzkXBDnUHVhe5vjvU040l3VnnTdD35
OTdul4BUmDYVw08jfAxuXM+8Of1NPtSydqRvrkWAc0LabYvE/bzaPs+3Fl+fvIPb
5ZeMaFHK35R6IukwxI3H23fzrg5LwJLydAasaxS3uDjtKPYpSwxjjfh5aifeOODe
x3I06uhQz0Hk3+jTmTprJcsNzPSnOnHUjuTmoqD3MzSVlBHwNRn/I7wqbbTLL9VC
jzI0oWu+uUrHbR+6xovH7xBJPh1p5SrLwq2iNOqdS8JkVYoLCgsCJVMSpuDVFpHV
wCLZhlMKOjz3HvAYibbSDYBOL6Q+Fiul+4JXKMPCd7soU830mAgP5zTqGpAAXK+n
qUUYIlvERlpWShB/n14C6CAWpg==
-----END CERTIFICATE-----
