Certificate:
    Data:
        Version: 3 (0x2)
        Serial Number: 4098 (0x1002)
    Signature Algorithm: sha256WithRSAEncryption
        Issuer: C=CZ, ST=Jihomoravsky kraj, O=OpenStack Common Libraries, OU=Engineering, CN=Intermediate CA 004
        Validity
            Not Before: Aug 14 16:16:15 2018 GMT
            Not After : Sep  4 16:16:15 2018 GMT
        Subject: C=CZ, ST=Jihomoravsky kraj, L=Brno, O=OpenStack Common Libraries, OU=Engineering, CN=Node 004003
        Subject Public Key Info:
            Public Key Algorithm: rsaEncryption
                Public-Key: (2048 bit)
                Modulus:
                    00:9d:fd:2f:6f:ce:72:46:78:13:a0:2f:f0:47:ea:
                    1b:c7:f4:c3:8a:14:8f:e8:54:18:ad:bc:c0:62:88:
                    1b:d5:59:eb:53:9b:f5:12:c7:f5:59:d3:fb:db:32:
                    46:6c:17:26:a0:fb:2f:7a:a6:43:8c:95:58:c7:b6:
                    6a:67:40:e3:db:f7:68:cd:20:15:a2:6e:f2:98:7b:
                    a0:fc:7c:4d:4b:22:34:dc:f0:da:c6:78:1a:90:d9:
                    56:06:33:f0:bd:3f:a0:e5:90:5f:af:e2:45:8d:cf:
                    12:de:87:f3:7e:f4:50:f2:ba:1c:9e:cf:de:ac:72:
                    0b:50:83:de:d4:42:56:70:e5:d7:84:13:0f:df:26:
                    d4:dc:5a:db:05:ec:86:2e:d1:55:7c:eb:7f:8d:ae:
                    ec:a2:10:40:d6:39:f3:15:d3:58:00:80:40:cd:37:
                    c0:78:c4:d1:a9:8e:98:25:52:ba:52:2b:56:1c:11:
                    45:a8:57:a1:8d:9a:69:80:79:c0:80:eb:14:51:87:
                    29:2a:11:f4:4e:21:e4:b9:df:3a:91:b9:75:b8:e8:
                    bd:0b:61:22:c6:a2:96:b4:6a:76:89:86:e7:d1:5e:
                    e0:b7:bb:39:d0:04:d3:73:99:0a:4a:a1:07:98:e1:
                    84:33:83:56:e7:7b:b2:68:0d:d0:16:f6:a0:94:81:
                    b5:d1
                Exponent: 65537 (0x10001)
        X509v3 extensions:
            X509v3 Basic Constraints: 
                CA:FALSE
            Netscape Cert Type: 
                SSL Client, S/MIME
            Netscape Comment: 
                OpenSSL Generated Client Certificate
            X509v3 Subject Key Identifier: 
                E8:6F:29:66:4D:89:6D:7B:BE:A9:85:4B:CC:56:46:BC:A8:73:62:8D
            X509v3 Authority Key Identifier: 
                keyid:36:01:BF:34:4D:50:5E:FA:28:18:58:6B:29:14:B1:FB:E3:07:AE:31

            X509v3 Key Usage: critical
                Digital Signature, Non Repudiation, Key Encipherment
            X509v3 Extended Key Usage: 
                TLS Web Client Authentication, E-mail Protection
    Signature Algorithm: sha256WithRSAEncryption
         89:50:1d:5e:13:61:57:f4:6d:99:dc:8e:85:46:7f:a6:42:f2:
         aa:a4:19:71:e4:ce:0b:51:92:6e:b3:1b:a3:4e:d0:8e:b6:96:
         42:f0:2e:20:47:65:ce:3e:b4:bd:05:00:6f:9d:88:c6:78:c1:
         66:6c:81:6b:0f:82:a9:e7:15:3a:e0:81:ac:03:88:32:2e:b1:
         0f:6d:bb:b4:6a:40:eb:fe:c7:42:75:7b:ec:a2:bc:c4:80:cd:
         63:79:bc:f2:fb:a8:bd:c3:8a:0a:75:21:60:22:36:68:8b:6d:
         67:79:47:c7:41:df:c4:e3:13:96:19:cb:5a:00:36:75:87:f9:
         29:09:41:6f:0f:cf:aa:77:bc:90:47:c5:6e:8e:ab:bc:4c:02:
         0c:de:cc:86:21:49:80:a9:65:67:43:6c:2f:31:c6:89:81:53:
         a9:d8:15:92:4b:13:7c:bd:f9:aa:91:b2:71:d4:89:ec:d8:01:
         17:c0:00:35:0a:05:92:95:bf:d8:3a:a0:ac:a7:f3:36:b8:fc:
         79:bc:63:db:1a:c2:26:66:93:d4:e2:dc:b1:8d:e2:ba:d0:0f:
         98:a1:df:2a:06:94:52:31:76:92:0c:88:32:88:06:74:bc:5f:
         02:f0:36:08:ff:f9:f5:5f:27:1a:32:95:9d:31:b0:dc:3a:6d:
         ea:3f:ce:4a:dc:8a:78:b7:6f:cb:ce:1d:d6:19:7d:a0:f1:76:
         94:0a:ef:76:1a:6d:63:85:2c:40:70:8a:50:78:b7:4a:20:46:
         63:9c:b4:62:11:cd:5b:b2:e1:0d:ed:6a:3b:49:c7:3c:c2:50:
         8c:6f:32:f0:7d:f1:70:2f:d5:4b:2f:d0:17:d9:41:b8:c5:1e:
         c5:72:93:3e:d3:19:05:f6:28:bc:01:0a:d0:1e:d8:13:90:3e:
         53:bd:1a:8b:64:be:cb:02:ac:3b:3e:1d:9c:d6:9b:52:9a:f1:
         9d:a8:ec:47:3f:60:0d:47:49:bf:de:87:6b:f2:62:4f:ce:30:
         a3:8d:dc:e0:41:49:2d:d9:67:cb:f8:dc:e6:07:68:af:d6:51:
         6f:2a:4b:15:f3:64:6f:c8:42:64:65:83:66:df:5b:0b:ca:bc:
         d9:d4:46:3a:ae:b6:4d:d1:f4:e2:b2:bc:f4:17:2a:9d:54:3f:
         68:03:72:31:39:6c:a2:76:24:3e:d9:9f:97:a0:eb:7b:16:4d:
         8b:80:2d:9a:63:87:41:e0:0d:6c:bc:ae:ea:c0:01:75:39:cb:
         03:64:f2:9c:66:2b:9a:68:a8:f9:09:a8:07:03:30:8a:c6:e1:
         92:28:21:01:dc:e1:16:1e:14:72:03:b7:18:78:23:0c:98:90:
         89:6c:2e:a3:9a:98:e7:e7
-----BEGIN CERTIFICATE-----
MIIFTzCCAzegAwIBAgICEAIwDQYJKoZIhvcNAQELBQAwgYIxCzAJBgNVBAYTAkNa
MRowGAYDVQQIDBFKaWhvbW9yYXZza3kga3JhajEjMCEGA1UECgwaT3BlblN0YWNr
IENvbW1vbiBMaWJyYXJpZXMxFDASBgNVBAsMC0VuZ2luZWVyaW5nMRwwGgYDVQQD
DBNJbnRlcm1lZGlhdGUgQ0EgMDA0MB4XDTE4MDgxNDE2MTYxNVoXDTE4MDkwNDE2
MTYxNVowgYkxCzAJBgNVBAYTAkNaMRowGAYDVQQIDBFKaWhvbW9yYXZza3kga3Jh
ajENMAsGA1UEBwwEQnJubzEjMCEGA1UECgwaT3BlblN0YWNrIENvbW1vbiBMaWJy
YXJpZXMxFDASBgNVBAsMC0VuZ2luZWVyaW5nMRQwEgYDVQQDDAtOb2RlIDAwNDAw
MzCCASIwDQYJKoZIhvcNAQEBBQADggEPADCCAQoCggEBAJ39L2/OckZ4E6Av8Efq
G8f0w4oUj+hUGK28wGKIG9VZ61Ob9RLH9VnT+9syRmwXJqD7L3qmQ4yVWMe2amdA
49v3aM0gFaJu8ph7oPx8TUsiNNzw2sZ4GpDZVgYz8L0/oOWQX6/iRY3PEt6H8370
UPK6HJ7P3qxyC1CD3tRCVnDl14QTD98m1Nxa2wXshi7RVXzrf42u7KIQQNY58xXT
WACAQM03wHjE0amOmCVSulIrVhwRRahXoY2aaYB5wIDrFFGHKSoR9E4h5LnfOpG5
dbjovQthIsailrRqdomG59Fe4Le7OdAE03OZCkqhB5jhhDODVud7smgN0Bb2oJSB
tdECAwEAAaOBxTCBwjAJBgNVHRMEAjAAMBEGCWCGSAGG+EIBAQQEAwIFoDAzBglg
hkgBhvhCAQ0EJhYkT3BlblNTTCBHZW5lcmF0ZWQgQ2xpZW50IENlcnRpZmljYXRl
MB0GA1UdDgQWBBTobylmTYlte76phUvMVka8qHNijTAfBgNVHSMEGDAWgBQ2Ab80
TVBe+igYWGspFLH74weuMTAOBgNVHQ8BAf8EBAMCBeAwHQYDVR0lBBYwFAYIKwYB
BQUHAwIGCCsGAQUFBwMEMA0GCSqGSIb3DQEBCwUAA4ICAQCJUB1eE2FX9G2Z3I6F
Rn+mQvKqpBlx5M4LUZJusxujTtCOtpZC8C4gR2XOPrS9BQBvnYjGeMFmbIFrD4Kp
5xU64IGsA4gyLrEPbbu0akDr/sdCdXvsorzEgM1jebzy+6i9w4oKdSFgIjZoi21n
eUfHQd/E4xOWGctaADZ1h/kpCUFvD8+qd7yQR8Vujqu8TAIM3syGIUmAqWVnQ2wv
McaJgVOp2BWSSxN8vfmqkbJx1Ins2AEXwAA1CgWSlb/YOqCsp/M2uPx5vGPbGsIm
ZpPU4tyxjeK60A+Yod8qBpRSMXaSDIgyiAZ0vF8C8DYI//n1XycaMpWdMbDcOm3q
P85K3Ip4t2/Lzh3WGX2g8XaUCu92Gm1jhSxAcIpQeLdKIEZjnLRiEc1bsuEN7Wo7
Scc8wlCMbzLwffFwL9VLL9AX2UG4xR7FcpM+0xkF9ii8AQrQHtgTkD5TvRqLZL7L
Aqw7Ph2c1ptSmvGdqOxHP2ANR0m/3odr8mJPzjCjjdzgQUkt2WfL+NzmB2iv1lFv
KksV82RvyEJkZYNm31sLyrzZ1EY6rrZN0fTisrz0FyqdVD9oA3IxOWyidiQ+2Z+X
oOt7Fk2LgC2aY4dB4A1svK7qwAF1OcsDZPKcZiuaaKj5CagHAzCKxuGSKCEB3OEW
HhRyA7cYeCMMmJCJbC6jmpjn5w==
-----END CERTIFICATE-----
