Certificate:
    Data:
        Version: 3 (0x2)
        Serial Number: 4096 (0x1000)
    Signature Algorithm: sha256WithRSAEncryption
        Issuer: C=CZ, ST=Jihomoravsky kraj, O=OpenStack Common Libraries, OU=Engineering, CN=Intermediate CA 004
        Validity
            Not Before: Aug 10 16:28:30 2018 GMT
            Not After : Aug 31 16:28:30 2018 GMT
        Subject: C=CZ, ST=Jihomoravsky kraj, L=Brno, O=OpenStack Common Libraries, OU=Engineering, CN=Node 004001
        Subject Public Key Info:
            Public Key Algorithm: rsaEncryption
                Public-Key: (2048 bit)
                Modulus:
                    00:a1:5a:b9:d9:3c:b7:7b:45:a9:5c:34:67:26:47:
                    95:4c:62:a4:69:19:a8:4f:e3:2d:ce:e2:95:40:ff:
                    90:e3:5f:35:d3:7b:67:63:4d:f5:b7:b9:d2:b4:01:
                    2a:41:11:a8:f4:e8:17:8e:08:2a:aa:ad:bb:2e:2f:
                    0d:52:b2:42:f1:00:be:f3:6a:9c:eb:b3:19:47:ce:
                    fc:1a:98:d4:bc:00:f2:31:ed:dc:3e:60:99:6f:0e:
                    18:4a:ba:8d:5b:7e:a9:f2:c7:0d:36:fb:78:27:ff:
                    ad:75:9f:1c:e9:09:55:71:b9:47:ca:5b:6b:e7:fb:
                    49:1c:69:ec:d6:bf:da:44:18:78:86:fa:e4:99:1e:
                    b0:db:00:b3:c0:b1:2b:a4:fc:6d:0f:04:2e:a3:62:
                    25:de:d6:f5:39:d7:f3:00:79:ad:1b:e0:9b:67:e2:
                    12:47:60:62:4a:51:46:54:f9:8b:9b:4e:64:11:9c:
                    1a:10:78:17:bf:07:94:94:4f:76:85:dd:dc:2d:0d:
                    a7:f4:3a:d8:d9:80:b3:37:df:f6:bd:fb:f4:d2:13:
                    5d:42:4c:d8:b0:c7:d4:62:b4:f2:b4:e8:e0:30:7a:
                    02:29:73:48:b8:83:4d:90:a6:e1:ae:15:04:5e:d6:
                    e4:73:2c:a9:56:e2:2d:53:df:98:b9:0c:3c:dd:20:
                    56:87
                Exponent: 65537 (0x10001)
        X509v3 extensions:
            X509v3 Basic Constraints: 
                CA:FALSE
            Netscape Cert Type: 
                SSL Client, S/MIME
            Netscape Comment: 
                OpenSSL Generated Client Certificate
            X509v3 Subject Key Identifier: 
                36:2C:BB:E0:5C:66:CA:76:5D:99:38:30:D0:32:06:9B:39:36:F9:5D
            X509v3 Authority Key Identifier: 
                keyid:98:04:B2:A9:25:AE:34:23:10:BA:50:75:EE:E4:A0:0C:2B:41:6E:AE

            X509v3 Key Usage: critical
                Digital Signature, Non Repudiation, Key Encipherment
            X509v3 Extended Key Usage: 
                TLS Web Client Authentication, E-mail Protection
    Signature Algorithm: sha256WithRSAEncryption
         94:b5:7d:89:94:d3:c9:7a:e6:43:7a:96:d2:ad:e2:81:51:b1:
         2b:3b:d1:bc:ed:ba:66:87:f5:a2:15:3c:69:af:23:d7:63:5b:
         ef:fe:23:b9:36:c4:ea:aa:d3:46:dc:c6:d7:4b:19:1e:53:1e:
         45:91:bb:be:d8:b9:13:11:a3:f7:d2:b4:ab:cb:05:39:47:aa:
         71:fb:8f:1c:34:96:1b:4b:f9:8b:73:ed:15:0a:22:65:17:7b:
         b8:2f:aa:0e:ca:80:be:dc:b3:e3:2c:b2:d9:d1:0d:df:6c:db:
         ff:dd:7b:6a:84:1e:42:6e:b1:1b:8a:ba:68:39:24:15:c3:b6:
         46:67:f1:43:aa:3d:4d:d2:bc:76:57:77:18:47:11:bc:ff:bc:
         b1:61:d6:11:08:8d:d9:ee:2e:22:84:f4:fd:aa:19:aa:f9:2b:
         82:9d:22:59:2f:44:ad:83:68:e1:06:f7:e1:f0:ef:f0:c6:0a:
         cd:8c:6e:4d:e7:17:88:46:b5:0f:3c:95:9f:30:b0:15:18:76:
         8b:9d:28:07:1c:65:5b:96:05:94:87:72:59:14:68:1d:0d:b4:
         85:7b:37:ed:e3:c4:ed:9d:52:87:24:93:8e:cc:9f:0f:c5:0f:
         7d:9d:9d:f5:75:9e:02:77:ca:d0:10:d9:ee:0a:01:cc:75:f0:
         16:69:aa:93
-----BEGIN CERTIFICATE-----
MIIETzCCAzegAwIBAgICEAAwDQYJKoZIhvcNAQELBQAwgYIxCzAJBgNVBAYTAkNa
MRowGAYDVQQIDBFKaWhvbW9yYXZza3kga3JhajEjMCEGA1UECgwaT3BlblN0YWNr
IENvbW1vbiBMaWJyYXJpZXMxFDASBgNVBAsMC0VuZ2luZWVyaW5nMRwwGgYDVQQD
DBNJbnRlcm1lZGlhdGUgQ0EgMDA0MB4XDTE4MDgxMDE2MjgzMFoXDTE4MDgzMTE2
MjgzMFowgYkxCzAJBgNVBAYTAkNaMRowGAYDVQQIDBFKaWhvbW9yYXZza3kga3Jh
ajENMAsGA1UEBwwEQnJubzEjMCEGA1UECgwaT3BlblN0YWNrIENvbW1vbiBMaWJy
YXJpZXMxFDASBgNVBAsMC0VuZ2luZWVyaW5nMRQwEgYDVQQDDAtOb2RlIDAwNDAw
MTCCASIwDQYJKoZIhvcNAQEBBQADggEPADCCAQoCggEBAKFaudk8t3tFqVw0ZyZH
lUxipGkZqE/jLc7ilUD/kONfNdN7Z2NN9be50rQBKkERqPToF44IKqqtuy4vDVKy
QvEAvvNqnOuzGUfO/BqY1LwA8jHt3D5gmW8OGEq6jVt+qfLHDTb7eCf/rXWfHOkJ
VXG5R8pba+f7SRxp7Na/2kQYeIb65JkesNsAs8CxK6T8bQ8ELqNiJd7W9TnX8wB5
rRvgm2fiEkdgYkpRRlT5i5tOZBGcGhB4F78HlJRPdoXd3C0Np/Q62NmAszff9r37
9NITXUJM2LDH1GK08rTo4DB6AilzSLiDTZCm4a4VBF7W5HMsqVbiLVPfmLkMPN0g
VocCAwEAAaOBxTCBwjAJBgNVHRMEAjAAMBEGCWCGSAGG+EIBAQQEAwIFoDAzBglg
hkgBhvhCAQ0EJhYkT3BlblNTTCBHZW5lcmF0ZWQgQ2xpZW50IENlcnRpZmljYXRl
MB0GA1UdDgQWBBQ2LLvgXGbKdl2ZODDQMgabOTb5XTAfBgNVHSMEGDAWgBSYBLKp
Ja40IxC6UHXu5KAMK0FurjAOBgNVHQ8BAf8EBAMCBeAwHQYDVR0lBBYwFAYIKwYB
BQUHAwIGCCsGAQUFBwMEMA0GCSqGSIb3DQEBCwUAA4IBAQCUtX2JlNPJeuZDepbS
reKBUbErO9G87bpmh/WiFTxpryPXY1vv/iO5NsTqqtNG3MbXSxkeUx5Fkbu+2LkT
EaP30rSrywU5R6px+48cNJYbS/mLc+0VCiJlF3u4L6oOyoC+3LPjLLLZ0Q3fbNv/
3XtqhB5CbrEbirpoOSQVw7ZGZ/FDqj1N0rx2V3cYRxG8/7yxYdYRCI3Z7i4ihPT9
qhmq+SuCnSJZL0Stg2jhBvfh8O/wxgrNjG5N5xeIRrUPPJWfMLAVGHaLnSgHHGVb
lgWUh3JZFGgdDbSFezft48TtnVKHJJOOzJ8PxQ99nZ31dZ4Cd8rQENnuCgHMdfAW
aaqT
-----END CERTIFICATE-----
