Certificate:
    Data:
        Version: 3 (0x2)
        Serial Number: 4098 (0x1002)
    Signature Algorithm: sha256WithRSAEncryption
        Issuer: C=CZ, ST=Jihomoravsky kraj, O=OpenStack Common Libraries, OU=Engineering, CN=Intermediate CA 004
        Validity
            Not Before: Aug 10 16:28:32 2018 GMT
            Not After : Aug 31 16:28:32 2018 GMT
        Subject: C=CZ, ST=Jihomoravsky kraj, L=Brno, O=OpenStack Common Libraries, OU=Engineering, CN=Node 004003
        Subject Public Key Info:
            Public Key Algorithm: rsaEncryption
                Public-Key: (2048 bit)
                Modulus:
                    00:ae:55:31:15:8e:ef:01:11:c6:c6:f5:72:70:62:
                    4b:88:bc:3c:16:72:d2:53:79:42:85:f7:f6:17:3d:
                    cf:63:23:af:19:8a:29:af:b1:2a:a3:cb:43:4e:b1:
                    09:8b:5f:03:6c:b6:6f:3a:29:c7:ff:48:7a:20:73:
                    66:c6:5e:e0:74:a4:f9:bf:35:f9:53:b3:40:40:20:
                    f9:b4:d6:8c:c0:71:b3:0e:ea:86:d0:79:1f:72:93:
                    9f:26:de:dd:15:b8:ee:ff:71:8f:de:39:bd:34:58:
                    ba:52:81:9a:bc:80:97:3c:86:6e:fa:51:d7:08:3d:
                    c0:98:5a:ed:88:e5:03:9d:33:75:45:e6:8a:33:70:
                    10:93:e2:19:2a:40:20:a1:e5:09:46:5e:fe:07:c6:
                    43:ed:19:e2:eb:6d:1f:7a:bb:60:d7:14:89:62:8b:
                    8e:75:6d:19:1d:cb:7c:a8:e9:8d:bb:e8:e6:38:97:
                    a4:75:ab:6a:c7:b1:1b:ca:ec:ed:22:dd:29:c2:d6:
                    c7:61:93:17:6d:d9:8d:4f:99:21:ea:70:8e:ce:c7:
                    a7:ec:6f:6f:fc:0d:86:6f:6c:2c:00:99:81:ac:ce:
                    3a:a8:38:23:c0:d6:2c:2e:1d:c0:de:16:e2:97:2a:
                    6c:d0:84:8b:f5:98:62:71:75:d6:d6:0a:8b:c9:c4:
                    64:e1
                Exponent: 65537 (0x10001)
        X509v3 extensions:
            X509v3 Basic Constraints: 
                CA:FALSE
            Netscape Cert Type: 
                SSL Client, S/MIME
            Netscape Comment: 
                OpenSSL Generated Client Certificate
            X509v3 Subject Key Identifier: 
                3C:AB:D8:04:7C:9B:6C:BF:34:6A:1E:B0:89:71:35:E4:0B:19:CE:49
            X509v3 Authority Key Identifier: 
                keyid:98:04:B2:A9:25:AE:34:23:10:BA:50:75:EE:E4:A0:0C:2B:41:6E:AE

            X509v3 Key Usage: critical
                Digital Signature, Non Repudiation, Key Encipherment
            X509v3 Extended Key Usage: 
                TLS Web Client Authentication, E-mail Protection
    Signature Algorithm: sha256WithRSAEncryption
         9b:bd:67:a0:f7:fd:46:69:c3:83:7d:7f:47:83:9c:31:6f:05:
         f5:81:2e:fa:ed:2c:dd:ed:dd:b7:1f:cc:e0:ef:7d:2f:d8:b0:
         93:53:bf:96:02:92:53:98:23:3c:fa:10:ff:37:66:b4:a6:ff:
         2a:58:d7:1f:63:4a:9f:be:c3:fc:0e:95:f8:01:9d:ac:67:59:
         27:7d:07:f5:71:a9:68:b9:f8:51:a0:9f:94:88:ab:04:39:f9:
         b7:42:53:18:70:d3:a5:ad:10:c9:46:26:85:d4:74:56:f0:1e:
         0a:83:f0:30:b0:84:04:01:d6:2f:73:9c:5f:4a:a7:14:da:39:
         88:a2:6d:81:b3:15:c8:a6:0c:73:94:9d:21:e5:37:2e:ab:98:
         9a:b2:ac:36:36:fa:59:cb:76:f3:b7:18:eb:e2:35:ad:f4:c7:
         7d:ae:7f:d7:e8:19:03:e9:70:8e:5b:90:62:e1:1b:28:e5:fc:
         fa:98:3a:14:cf:d3:ff:da:c8:b8:c3:6a:c7:77:3a:b1:4a:cf:
         49:e6:f1:0f:67:30:e4:db:cc:4d:58:c1:fb:31:f4:25:e5:b5:
         c6:e1:ae:24:c8:e1:30:26:81:02:92:0d:02:01:78:9f:a4:d9:
         7a:9d:16:04:07:11:f0:3b:f6:dd:fe:f8:17:60:95:aa:a8:51:
         91:34:89:49
-----BEGIN CERTIFICATE-----
MIIETzCCAzegAwIBAgICEAIwDQYJKoZIhvcNAQELBQAwgYIxCzAJBgNVBAYTAkNa
MRowGAYDVQQIDBFKaWhvbW9yYXZza3kga3JhajEjMCEGA1UECgwaT3BlblN0YWNr
IENvbW1vbiBMaWJyYXJpZXMxFDASBgNVBAsMC0VuZ2luZWVyaW5nMRwwGgYDVQQD
DBNJbnRlcm1lZGlhdGUgQ0EgMDA0MB4XDTE4MDgxMDE2MjgzMloXDTE4MDgzMTE2
MjgzMlowgYkxCzAJBgNVBAYTAkNaMRowGAYDVQQIDBFKaWhvbW9yYXZza3kga3Jh
ajENMAsGA1UEBwwEQnJubzEjMCEGA1UECgwaT3BlblN0YWNrIENvbW1vbiBMaWJy
YXJpZXMxFDASBgNVBAsMC0VuZ2luZWVyaW5nMRQwEgYDVQQDDAtOb2RlIDAwNDAw
MzCCASIwDQYJKoZIhvcNAQEBBQADggEPADCCAQoCggEBAK5VMRWO7wERxsb1cnBi
S4i8PBZy0lN5QoX39hc9z2MjrxmKKa+xKqPLQ06xCYtfA2y2bzopx/9IeiBzZsZe
4HSk+b81+VOzQEAg+bTWjMBxsw7qhtB5H3KTnybe3RW47v9xj945vTRYulKBmryA
lzyGbvpR1wg9wJha7YjlA50zdUXmijNwEJPiGSpAIKHlCUZe/gfGQ+0Z4uttH3q7
YNcUiWKLjnVtGR3LfKjpjbvo5jiXpHWrasexG8rs7SLdKcLWx2GTF23ZjU+ZIepw
js7Hp+xvb/wNhm9sLACZgazOOqg4I8DWLC4dwN4W4pcqbNCEi/WYYnF11tYKi8nE
ZOECAwEAAaOBxTCBwjAJBgNVHRMEAjAAMBEGCWCGSAGG+EIBAQQEAwIFoDAzBglg
hkgBhvhCAQ0EJhYkT3BlblNTTCBHZW5lcmF0ZWQgQ2xpZW50IENlcnRpZmljYXRl
MB0GA1UdDgQWBBQ8q9gEfJtsvzRqHrCJcTXkCxnOSTAfBgNVHSMEGDAWgBSYBLKp
Ja40IxC6UHXu5KAMK0FurjAOBgNVHQ8BAf8EBAMCBeAwHQYDVR0lBBYwFAYIKwYB
BQUHAwIGCCsGAQUFBwMEMA0GCSqGSIb3DQEBCwUAA4IBAQCbvWeg9/1GacODfX9H
g5wxbwX1gS767Szd7d23H8zg730v2LCTU7+WApJTmCM8+hD/N2a0pv8qWNcfY0qf
vsP8DpX4AZ2sZ1knfQf1caloufhRoJ+UiKsEOfm3QlMYcNOlrRDJRiaF1HRW8B4K
g/AwsIQEAdYvc5xfSqcU2jmIom2BsxXIpgxzlJ0h5Tcuq5iasqw2NvpZy3bztxjr
4jWt9Md9rn/X6BkD6XCOW5Bi4Rso5fz6mDoUz9P/2si4w2rHdzqxSs9J5vEPZzDk
28xNWMH7MfQl5bXG4a4kyOEwJoECkg0CAXifpNl6nRYEBxHwO/bd/vgXYJWqqFGR
NIlJ
-----END CERTIFICATE-----
