Certificate:
    Data:
        Version: 3 (0x2)
        Serial Number: 4099 (0x1003)
    Signature Algorithm: sha256WithRSAEncryption
        Issuer: C=CZ, ST=Jihomoravsky kraj, O=OpenStack Common Libraries, OU=Engineering, CN=Intermediate CA 004
        Validity
            Not Before: Aug 10 16:28:33 2018 GMT
            Not After : Aug 31 16:28:33 2018 GMT
        Subject: C=CZ, ST=Jihomoravsky kraj, L=Brno, O=OpenStack Common Libraries, OU=Engineering, CN=Node 004004
        Subject Public Key Info:
            Public Key Algorithm: rsaEncryption
                Public-Key: (2048 bit)
                Modulus:
                    00:a4:5a:f2:4e:0e:59:e1:01:8c:11:d2:7b:83:f2:
                    d3:e8:6c:4c:6c:b7:b1:90:25:6c:6e:dd:57:4d:1a:
                    58:00:29:fc:8f:01:04:f2:c2:7d:35:12:48:84:34:
                    e2:da:45:94:ae:78:35:d0:cc:1a:4e:43:8f:5f:78:
                    ac:87:cc:ca:d3:09:33:4d:f8:34:8a:5b:ab:f7:c6:
                    9f:1a:9f:47:16:dd:d2:50:25:0b:56:0c:93:1e:1e:
                    0c:d7:e8:5e:d6:ff:bd:96:6a:8d:41:34:0d:c2:08:
                    d9:9b:a8:a5:9e:24:04:85:f8:aa:14:32:02:a1:c4:
                    dc:d2:aa:b9:bf:08:73:0c:9f:10:f5:05:be:00:e0:
                    08:3a:4f:4c:84:1c:48:5d:e6:13:73:22:aa:25:b4:
                    8a:26:10:72:17:3e:e5:ab:ff:64:21:b9:66:64:9f:
                    5c:92:29:a0:40:fb:92:44:f7:ae:19:c5:92:54:c1:
                    82:e8:f1:4a:ed:23:10:fd:e0:93:6f:0e:a8:2b:6f:
                    7d:36:1a:3e:13:88:49:69:3e:5c:dc:b9:c2:56:76:
                    76:0c:42:e7:b3:87:52:fe:45:41:55:bc:7b:c2:3b:
                    cd:9e:1b:8d:56:61:e7:2e:0e:dc:9a:bf:a4:c8:42:
                    cb:2b:6e:e2:a1:66:9e:8c:18:12:99:54:1c:12:71:
                    42:55
                Exponent: 65537 (0x10001)
        X509v3 extensions:
            X509v3 Basic Constraints: 
                CA:FALSE
            Netscape Cert Type: 
                SSL Client, S/MIME
            Netscape Comment: 
                OpenSSL Generated Client Certificate
            X509v3 Subject Key Identifier: 
                AD:B0:DF:5A:D6:3C:F3:6E:9C:33:06:D2:84:CC:86:1C:60:46:A1:51
            X509v3 Authority Key Identifier: 
                keyid:98:04:B2:A9:25:AE:34:23:10:BA:50:75:EE:E4:A0:0C:2B:41:6E:AE

            X509v3 Key Usage: critical
                Digital Signature, Non Repudiation, Key Encipherment
            X509v3 Extended Key Usage: 
                TLS Web Client Authentication, E-mail Protection
    Signature Algorithm: sha256WithRSAEncryption
         5e:bf:5d:4a:5e:f6:4f:18:c4:0e:8c:e3:c3:51:26:24:2a:ff:
         d5:0f:ba:1a:7e:61:0b:d0:1f:b5:5e:d0:5b:4e:d1:fa:0b:d2:
         d4:ae:5a:65:e5:b4:94:44:02:2e:88:25:ed:e0:bb:1b:15:1d:
         f5:53:a7:24:c2:08:ec:9b:20:52:59:e3:dd:e1:12:0c:95:aa:
         e8:32:5c:87:d5:28:d2:6f:23:07:2d:c8:31:24:7d:e3:40:4a:
         72:86:fc:7d:76:99:0c:a9:ce:a1:24:06:8c:b5:3c:8d:fe:30:
         c7:20:ae:24:d4:59:e3:2d:a5:57:79:ed:92:e3:99:be:18:32:
         fe:b4:0e:a9:80:5f:b6:44:81:0a:ae:49:8c:4b:69:92:75:dc:
         56:05:53:7d:1f:92:8c:19:46:09:66:22:66:6d:83:22:63:62:
         38:9f:a7:42:34:75:d6:c5:44:85:eb:e3:ad:4a:df:19:ac:c8:
         44:8b:58:b6:74:8d:cc:80:7a:d9:17:34:62:e2:0f:de:33:12:
         38:d8:14:08:54:cc:9c:b8:02:ce:4b:5e:7e:f7:63:28:18:02:
         a6:68:ee:91:a6:f3:3f:43:99:50:52:5c:c9:a2:0e:ce:0d:a4:
         2d:e7:66:e5:b5:20:7e:98:d7:c2:f4:d3:0e:cd:ab:bc:82:c6:
         63:65:c2:12
-----BEGIN CERTIFICATE-----
MIIETzCCAzegAwIBAgICEAMwDQYJKoZIhvcNAQELBQAwgYIxCzAJBgNVBAYTAkNa
MRowGAYDVQQIDBFKaWhvbW9yYXZza3kga3JhajEjMCEGA1UECgwaT3BlblN0YWNr
IENvbW1vbiBMaWJyYXJpZXMxFDASBgNVBAsMC0VuZ2luZWVyaW5nMRwwGgYDVQQD
DBNJbnRlcm1lZGlhdGUgQ0EgMDA0MB4XDTE4MDgxMDE2MjgzM1oXDTE4MDgzMTE2
MjgzM1owgYkxCzAJBgNVBAYTAkNaMRowGAYDVQQIDBFKaWhvbW9yYXZza3kga3Jh
ajENMAsGA1UEBwwEQnJubzEjMCEGA1UECgwaT3BlblN0YWNrIENvbW1vbiBMaWJy
YXJpZXMxFDASBgNVBAsMC0VuZ2luZWVyaW5nMRQwEgYDVQQDDAtOb2RlIDAwNDAw
NDCCASIwDQYJKoZIhvcNAQEBBQADggEPADCCAQoCggEBAKRa8k4OWeEBjBHSe4Py
0+hsTGy3sZAlbG7dV00aWAAp/I8BBPLCfTUSSIQ04tpFlK54NdDMGk5Dj194rIfM
ytMJM034NIpbq/fGnxqfRxbd0lAlC1YMkx4eDNfoXtb/vZZqjUE0DcII2ZuopZ4k
BIX4qhQyAqHE3NKqub8IcwyfEPUFvgDgCDpPTIQcSF3mE3MiqiW0iiYQchc+5av/
ZCG5ZmSfXJIpoED7kkT3rhnFklTBgujxSu0jEP3gk28OqCtvfTYaPhOISWk+XNy5
wlZ2dgxC57OHUv5FQVW8e8I7zZ4bjVZh5y4O3Jq/pMhCyytu4qFmnowYEplUHBJx
QlUCAwEAAaOBxTCBwjAJBgNVHRMEAjAAMBEGCWCGSAGG+EIBAQQEAwIFoDAzBglg
hkgBhvhCAQ0EJhYkT3BlblNTTCBHZW5lcmF0ZWQgQ2xpZW50IENlcnRpZmljYXRl
MB0GA1UdDgQWBBStsN9a1jzzbpwzBtKEzIYcYEahUTAfBgNVHSMEGDAWgBSYBLKp
Ja40IxC6UHXu5KAMK0FurjAOBgNVHQ8BAf8EBAMCBeAwHQYDVR0lBBYwFAYIKwYB
BQUHAwIGCCsGAQUFBwMEMA0GCSqGSIb3DQEBCwUAA4IBAQBev11KXvZPGMQOjOPD
USYkKv/VD7oafmEL0B+1XtBbTtH6C9LUrlpl5bSURAIuiCXt4LsbFR31U6ckwgjs
myBSWePd4RIMlaroMlyH1SjSbyMHLcgxJH3jQEpyhvx9dpkMqc6hJAaMtTyN/jDH
IK4k1FnjLaVXee2S45m+GDL+tA6pgF+2RIEKrkmMS2mSddxWBVN9H5KMGUYJZiJm
bYMiY2I4n6dCNHXWxUSF6+OtSt8ZrMhEi1i2dI3MgHrZFzRi4g/eMxI42BQIVMyc
uALOS15+92MoGAKmaO6RpvM/Q5lQUlzJog7ODaQt52bltSB+mNfC9NMOzau8gsZj
ZcIS
-----END CERTIFICATE-----
