Certificate:
    Data:
        Version: 3 (0x2)
        Serial Number: 4099 (0x1003)
    Signature Algorithm: sha256WithRSAEncryption
        Issuer: C=CZ, ST=Jihomoravsky kraj, O=OpenStack Common Libraries, OU=Engineering, CN=Intermediate CA 004
        Validity
            Not Before: Aug 14 16:16:15 2018 GMT
            Not After : Sep  4 16:16:15 2018 GMT
        Subject: C=CZ, ST=Jihomoravsky kraj, L=Brno, O=OpenStack Common Libraries, OU=Engineering, CN=Node 004004
        Subject Public Key Info:
            Public Key Algorithm: rsaEncryption
                Public-Key: (2048 bit)
                Modulus:
                    00:d2:37:1c:81:7e:a0:e7:ed:f2:c3:69:74:da:4f:
                    80:e5:60:7f:a1:c0:07:70:c2:26:23:b8:a9:bd:ca:
                    e2:d1:a7:19:9a:05:bf:64:a5:84:51:b2:8c:01:54:
                    5f:8a:a9:7c:40:d0:85:89:2d:65:a4:40:f1:cc:ed:
                    d4:1f:2b:68:46:61:e1:59:73:c7:83:66:95:f7:12:
                    c2:e4:ea:f0:ae:ef:34:f9:25:07:aa:c1:20:d1:52:
                    71:bf:d3:ef:2e:59:d2:56:f5:8f:19:a6:57:51:74:
                    b2:87:4e:44:9d:b8:3c:5e:c4:47:5f:bc:62:d8:d8:
                    9d:ac:35:ae:01:fe:2b:80:f0:3e:25:57:de:34:98:
                    e2:5e:87:1e:09:9b:76:ee:ec:1e:20:87:4c:12:70:
                    d2:81:79:d9:c7:57:84:3a:ca:01:c3:7e:4d:12:1a:
                    2f:78:21:81:90:5f:b8:7b:b5:84:3d:12:4c:20:80:
                    ae:91:e9:18:ad:62:32:23:f4:51:0f:ad:68:8d:09:
                    e2:bd:7b:97:97:5f:ab:a1:d0:51:d8:93:28:e3:aa:
                    61:5a:69:47:ed:fd:c0:91:0b:79:11:28:aa:b6:4f:
                    47:5a:bc:a8:9e:7e:c4:87:8e:14:70:6c:c7:31:28:
                    16:cf:64:f9:30:d4:64:ad:13:4d:10:d9:80:a5:ec:
                    86:df
                Exponent: 65537 (0x10001)
        X509v3 extensions:
            X509v3 Basic Constraints: 
                CA:FALSE
            Netscape Cert Type: 
                SSL Client, S/MIME
            Netscape Comment: 
                OpenSSL Generated Client Certificate
            X509v3 Subject Key Identifier: 
                86:EE:C6:F9:EE:1B:79:A2:6C:32:6E:5A:17:ED:A8:E8:8D:FB:AA:8C
            X509v3 Authority Key Identifier: 
                keyid:36:01:BF:34:4D:50:5E:FA:28:18:58:6B:29:14:B1:FB:E3:07:AE:31

            X509v3 Key Usage: critical
                Digital Signature, Non Repudiation, Key Encipherment
            X509v3 Extended Key Usage: 
                TLS Web Client Authentication, E-mail Protection
    Signature Algorithm: sha256WithRSAEncryption
         69:53:2a:1f:11:37:dd:11:27:1a:d4:f4:44:aa:0f:58:2d:3d:
         ba:18:a3:25:dd:57:e6:39:e0:9a:8f:16:ed:28:f3:c4:4c:ae:
         fa:06:dc:4d:ff:2d:4f:30:2a:7f:bd:7f:a2:2b:1f:99:a4:d0:
         28:fb:e3:87:f5:a4:15:ea:b9:72:12:f8:f3:d4:35:35:e4:c1:
         95:63:e2:d0:19:34:0a:c1:37:bd:70:2d:79:cf:a9:30:61:7e:
         28:02:da:5d:c1:8c:cd:4a:23:f6:65:ea:1d:d7:66:79:a2:a3:
         5a:01:73:bf:f4:da:7f:71:0e:64:0b:1a:5f:41:69:f8:ee:8b:
         b1:a2:fb:ad:16:3d:5a:c9:4e:5c:17:43:c2:20:6a:91:58:0b:
         02:45:18:3d:14:c5:35:35:4b:d9:d0:69:c1:50:e8:72:79:8e:
         09:04:88:82:10:0d:61:e6:0f:a8:39:b7:06:fc:6c:f4:79:96:
         29:d8:39:72:cb:bf:bd:b8:b4:78:a0:23:bf:42:fc:83:cf:1a:
         d3:78:0f:37:80:76:7f:85:91:94:28:df:89:73:64:32:48:f7:
         e3:75:46:29:56:2a:4c:fc:08:2b:a6:31:51:01:7e:64:8c:91:
         ec:ed:9c:3d:71:50:63:4f:ba:ec:ff:c6:2c:41:07:da:9f:14:
         de:a2:15:02:39:89:ea:1f:01:27:08:07:77:16:40:09:89:17:
         f4:cc:ea:0a:5b:c6:07:86:16:1e:c1:6f:64:11:3e:cb:27:38:
         2e:75:60:33:95:3b:6a:7c:34:56:45:e0:e0:ba:bd:ef:43:23:
         bd:3e:31:21:96:e5:62:07:78:7c:75:65:a1:54:41:e3:4b:62:
         66:b7:d9:0a:58:b7:dd:ba:da:13:47:b1:47:1c:d2:e1:41:54:
         10:7c:58:b7:11:be:ad:37:39:6f:fb:be:62:8a:1f:4e:7a:bb:
         94:ca:74:28:c4:15:15:8f:4b:dd:57:6e:75:89:59:6f:77:bb:
         a3:07:ff:f8:54:24:1b:2b:e0:a9:87:ac:01:35:f3:ee:3a:ef:
         fc:dd:49:76:18:df:fd:3c:0e:b2:ba:55:bb:c9:88:41:09:b0:
         56:52:28:89:6f:61:7b:ec:b4:d4:f5:f8:95:34:b2:49:58:3d:
         ce:8e:e6:d8:5b:0a:72:d3:0a:41:19:38:b3:eb:70:99:3e:53:
         95:f3:7c:b1:de:95:cc:cd:f9:2c:5b:11:84:f5:15:8a:b0:82:
         8b:bc:1d:6f:85:28:88:be:38:35:fb:46:02:c5:dc:e6:cd:00:
         4e:be:0f:33:8e:02:3f:75:b9:aa:99:f1:36:0e:af:61:63:4a:
         24:c1:fa:86:2d:fe:71:90
-----BEGIN CERTIFICATE-----
MIIFTzCCAzegAwIBAgICEAMwDQYJKoZIhvcNAQELBQAwgYIxCzAJBgNVBAYTAkNa
MRowGAYDVQQIDBFKaWhvbW9yYXZza3kga3JhajEjMCEGA1UECgwaT3BlblN0YWNr
IENvbW1vbiBMaWJyYXJpZXMxFDASBgNVBAsMC0VuZ2luZWVyaW5nMRwwGgYDVQQD
DBNJbnRlcm1lZGlhdGUgQ0EgMDA0MB4XDTE4MDgxNDE2MTYxNVoXDTE4MDkwNDE2
MTYxNVowgYkxCzAJBgNVBAYTAkNaMRowGAYDVQQIDBFKaWhvbW9yYXZza3kga3Jh
ajENMAsGA1UEBwwEQnJubzEjMCEGA1UECgwaT3BlblN0YWNrIENvbW1vbiBMaWJy
YXJpZXMxFDASBgNVBAsMC0VuZ2luZWVyaW5nMRQwEgYDVQQDDAtOb2RlIDAwNDAw
NDCCASIwDQYJKoZIhvcNAQEBBQADggEPADCCAQoCggEBANI3HIF+oOft8sNpdNpP
gOVgf6HAB3DCJiO4qb3K4tGnGZoFv2SlhFGyjAFUX4qpfEDQhYktZaRA8czt1B8r
aEZh4Vlzx4NmlfcSwuTq8K7vNPklB6rBINFScb/T7y5Z0lb1jxmmV1F0sodORJ24
PF7ER1+8YtjYnaw1rgH+K4DwPiVX3jSY4l6HHgmbdu7sHiCHTBJw0oF52cdXhDrK
AcN+TRIaL3ghgZBfuHu1hD0STCCArpHpGK1iMiP0UQ+taI0J4r17l5dfq6HQUdiT
KOOqYVppR+39wJELeREoqrZPR1q8qJ5+xIeOFHBsxzEoFs9k+TDUZK0TTRDZgKXs
ht8CAwEAAaOBxTCBwjAJBgNVHRMEAjAAMBEGCWCGSAGG+EIBAQQEAwIFoDAzBglg
hkgBhvhCAQ0EJhYkT3BlblNTTCBHZW5lcmF0ZWQgQ2xpZW50IENlcnRpZmljYXRl
MB0GA1UdDgQWBBSG7sb57ht5omwybloX7ajojfuqjDAfBgNVHSMEGDAWgBQ2Ab80
TVBe+igYWGspFLH74weuMTAOBgNVHQ8BAf8EBAMCBeAwHQYDVR0lBBYwFAYIKwYB
BQUHAwIGCCsGAQUFBwMEMA0GCSqGSIb3DQEBCwUAA4ICAQBpUyofETfdESca1PRE
qg9YLT26GKMl3VfmOeCajxbtKPPETK76BtxN/y1PMCp/vX+iKx+ZpNAo++OH9aQV
6rlyEvjz1DU15MGVY+LQGTQKwTe9cC15z6kwYX4oAtpdwYzNSiP2Zeod12Z5oqNa
AXO/9Np/cQ5kCxpfQWn47ouxovutFj1ayU5cF0PCIGqRWAsCRRg9FMU1NUvZ0GnB
UOhyeY4JBIiCEA1h5g+oObcG/Gz0eZYp2Dlyy7+9uLR4oCO/QvyDzxrTeA83gHZ/
hZGUKN+Jc2QySPfjdUYpVipM/AgrpjFRAX5kjJHs7Zw9cVBjT7rs/8YsQQfanxTe
ohUCOYnqHwEnCAd3FkAJiRf0zOoKW8YHhhYewW9kET7LJzgudWAzlTtqfDRWReDg
ur3vQyO9PjEhluViB3h8dWWhVEHjS2Jmt9kKWLfdutoTR7FHHNLhQVQQfFi3Eb6t
Nzlv+75iih9OeruUynQoxBUVj0vdV251iVlvd7ujB//4VCQbK+Cph6wBNfPuOu/8
3Ul2GN/9PA6yulW7yYhBCbBWUiiJb2F77LTU9fiVNLJJWD3OjubYWwpy0wpBGTiz
63CZPlOV83yx3pXMzfksWxGE9RWKsIKLvB1vhSiIvjg1+0YCxdzmzQBOvg8zjgI/
dbmqmfE2Dq9hY0okwfqGLf5xkA==
-----END CERTIFICATE-----
