Certificate:
    Data:
        Version: 3 (0x2)
        Serial Number: 4097 (0x1001)
    Signature Algorithm: sha256WithRSAEncryption
        Issuer: C=CZ, ST=Jihomoravsky kraj, O=OpenStack Common Libraries, OU=Engineering, CN=Intermediate CA 004
        Validity
            Not Before: Aug 10 16:28:30 2018 GMT
            Not After : Aug 31 16:28:30 2018 GMT
        Subject: C=CZ, ST=Jihomoravsky kraj, L=Brno, O=OpenStack Common Libraries, OU=Engineering, CN=Node 004002
        Subject Public Key Info:
            Public Key Algorithm: rsaEncryption
                Public-Key: (2048 bit)
                Modulus:
                    00:bd:aa:0a:35:1b:db:d2:b6:7d:83:bc:0c:e5:fb:
                    f4:0e:c8:03:1f:36:6b:b3:93:37:68:05:48:70:65:
                    7a:04:79:ee:20:fa:16:5c:da:d7:da:dc:b6:29:9b:
                    63:e7:37:c9:fc:43:fe:85:73:eb:55:5a:5e:8b:a2:
                    d0:0b:f8:65:6c:f0:6e:79:a7:9c:9b:69:d6:4d:7d:
                    63:9b:67:9d:cd:56:95:e8:ac:b6:12:e9:96:e3:ba:
                    b6:7c:3e:41:6e:b9:24:14:37:b8:e5:c9:42:ff:8a:
                    83:c4:f8:11:dd:ee:f7:f3:ac:35:f2:81:c0:b9:99:
                    50:0e:3d:c5:b0:d6:39:bf:15:a9:fa:20:53:56:45:
                    52:72:0d:7d:fb:fd:30:c8:a4:38:97:d0:d0:00:43:
                    60:1e:f8:c1:e0:24:3e:2f:52:4c:a7:c6:e3:08:05:
                    11:1d:6d:8a:47:c4:83:b0:d0:e8:6e:4a:92:c5:af:
                    59:c9:34:d9:d7:4f:3a:54:19:d4:6f:1d:6c:e5:e1:
                    e4:45:02:16:2c:c1:b1:f5:69:d8:ad:01:47:72:b8:
                    7f:b4:29:75:38:0c:71:83:12:ff:18:6f:ac:d2:3d:
                    13:4c:35:d7:b7:6a:9f:3d:a5:27:02:32:9d:e5:b9:
                    1b:9a:4a:18:86:03:43:0f:4e:0c:8d:d7:be:dc:22:
                    02:4f
                Exponent: 65537 (0x10001)
        X509v3 extensions:
            X509v3 Basic Constraints: 
                CA:FALSE
            Netscape Cert Type: 
                SSL Client, S/MIME
            Netscape Comment: 
                OpenSSL Generated Client Certificate
            X509v3 Subject Key Identifier: 
                9F:2F:03:04:FD:BE:50:9A:31:25:76:1D:68:29:9B:AC:74:1A:95:5B
            X509v3 Authority Key Identifier: 
                keyid:98:04:B2:A9:25:AE:34:23:10:BA:50:75:EE:E4:A0:0C:2B:41:6E:AE

            X509v3 Key Usage: critical
                Digital Signature, Non Repudiation, Key Encipherment
            X509v3 Extended Key Usage: 
                TLS Web Client Authentication, E-mail Protection
    Signature Algorithm: sha256WithRSAEncryption
         a8:ca:20:42:3d:d1:36:d7:7a:ee:c8:62:e1:6a:16:67:c3:2d:
         01:d8:93:7f:30:6f:39:59:70:5d:4c:08:03:63:9a:b9:e1:a7:
         d4:42:31:c0:3e:56:7e:72:4e:19:b6:d8:c0:76:96:fe:32:b4:
         b0:7d:16:ff:91:9c:42:3d:3b:db:e9:a4:29:dc:d4:47:0b:03:
         b7:01:08:a6:ac:43:b7:e0:67:cd:54:16:f0:b2:96:30:f5:30:
         56:d8:e6:b6:0c:61:87:d5:22:7a:86:2f:b9:85:85:9e:6a:56:
         7e:b5:fe:2e:a1:0d:52:59:9b:99:fc:92:85:6e:a3:00:58:d2:
         08:40:b3:db:69:87:3b:7f:74:fa:cc:d0:f0:3b:d0:a9:0a:03:
         7b:6a:58:1b:0c:fe:82:6d:7d:ad:40:63:c1:7d:96:e6:5c:e3:
         fa:e5:2f:20:46:81:4d:aa:d9:6e:7d:9d:3a:06:89:f8:34:aa:
         0b:46:38:86:4f:de:c0:6c:63:6d:0e:56:e8:da:ab:e8:a1:bf:
         db:b7:1e:69:84:fb:f8:a6:43:6a:dd:4b:e1:db:9c:b2:fc:1d:
         a5:37:d7:82:74:fc:9f:d0:d4:3e:0c:73:6b:aa:c3:22:40:18:
         17:46:dc:05:c9:13:69:6c:4d:94:20:8c:a9:73:eb:69:76:ce:
         12:51:74:b5
-----BEGIN CERTIFICATE-----
MIIETzCCAzegAwIBAgICEAEwDQYJKoZIhvcNAQELBQAwgYIxCzAJBgNVBAYTAkNa
MRowGAYDVQQIDBFKaWhvbW9yYXZza3kga3JhajEjMCEGA1UECgwaT3BlblN0YWNr
IENvbW1vbiBMaWJyYXJpZXMxFDASBgNVBAsMC0VuZ2luZWVyaW5nMRwwGgYDVQQD
DBNJbnRlcm1lZGlhdGUgQ0EgMDA0MB4XDTE4MDgxMDE2MjgzMFoXDTE4MDgzMTE2
MjgzMFowgYkxCzAJBgNVBAYTAkNaMRowGAYDVQQIDBFKaWhvbW9yYXZza3kga3Jh
ajENMAsGA1UEBwwEQnJubzEjMCEGA1UECgwaT3BlblN0YWNrIENvbW1vbiBMaWJy
YXJpZXMxFDASBgNVBAsMC0VuZ2luZWVyaW5nMRQwEgYDVQQDDAtOb2RlIDAwNDAw
MjCCASIwDQYJKoZIhvcNAQEBBQADggEPADCCAQoCggEBAL2qCjUb29K2fYO8DOX7
9A7IAx82a7OTN2gFSHBlegR57iD6Flza19rctimbY+c3yfxD/oVz61VaXoui0Av4
ZWzwbnmnnJtp1k19Y5tnnc1WleisthLpluO6tnw+QW65JBQ3uOXJQv+Kg8T4Ed3u
9/OsNfKBwLmZUA49xbDWOb8VqfogU1ZFUnINffv9MMikOJfQ0ABDYB74weAkPi9S
TKfG4wgFER1tikfEg7DQ6G5KksWvWck02ddPOlQZ1G8dbOXh5EUCFizBsfVp2K0B
R3K4f7QpdTgMcYMS/xhvrNI9E0w117dqnz2lJwIyneW5G5pKGIYDQw9ODI3Xvtwi
Ak8CAwEAAaOBxTCBwjAJBgNVHRMEAjAAMBEGCWCGSAGG+EIBAQQEAwIFoDAzBglg
hkgBhvhCAQ0EJhYkT3BlblNTTCBHZW5lcmF0ZWQgQ2xpZW50IENlcnRpZmljYXRl
MB0GA1UdDgQWBBSfLwME/b5QmjEldh1oKZusdBqVWzAfBgNVHSMEGDAWgBSYBLKp
Ja40IxC6UHXu5KAMK0FurjAOBgNVHQ8BAf8EBAMCBeAwHQYDVR0lBBYwFAYIKwYB
BQUHAwIGCCsGAQUFBwMEMA0GCSqGSIb3DQEBCwUAA4IBAQCoyiBCPdE213ruyGLh
ahZnwy0B2JN/MG85WXBdTAgDY5q54afUQjHAPlZ+ck4ZttjAdpb+MrSwfRb/kZxC
PTvb6aQp3NRHCwO3AQimrEO34GfNVBbwspYw9TBW2Oa2DGGH1SJ6hi+5hYWealZ+
tf4uoQ1SWZuZ/JKFbqMAWNIIQLPbaYc7f3T6zNDwO9CpCgN7algbDP6CbX2tQGPB
fZbmXOP65S8gRoFNqtlufZ06Bon4NKoLRjiGT97AbGNtDlbo2qvoob/btx5phPv4
pkNq3Uvh25yy/B2lN9eCdPyf0NQ+DHNrqsMiQBgXRtwFyRNpbE2UIIypc+tpds4S
UXS1
-----END CERTIFICATE-----
